
proj3.elf:     file format elf32-littlearm

Sections:
Idx Name          Size      VMA       LMA       File off  Algn
  0 .isr_vector   000001f8  08000000  08000000  00001000  2**0
                  CONTENTS, ALLOC, LOAD, READONLY, DATA
  1 .text         00006bdc  080001f8  080001f8  000011f8  2**3
                  CONTENTS, ALLOC, LOAD, READONLY, CODE
  2 .rodata       000005b0  08006dd8  08006dd8  00007dd8  2**3
                  CONTENTS, ALLOC, LOAD, READONLY, DATA
  3 .ARM.extab    00000000  08007388  08007388  0000905c  2**0
                  CONTENTS, READONLY
  4 .ARM          00000008  08007388  08007388  00008388  2**2
                  CONTENTS, ALLOC, LOAD, READONLY, DATA
  5 .preinit_array 00000000  08007390  08007390  0000905c  2**0
                  CONTENTS, ALLOC, LOAD, DATA
  6 .init_array   00000004  08007390  08007390  00008390  2**2
                  CONTENTS, ALLOC, LOAD, READONLY, DATA
  7 .fini_array   00000004  08007394  08007394  00008394  2**2
                  CONTENTS, ALLOC, LOAD, READONLY, DATA
  8 .data         0000005c  20000000  08007398  00009000  2**2
                  CONTENTS, ALLOC, LOAD, DATA
  9 .bss          00000364  2000005c  080073f4  0000905c  2**2
                  ALLOC
 10 ._user_heap_stack 00000600  200003c0  080073f4  000093c0  2**0
                  ALLOC
 11 .ARM.attributes 0000002e  00000000  00000000  0000905c  2**0
                  CONTENTS, READONLY
 12 .debug_info   000148c5  00000000  00000000  0000908a  2**0
                  CONTENTS, READONLY, DEBUGGING, OCTETS
 13 .debug_abbrev 00002c60  00000000  00000000  0001d94f  2**0
                  CONTENTS, READONLY, DEBUGGING, OCTETS
 14 .debug_aranges 00001200  00000000  00000000  000205b0  2**3
                  CONTENTS, READONLY, DEBUGGING, OCTETS
 15 .debug_ranges 000010a0  00000000  00000000  000217b0  2**3
                  CONTENTS, READONLY, DEBUGGING, OCTETS
 16 .debug_macro  00028d85  00000000  00000000  00022850  2**0
                  CONTENTS, READONLY, DEBUGGING, OCTETS
 17 .debug_line   00016eac  00000000  00000000  0004b5d5  2**0
                  CONTENTS, READONLY, DEBUGGING, OCTETS
 18 .debug_str    000fee83  00000000  00000000  00062481  2**0
                  CONTENTS, READONLY, DEBUGGING, OCTETS
 19 .comment      00000043  00000000  00000000  00161304  2**0
                  CONTENTS, READONLY
 20 .debug_frame  00004e70  00000000  00000000  00161348  2**2
                  CONTENTS, READONLY, DEBUGGING, OCTETS

Disassembly of section .text:

080001f8 <__do_global_dtors_aux>:
 80001f8:	b510      	push	{r4, lr}
 80001fa:	4c05      	ldr	r4, [pc, #20]	@ (8000210 <__do_global_dtors_aux+0x18>)
 80001fc:	7823      	ldrb	r3, [r4, #0]
 80001fe:	b933      	cbnz	r3, 800020e <__do_global_dtors_aux+0x16>
 8000200:	4b04      	ldr	r3, [pc, #16]	@ (8000214 <__do_global_dtors_aux+0x1c>)
 8000202:	b113      	cbz	r3, 800020a <__do_global_dtors_aux+0x12>
 8000204:	4804      	ldr	r0, [pc, #16]	@ (8000218 <__do_global_dtors_aux+0x20>)
 8000206:	f3af 8000 	nop.w
 800020a:	2301      	movs	r3, #1
 800020c:	7023      	strb	r3, [r4, #0]
 800020e:	bd10      	pop	{r4, pc}
 8000210:	2000005c 	.word	0x2000005c
 8000214:	00000000 	.word	0x00000000
 8000218:	08006dbc 	.word	0x08006dbc

0800021c <frame_dummy>:
 800021c:	b508      	push	{r3, lr}
 800021e:	4b03      	ldr	r3, [pc, #12]	@ (800022c <frame_dummy+0x10>)
 8000220:	b11b      	cbz	r3, 800022a <frame_dummy+0xe>
 8000222:	4903      	ldr	r1, [pc, #12]	@ (8000230 <frame_dummy+0x14>)
 8000224:	4803      	ldr	r0, [pc, #12]	@ (8000234 <frame_dummy+0x18>)
 8000226:	f3af 8000 	nop.w
 800022a:	bd08      	pop	{r3, pc}
 800022c:	00000000 	.word	0x00000000
 8000230:	20000060 	.word	0x20000060
 8000234:	08006dbc 	.word	0x08006dbc

08000238 <__aeabi_frsub>:
 8000238:	f080 4000 	eor.w	r0, r0, #2147483648	@ 0x80000000
 800023c:	e002      	b.n	8000244 <__addsf3>
 800023e:	bf00      	nop

08000240 <__aeabi_fsub>:
 8000240:	f081 4100 	eor.w	r1, r1, #2147483648	@ 0x80000000

08000244 <__addsf3>:
 8000244:	0042      	lsls	r2, r0, #1
 8000246:	bf1f      	itttt	ne
 8000248:	ea5f 0341 	movsne.w	r3, r1, lsl #1
 800024c:	ea92 0f03 	teqne	r2, r3
 8000250:	ea7f 6c22 	mvnsne.w	ip, r2, asr #24
 8000254:	ea7f 6c23 	mvnsne.w	ip, r3, asr #24
 8000258:	d06a      	beq.n	8000330 <__addsf3+0xec>
 800025a:	ea4f 6212 	mov.w	r2, r2, lsr #24
 800025e:	ebd2 6313 	rsbs	r3, r2, r3, lsr #24
 8000262:	bfc1      	itttt	gt
 8000264:	18d2      	addgt	r2, r2, r3
 8000266:	4041      	eorgt	r1, r0
 8000268:	4048      	eorgt	r0, r1
 800026a:	4041      	eorgt	r1, r0
 800026c:	bfb8      	it	lt
 800026e:	425b      	neglt	r3, r3
 8000270:	2b19      	cmp	r3, #25
 8000272:	bf88      	it	hi
 8000274:	4770      	bxhi	lr
 8000276:	f010 4f00 	tst.w	r0, #2147483648	@ 0x80000000
 800027a:	f440 0000 	orr.w	r0, r0, #8388608	@ 0x800000
 800027e:	f020 407f 	bic.w	r0, r0, #4278190080	@ 0xff000000
 8000282:	bf18      	it	ne
 8000284:	4240      	negne	r0, r0
 8000286:	f011 4f00 	tst.w	r1, #2147483648	@ 0x80000000
 800028a:	f441 0100 	orr.w	r1, r1, #8388608	@ 0x800000
 800028e:	f021 417f 	bic.w	r1, r1, #4278190080	@ 0xff000000
 8000292:	bf18      	it	ne
 8000294:	4249      	negne	r1, r1
 8000296:	ea92 0f03 	teq	r2, r3
 800029a:	d03f      	beq.n	800031c <__addsf3+0xd8>
 800029c:	f1a2 0201 	sub.w	r2, r2, #1
 80002a0:	fa41 fc03 	asr.w	ip, r1, r3
 80002a4:	eb10 000c 	adds.w	r0, r0, ip
 80002a8:	f1c3 0320 	rsb	r3, r3, #32
 80002ac:	fa01 f103 	lsl.w	r1, r1, r3
 80002b0:	f000 4300 	and.w	r3, r0, #2147483648	@ 0x80000000
 80002b4:	d502      	bpl.n	80002bc <__addsf3+0x78>
 80002b6:	4249      	negs	r1, r1
 80002b8:	eb60 0040 	sbc.w	r0, r0, r0, lsl #1
 80002bc:	f5b0 0f00 	cmp.w	r0, #8388608	@ 0x800000
 80002c0:	d313      	bcc.n	80002ea <__addsf3+0xa6>
 80002c2:	f1b0 7f80 	cmp.w	r0, #16777216	@ 0x1000000
 80002c6:	d306      	bcc.n	80002d6 <__addsf3+0x92>
 80002c8:	0840      	lsrs	r0, r0, #1
 80002ca:	ea4f 0131 	mov.w	r1, r1, rrx
 80002ce:	f102 0201 	add.w	r2, r2, #1
 80002d2:	2afe      	cmp	r2, #254	@ 0xfe
 80002d4:	d251      	bcs.n	800037a <__addsf3+0x136>
 80002d6:	f1b1 4f00 	cmp.w	r1, #2147483648	@ 0x80000000
 80002da:	eb40 50c2 	adc.w	r0, r0, r2, lsl #23
 80002de:	bf08      	it	eq
 80002e0:	f020 0001 	biceq.w	r0, r0, #1
 80002e4:	ea40 0003 	orr.w	r0, r0, r3
 80002e8:	4770      	bx	lr
 80002ea:	0049      	lsls	r1, r1, #1
 80002ec:	eb40 0000 	adc.w	r0, r0, r0
 80002f0:	3a01      	subs	r2, #1
 80002f2:	bf28      	it	cs
 80002f4:	f5b0 0f00 	cmpcs.w	r0, #8388608	@ 0x800000
 80002f8:	d2ed      	bcs.n	80002d6 <__addsf3+0x92>
 80002fa:	fab0 fc80 	clz	ip, r0
 80002fe:	f1ac 0c08 	sub.w	ip, ip, #8
 8000302:	ebb2 020c 	subs.w	r2, r2, ip
 8000306:	fa00 f00c 	lsl.w	r0, r0, ip
 800030a:	bfaa      	itet	ge
 800030c:	eb00 50c2 	addge.w	r0, r0, r2, lsl #23
 8000310:	4252      	neglt	r2, r2
 8000312:	4318      	orrge	r0, r3
 8000314:	bfbc      	itt	lt
 8000316:	40d0      	lsrlt	r0, r2
 8000318:	4318      	orrlt	r0, r3
 800031a:	4770      	bx	lr
 800031c:	f092 0f00 	teq	r2, #0
 8000320:	f481 0100 	eor.w	r1, r1, #8388608	@ 0x800000
 8000324:	bf06      	itte	eq
 8000326:	f480 0000 	eoreq.w	r0, r0, #8388608	@ 0x800000
 800032a:	3201      	addeq	r2, #1
 800032c:	3b01      	subne	r3, #1
 800032e:	e7b5      	b.n	800029c <__addsf3+0x58>
 8000330:	ea4f 0341 	mov.w	r3, r1, lsl #1
 8000334:	ea7f 6c22 	mvns.w	ip, r2, asr #24
 8000338:	bf18      	it	ne
 800033a:	ea7f 6c23 	mvnsne.w	ip, r3, asr #24
 800033e:	d021      	beq.n	8000384 <__addsf3+0x140>
 8000340:	ea92 0f03 	teq	r2, r3
 8000344:	d004      	beq.n	8000350 <__addsf3+0x10c>
 8000346:	f092 0f00 	teq	r2, #0
 800034a:	bf08      	it	eq
 800034c:	4608      	moveq	r0, r1
 800034e:	4770      	bx	lr
 8000350:	ea90 0f01 	teq	r0, r1
 8000354:	bf1c      	itt	ne
 8000356:	2000      	movne	r0, #0
 8000358:	4770      	bxne	lr
 800035a:	f012 4f7f 	tst.w	r2, #4278190080	@ 0xff000000
 800035e:	d104      	bne.n	800036a <__addsf3+0x126>
 8000360:	0040      	lsls	r0, r0, #1
 8000362:	bf28      	it	cs
 8000364:	f040 4000 	orrcs.w	r0, r0, #2147483648	@ 0x80000000
 8000368:	4770      	bx	lr
 800036a:	f112 7200 	adds.w	r2, r2, #33554432	@ 0x2000000
 800036e:	bf3c      	itt	cc
 8000370:	f500 0000 	addcc.w	r0, r0, #8388608	@ 0x800000
 8000374:	4770      	bxcc	lr
 8000376:	f000 4300 	and.w	r3, r0, #2147483648	@ 0x80000000
 800037a:	f043 40fe 	orr.w	r0, r3, #2130706432	@ 0x7f000000
 800037e:	f440 0000 	orr.w	r0, r0, #8388608	@ 0x800000
 8000382:	4770      	bx	lr
 8000384:	ea7f 6222 	mvns.w	r2, r2, asr #24
 8000388:	bf16      	itet	ne
 800038a:	4608      	movne	r0, r1
 800038c:	ea7f 6323 	mvnseq.w	r3, r3, asr #24
 8000390:	4601      	movne	r1, r0
 8000392:	0242      	lsls	r2, r0, #9
 8000394:	bf06      	itte	eq
 8000396:	ea5f 2341 	movseq.w	r3, r1, lsl #9
 800039a:	ea90 0f01 	teqeq	r0, r1
 800039e:	f440 0080 	orrne.w	r0, r0, #4194304	@ 0x400000
 80003a2:	4770      	bx	lr

080003a4 <__aeabi_ui2f>:
 80003a4:	f04f 0300 	mov.w	r3, #0
 80003a8:	e004      	b.n	80003b4 <__aeabi_i2f+0x8>
 80003aa:	bf00      	nop

080003ac <__aeabi_i2f>:
 80003ac:	f010 4300 	ands.w	r3, r0, #2147483648	@ 0x80000000
 80003b0:	bf48      	it	mi
 80003b2:	4240      	negmi	r0, r0
 80003b4:	ea5f 0c00 	movs.w	ip, r0
 80003b8:	bf08      	it	eq
 80003ba:	4770      	bxeq	lr
 80003bc:	f043 4396 	orr.w	r3, r3, #1258291200	@ 0x4b000000
 80003c0:	4601      	mov	r1, r0
 80003c2:	f04f 0000 	mov.w	r0, #0
 80003c6:	e01c      	b.n	8000402 <__aeabi_l2f+0x2a>

080003c8 <__aeabi_ul2f>:
 80003c8:	ea50 0201 	orrs.w	r2, r0, r1
 80003cc:	bf08      	it	eq
 80003ce:	4770      	bxeq	lr
 80003d0:	f04f 0300 	mov.w	r3, #0
 80003d4:	e00a      	b.n	80003ec <__aeabi_l2f+0x14>
 80003d6:	bf00      	nop

080003d8 <__aeabi_l2f>:
 80003d8:	ea50 0201 	orrs.w	r2, r0, r1
 80003dc:	bf08      	it	eq
 80003de:	4770      	bxeq	lr
 80003e0:	f011 4300 	ands.w	r3, r1, #2147483648	@ 0x80000000
 80003e4:	d502      	bpl.n	80003ec <__aeabi_l2f+0x14>
 80003e6:	4240      	negs	r0, r0
 80003e8:	eb61 0141 	sbc.w	r1, r1, r1, lsl #1
 80003ec:	ea5f 0c01 	movs.w	ip, r1
 80003f0:	bf02      	ittt	eq
 80003f2:	4684      	moveq	ip, r0
 80003f4:	4601      	moveq	r1, r0
 80003f6:	2000      	moveq	r0, #0
 80003f8:	f043 43b6 	orr.w	r3, r3, #1526726656	@ 0x5b000000
 80003fc:	bf08      	it	eq
 80003fe:	f1a3 5380 	subeq.w	r3, r3, #268435456	@ 0x10000000
 8000402:	f5a3 0300 	sub.w	r3, r3, #8388608	@ 0x800000
 8000406:	fabc f28c 	clz	r2, ip
 800040a:	3a08      	subs	r2, #8
 800040c:	eba3 53c2 	sub.w	r3, r3, r2, lsl #23
 8000410:	db10      	blt.n	8000434 <__aeabi_l2f+0x5c>
 8000412:	fa01 fc02 	lsl.w	ip, r1, r2
 8000416:	4463      	add	r3, ip
 8000418:	fa00 fc02 	lsl.w	ip, r0, r2
 800041c:	f1c2 0220 	rsb	r2, r2, #32
 8000420:	f1bc 4f00 	cmp.w	ip, #2147483648	@ 0x80000000
 8000424:	fa20 f202 	lsr.w	r2, r0, r2
 8000428:	eb43 0002 	adc.w	r0, r3, r2
 800042c:	bf08      	it	eq
 800042e:	f020 0001 	biceq.w	r0, r0, #1
 8000432:	4770      	bx	lr
 8000434:	f102 0220 	add.w	r2, r2, #32
 8000438:	fa01 fc02 	lsl.w	ip, r1, r2
 800043c:	f1c2 0220 	rsb	r2, r2, #32
 8000440:	ea50 004c 	orrs.w	r0, r0, ip, lsl #1
 8000444:	fa21 f202 	lsr.w	r2, r1, r2
 8000448:	eb43 0002 	adc.w	r0, r3, r2
 800044c:	bf08      	it	eq
 800044e:	ea20 70dc 	biceq.w	r0, r0, ip, lsr #31
 8000452:	4770      	bx	lr

08000454 <__aeabi_ldivmod>:
 8000454:	b97b      	cbnz	r3, 8000476 <__aeabi_ldivmod+0x22>
 8000456:	b972      	cbnz	r2, 8000476 <__aeabi_ldivmod+0x22>
 8000458:	2900      	cmp	r1, #0
 800045a:	bfbe      	ittt	lt
 800045c:	2000      	movlt	r0, #0
 800045e:	f04f 4100 	movlt.w	r1, #2147483648	@ 0x80000000
 8000462:	e006      	blt.n	8000472 <__aeabi_ldivmod+0x1e>
 8000464:	bf08      	it	eq
 8000466:	2800      	cmpeq	r0, #0
 8000468:	bf1c      	itt	ne
 800046a:	f06f 4100 	mvnne.w	r1, #2147483648	@ 0x80000000
 800046e:	f04f 30ff 	movne.w	r0, #4294967295
 8000472:	f000 b9d3 	b.w	800081c <__aeabi_idiv0>
 8000476:	f1ad 0c08 	sub.w	ip, sp, #8
 800047a:	e96d ce04 	strd	ip, lr, [sp, #-16]!
 800047e:	2900      	cmp	r1, #0
 8000480:	db09      	blt.n	8000496 <__aeabi_ldivmod+0x42>
 8000482:	2b00      	cmp	r3, #0
 8000484:	db1a      	blt.n	80004bc <__aeabi_ldivmod+0x68>
 8000486:	f000 f84d 	bl	8000524 <__udivmoddi4>
 800048a:	f8dd e004 	ldr.w	lr, [sp, #4]
 800048e:	e9dd 2302 	ldrd	r2, r3, [sp, #8]
 8000492:	b004      	add	sp, #16
 8000494:	4770      	bx	lr
 8000496:	4240      	negs	r0, r0
 8000498:	eb61 0141 	sbc.w	r1, r1, r1, lsl #1
 800049c:	2b00      	cmp	r3, #0
 800049e:	db1b      	blt.n	80004d8 <__aeabi_ldivmod+0x84>
 80004a0:	f000 f840 	bl	8000524 <__udivmoddi4>
 80004a4:	f8dd e004 	ldr.w	lr, [sp, #4]
 80004a8:	e9dd 2302 	ldrd	r2, r3, [sp, #8]
 80004ac:	b004      	add	sp, #16
 80004ae:	4240      	negs	r0, r0
 80004b0:	eb61 0141 	sbc.w	r1, r1, r1, lsl #1
 80004b4:	4252      	negs	r2, r2
 80004b6:	eb63 0343 	sbc.w	r3, r3, r3, lsl #1
 80004ba:	4770      	bx	lr
 80004bc:	4252      	negs	r2, r2
 80004be:	eb63 0343 	sbc.w	r3, r3, r3, lsl #1
 80004c2:	f000 f82f 	bl	8000524 <__udivmoddi4>
 80004c6:	f8dd e004 	ldr.w	lr, [sp, #4]
 80004ca:	e9dd 2302 	ldrd	r2, r3, [sp, #8]
 80004ce:	b004      	add	sp, #16
 80004d0:	4240      	negs	r0, r0
 80004d2:	eb61 0141 	sbc.w	r1, r1, r1, lsl #1
 80004d6:	4770      	bx	lr
 80004d8:	4252      	negs	r2, r2
 80004da:	eb63 0343 	sbc.w	r3, r3, r3, lsl #1
 80004de:	f000 f821 	bl	8000524 <__udivmoddi4>
 80004e2:	f8dd e004 	ldr.w	lr, [sp, #4]
 80004e6:	e9dd 2302 	ldrd	r2, r3, [sp, #8]
 80004ea:	b004      	add	sp, #16
 80004ec:	4252      	negs	r2, r2
 80004ee:	eb63 0343 	sbc.w	r3, r3, r3, lsl #1
 80004f2:	4770      	bx	lr

080004f4 <__aeabi_uldivmod>:
 80004f4:	b953      	cbnz	r3, 800050c <__aeabi_uldivmod+0x18>
 80004f6:	b94a      	cbnz	r2, 800050c <__aeabi_uldivmod+0x18>
 80004f8:	2900      	cmp	r1, #0
 80004fa:	bf08      	it	eq
 80004fc:	2800      	cmpeq	r0, #0
 80004fe:	bf1c      	itt	ne
 8000500:	f04f 31ff 	movne.w	r1, #4294967295
 8000504:	f04f 30ff 	movne.w	r0, #4294967295
 8000508:	f000 b988 	b.w	800081c <__aeabi_idiv0>
 800050c:	f1ad 0c08 	sub.w	ip, sp, #8
 8000510:	e96d ce04 	strd	ip, lr, [sp, #-16]!
 8000514:	f000 f806 	bl	8000524 <__udivmoddi4>
 8000518:	f8dd e004 	ldr.w	lr, [sp, #4]
 800051c:	e9dd 2302 	ldrd	r2, r3, [sp, #8]
 8000520:	b004      	add	sp, #16
 8000522:	4770      	bx	lr

08000524 <__udivmoddi4>:
 8000524:	e92d 47f0 	stmdb	sp!, {r4, r5, r6, r7, r8, r9, sl, lr}
 8000528:	9d08      	ldr	r5, [sp, #32]
 800052a:	468e      	mov	lr, r1
 800052c:	4604      	mov	r4, r0
 800052e:	4688      	mov	r8, r1
 8000530:	2b00      	cmp	r3, #0
 8000532:	d14a      	bne.n	80005ca <__udivmoddi4+0xa6>
 8000534:	428a      	cmp	r2, r1
 8000536:	4617      	mov	r7, r2
 8000538:	d962      	bls.n	8000600 <__udivmoddi4+0xdc>
 800053a:	fab2 f682 	clz	r6, r2
 800053e:	b14e      	cbz	r6, 8000554 <__udivmoddi4+0x30>
 8000540:	f1c6 0320 	rsb	r3, r6, #32
 8000544:	fa01 f806 	lsl.w	r8, r1, r6
 8000548:	fa20 f303 	lsr.w	r3, r0, r3
 800054c:	40b7      	lsls	r7, r6
 800054e:	ea43 0808 	orr.w	r8, r3, r8
 8000552:	40b4      	lsls	r4, r6
 8000554:	ea4f 4e17 	mov.w	lr, r7, lsr #16
 8000558:	fa1f fc87 	uxth.w	ip, r7
 800055c:	fbb8 f1fe 	udiv	r1, r8, lr
 8000560:	0c23      	lsrs	r3, r4, #16
 8000562:	fb0e 8811 	mls	r8, lr, r1, r8
 8000566:	ea43 4308 	orr.w	r3, r3, r8, lsl #16
 800056a:	fb01 f20c 	mul.w	r2, r1, ip
 800056e:	429a      	cmp	r2, r3
 8000570:	d909      	bls.n	8000586 <__udivmoddi4+0x62>
 8000572:	18fb      	adds	r3, r7, r3
 8000574:	f101 30ff 	add.w	r0, r1, #4294967295
 8000578:	f080 80ea 	bcs.w	8000750 <__udivmoddi4+0x22c>
 800057c:	429a      	cmp	r2, r3
 800057e:	f240 80e7 	bls.w	8000750 <__udivmoddi4+0x22c>
 8000582:	3902      	subs	r1, #2
 8000584:	443b      	add	r3, r7
 8000586:	1a9a      	subs	r2, r3, r2
 8000588:	b2a3      	uxth	r3, r4
 800058a:	fbb2 f0fe 	udiv	r0, r2, lr
 800058e:	fb0e 2210 	mls	r2, lr, r0, r2
 8000592:	ea43 4302 	orr.w	r3, r3, r2, lsl #16
 8000596:	fb00 fc0c 	mul.w	ip, r0, ip
 800059a:	459c      	cmp	ip, r3
 800059c:	d909      	bls.n	80005b2 <__udivmoddi4+0x8e>
 800059e:	18fb      	adds	r3, r7, r3
 80005a0:	f100 32ff 	add.w	r2, r0, #4294967295
 80005a4:	f080 80d6 	bcs.w	8000754 <__udivmoddi4+0x230>
 80005a8:	459c      	cmp	ip, r3
 80005aa:	f240 80d3 	bls.w	8000754 <__udivmoddi4+0x230>
 80005ae:	443b      	add	r3, r7
 80005b0:	3802      	subs	r0, #2
 80005b2:	ea40 4001 	orr.w	r0, r0, r1, lsl #16
 80005b6:	eba3 030c 	sub.w	r3, r3, ip
 80005ba:	2100      	movs	r1, #0
 80005bc:	b11d      	cbz	r5, 80005c6 <__udivmoddi4+0xa2>
 80005be:	40f3      	lsrs	r3, r6
 80005c0:	2200      	movs	r2, #0
 80005c2:	e9c5 3200 	strd	r3, r2, [r5]
 80005c6:	e8bd 87f0 	ldmia.w	sp!, {r4, r5, r6, r7, r8, r9, sl, pc}
 80005ca:	428b      	cmp	r3, r1
 80005cc:	d905      	bls.n	80005da <__udivmoddi4+0xb6>
 80005ce:	b10d      	cbz	r5, 80005d4 <__udivmoddi4+0xb0>
 80005d0:	e9c5 0100 	strd	r0, r1, [r5]
 80005d4:	2100      	movs	r1, #0
 80005d6:	4608      	mov	r0, r1
 80005d8:	e7f5      	b.n	80005c6 <__udivmoddi4+0xa2>
 80005da:	fab3 f183 	clz	r1, r3
 80005de:	2900      	cmp	r1, #0
 80005e0:	d146      	bne.n	8000670 <__udivmoddi4+0x14c>
 80005e2:	4573      	cmp	r3, lr
 80005e4:	d302      	bcc.n	80005ec <__udivmoddi4+0xc8>
 80005e6:	4282      	cmp	r2, r0
 80005e8:	f200 8105 	bhi.w	80007f6 <__udivmoddi4+0x2d2>
 80005ec:	1a84      	subs	r4, r0, r2
 80005ee:	eb6e 0203 	sbc.w	r2, lr, r3
 80005f2:	2001      	movs	r0, #1
 80005f4:	4690      	mov	r8, r2
 80005f6:	2d00      	cmp	r5, #0
 80005f8:	d0e5      	beq.n	80005c6 <__udivmoddi4+0xa2>
 80005fa:	e9c5 4800 	strd	r4, r8, [r5]
 80005fe:	e7e2      	b.n	80005c6 <__udivmoddi4+0xa2>
 8000600:	2a00      	cmp	r2, #0
 8000602:	f000 8090 	beq.w	8000726 <__udivmoddi4+0x202>
 8000606:	fab2 f682 	clz	r6, r2
 800060a:	2e00      	cmp	r6, #0
 800060c:	f040 80a4 	bne.w	8000758 <__udivmoddi4+0x234>
 8000610:	1a8a      	subs	r2, r1, r2
 8000612:	0c03      	lsrs	r3, r0, #16
 8000614:	ea4f 4e17 	mov.w	lr, r7, lsr #16
 8000618:	b280      	uxth	r0, r0
 800061a:	b2bc      	uxth	r4, r7
 800061c:	2101      	movs	r1, #1
 800061e:	fbb2 fcfe 	udiv	ip, r2, lr
 8000622:	fb0e 221c 	mls	r2, lr, ip, r2
 8000626:	ea43 4302 	orr.w	r3, r3, r2, lsl #16
 800062a:	fb04 f20c 	mul.w	r2, r4, ip
 800062e:	429a      	cmp	r2, r3
 8000630:	d907      	bls.n	8000642 <__udivmoddi4+0x11e>
 8000632:	18fb      	adds	r3, r7, r3
 8000634:	f10c 38ff 	add.w	r8, ip, #4294967295
 8000638:	d202      	bcs.n	8000640 <__udivmoddi4+0x11c>
 800063a:	429a      	cmp	r2, r3
 800063c:	f200 80e0 	bhi.w	8000800 <__udivmoddi4+0x2dc>
 8000640:	46c4      	mov	ip, r8
 8000642:	1a9b      	subs	r3, r3, r2
 8000644:	fbb3 f2fe 	udiv	r2, r3, lr
 8000648:	fb0e 3312 	mls	r3, lr, r2, r3
 800064c:	ea40 4303 	orr.w	r3, r0, r3, lsl #16
 8000650:	fb02 f404 	mul.w	r4, r2, r4
 8000654:	429c      	cmp	r4, r3
 8000656:	d907      	bls.n	8000668 <__udivmoddi4+0x144>
 8000658:	18fb      	adds	r3, r7, r3
 800065a:	f102 30ff 	add.w	r0, r2, #4294967295
 800065e:	d202      	bcs.n	8000666 <__udivmoddi4+0x142>
 8000660:	429c      	cmp	r4, r3
 8000662:	f200 80ca 	bhi.w	80007fa <__udivmoddi4+0x2d6>
 8000666:	4602      	mov	r2, r0
 8000668:	1b1b      	subs	r3, r3, r4
 800066a:	ea42 400c 	orr.w	r0, r2, ip, lsl #16
 800066e:	e7a5      	b.n	80005bc <__udivmoddi4+0x98>
 8000670:	f1c1 0620 	rsb	r6, r1, #32
 8000674:	408b      	lsls	r3, r1
 8000676:	fa22 f706 	lsr.w	r7, r2, r6
 800067a:	431f      	orrs	r7, r3
 800067c:	fa0e f401 	lsl.w	r4, lr, r1
 8000680:	fa20 f306 	lsr.w	r3, r0, r6
 8000684:	fa2e fe06 	lsr.w	lr, lr, r6
 8000688:	ea4f 4917 	mov.w	r9, r7, lsr #16
 800068c:	4323      	orrs	r3, r4
 800068e:	fa00 f801 	lsl.w	r8, r0, r1
 8000692:	fa1f fc87 	uxth.w	ip, r7
 8000696:	fbbe f0f9 	udiv	r0, lr, r9
 800069a:	0c1c      	lsrs	r4, r3, #16
 800069c:	fb09 ee10 	mls	lr, r9, r0, lr
 80006a0:	ea44 440e 	orr.w	r4, r4, lr, lsl #16
 80006a4:	fb00 fe0c 	mul.w	lr, r0, ip
 80006a8:	45a6      	cmp	lr, r4
 80006aa:	fa02 f201 	lsl.w	r2, r2, r1
 80006ae:	d909      	bls.n	80006c4 <__udivmoddi4+0x1a0>
 80006b0:	193c      	adds	r4, r7, r4
 80006b2:	f100 3aff 	add.w	sl, r0, #4294967295
 80006b6:	f080 809c 	bcs.w	80007f2 <__udivmoddi4+0x2ce>
 80006ba:	45a6      	cmp	lr, r4
 80006bc:	f240 8099 	bls.w	80007f2 <__udivmoddi4+0x2ce>
 80006c0:	3802      	subs	r0, #2
 80006c2:	443c      	add	r4, r7
 80006c4:	eba4 040e 	sub.w	r4, r4, lr
 80006c8:	fa1f fe83 	uxth.w	lr, r3
 80006cc:	fbb4 f3f9 	udiv	r3, r4, r9
 80006d0:	fb09 4413 	mls	r4, r9, r3, r4
 80006d4:	ea4e 4404 	orr.w	r4, lr, r4, lsl #16
 80006d8:	fb03 fc0c 	mul.w	ip, r3, ip
 80006dc:	45a4      	cmp	ip, r4
 80006de:	d908      	bls.n	80006f2 <__udivmoddi4+0x1ce>
 80006e0:	193c      	adds	r4, r7, r4
 80006e2:	f103 3eff 	add.w	lr, r3, #4294967295
 80006e6:	f080 8082 	bcs.w	80007ee <__udivmoddi4+0x2ca>
 80006ea:	45a4      	cmp	ip, r4
 80006ec:	d97f      	bls.n	80007ee <__udivmoddi4+0x2ca>
 80006ee:	3b02      	subs	r3, #2
 80006f0:	443c      	add	r4, r7
 80006f2:	ea43 4000 	orr.w	r0, r3, r0, lsl #16
 80006f6:	eba4 040c 	sub.w	r4, r4, ip
 80006fa:	fba0 ec02 	umull	lr, ip, r0, r2
 80006fe:	4564      	cmp	r4, ip
 8000700:	4673      	mov	r3, lr
 8000702:	46e1      	mov	r9, ip
 8000704:	d362      	bcc.n	80007cc <__udivmoddi4+0x2a8>
 8000706:	d05f      	beq.n	80007c8 <__udivmoddi4+0x2a4>
 8000708:	b15d      	cbz	r5, 8000722 <__udivmoddi4+0x1fe>
 800070a:	ebb8 0203 	subs.w	r2, r8, r3
 800070e:	eb64 0409 	sbc.w	r4, r4, r9
 8000712:	fa04 f606 	lsl.w	r6, r4, r6
 8000716:	fa22 f301 	lsr.w	r3, r2, r1
 800071a:	431e      	orrs	r6, r3
 800071c:	40cc      	lsrs	r4, r1
 800071e:	e9c5 6400 	strd	r6, r4, [r5]
 8000722:	2100      	movs	r1, #0
 8000724:	e74f      	b.n	80005c6 <__udivmoddi4+0xa2>
 8000726:	fbb1 fcf2 	udiv	ip, r1, r2
 800072a:	0c01      	lsrs	r1, r0, #16
 800072c:	ea41 410e 	orr.w	r1, r1, lr, lsl #16
 8000730:	b280      	uxth	r0, r0
 8000732:	ea40 4201 	orr.w	r2, r0, r1, lsl #16
 8000736:	463b      	mov	r3, r7
 8000738:	4638      	mov	r0, r7
 800073a:	463c      	mov	r4, r7
 800073c:	46b8      	mov	r8, r7
 800073e:	46be      	mov	lr, r7
 8000740:	2620      	movs	r6, #32
 8000742:	fbb1 f1f7 	udiv	r1, r1, r7
 8000746:	eba2 0208 	sub.w	r2, r2, r8
 800074a:	ea41 410c 	orr.w	r1, r1, ip, lsl #16
 800074e:	e766      	b.n	800061e <__udivmoddi4+0xfa>
 8000750:	4601      	mov	r1, r0
 8000752:	e718      	b.n	8000586 <__udivmoddi4+0x62>
 8000754:	4610      	mov	r0, r2
 8000756:	e72c      	b.n	80005b2 <__udivmoddi4+0x8e>
 8000758:	f1c6 0220 	rsb	r2, r6, #32
 800075c:	fa2e f302 	lsr.w	r3, lr, r2
 8000760:	40b7      	lsls	r7, r6
 8000762:	40b1      	lsls	r1, r6
 8000764:	fa20 f202 	lsr.w	r2, r0, r2
 8000768:	ea4f 4e17 	mov.w	lr, r7, lsr #16
 800076c:	430a      	orrs	r2, r1
 800076e:	fbb3 f8fe 	udiv	r8, r3, lr
 8000772:	b2bc      	uxth	r4, r7
 8000774:	fb0e 3318 	mls	r3, lr, r8, r3
 8000778:	0c11      	lsrs	r1, r2, #16
 800077a:	ea41 4103 	orr.w	r1, r1, r3, lsl #16
 800077e:	fb08 f904 	mul.w	r9, r8, r4
 8000782:	40b0      	lsls	r0, r6
 8000784:	4589      	cmp	r9, r1
 8000786:	ea4f 4310 	mov.w	r3, r0, lsr #16
 800078a:	b280      	uxth	r0, r0
 800078c:	d93e      	bls.n	800080c <__udivmoddi4+0x2e8>
 800078e:	1879      	adds	r1, r7, r1
 8000790:	f108 3cff 	add.w	ip, r8, #4294967295
 8000794:	d201      	bcs.n	800079a <__udivmoddi4+0x276>
 8000796:	4589      	cmp	r9, r1
 8000798:	d81f      	bhi.n	80007da <__udivmoddi4+0x2b6>
 800079a:	eba1 0109 	sub.w	r1, r1, r9
 800079e:	fbb1 f9fe 	udiv	r9, r1, lr
 80007a2:	fb09 f804 	mul.w	r8, r9, r4
 80007a6:	fb0e 1119 	mls	r1, lr, r9, r1
 80007aa:	b292      	uxth	r2, r2
 80007ac:	ea42 4201 	orr.w	r2, r2, r1, lsl #16
 80007b0:	4542      	cmp	r2, r8
 80007b2:	d229      	bcs.n	8000808 <__udivmoddi4+0x2e4>
 80007b4:	18ba      	adds	r2, r7, r2
 80007b6:	f109 31ff 	add.w	r1, r9, #4294967295
 80007ba:	d2c4      	bcs.n	8000746 <__udivmoddi4+0x222>
 80007bc:	4542      	cmp	r2, r8
 80007be:	d2c2      	bcs.n	8000746 <__udivmoddi4+0x222>
 80007c0:	f1a9 0102 	sub.w	r1, r9, #2
 80007c4:	443a      	add	r2, r7
 80007c6:	e7be      	b.n	8000746 <__udivmoddi4+0x222>
 80007c8:	45f0      	cmp	r8, lr
 80007ca:	d29d      	bcs.n	8000708 <__udivmoddi4+0x1e4>
 80007cc:	ebbe 0302 	subs.w	r3, lr, r2
 80007d0:	eb6c 0c07 	sbc.w	ip, ip, r7
 80007d4:	3801      	subs	r0, #1
 80007d6:	46e1      	mov	r9, ip
 80007d8:	e796      	b.n	8000708 <__udivmoddi4+0x1e4>
 80007da:	eba7 0909 	sub.w	r9, r7, r9
 80007de:	4449      	add	r1, r9
 80007e0:	f1a8 0c02 	sub.w	ip, r8, #2
 80007e4:	fbb1 f9fe 	udiv	r9, r1, lr
 80007e8:	fb09 f804 	mul.w	r8, r9, r4
 80007ec:	e7db      	b.n	80007a6 <__udivmoddi4+0x282>
 80007ee:	4673      	mov	r3, lr
 80007f0:	e77f      	b.n	80006f2 <__udivmoddi4+0x1ce>
 80007f2:	4650      	mov	r0, sl
 80007f4:	e766      	b.n	80006c4 <__udivmoddi4+0x1a0>
 80007f6:	4608      	mov	r0, r1
 80007f8:	e6fd      	b.n	80005f6 <__udivmoddi4+0xd2>
 80007fa:	443b      	add	r3, r7
 80007fc:	3a02      	subs	r2, #2
 80007fe:	e733      	b.n	8000668 <__udivmoddi4+0x144>
 8000800:	f1ac 0c02 	sub.w	ip, ip, #2
 8000804:	443b      	add	r3, r7
 8000806:	e71c      	b.n	8000642 <__udivmoddi4+0x11e>
 8000808:	4649      	mov	r1, r9
 800080a:	e79c      	b.n	8000746 <__udivmoddi4+0x222>
 800080c:	eba1 0109 	sub.w	r1, r1, r9
 8000810:	46c4      	mov	ip, r8
 8000812:	fbb1 f9fe 	udiv	r9, r1, lr
 8000816:	fb09 f804 	mul.w	r8, r9, r4
 800081a:	e7c4      	b.n	80007a6 <__udivmoddi4+0x282>

0800081c <__aeabi_idiv0>:
 800081c:	4770      	bx	lr
 800081e:	bf00      	nop

08000820 <BMP_Read8>:
static void BMP_ReadCalibration(void);

/* Private functions */

static uint8_t BMP_Read8(uint8_t reg)
{
 8000820:	b580      	push	{r7, lr}
 8000822:	b088      	sub	sp, #32
 8000824:	af04      	add	r7, sp, #16
 8000826:	4603      	mov	r3, r0
 8000828:	71fb      	strb	r3, [r7, #7]
    uint8_t value = 0;
 800082a:	2300      	movs	r3, #0
 800082c:	73fb      	strb	r3, [r7, #15]
    HAL_I2C_Mem_Read(&hi2c1, BMP280_ADDR, reg, 1, &value, 1, HAL_MAX_DELAY);
 800082e:	79fb      	ldrb	r3, [r7, #7]
 8000830:	b29a      	uxth	r2, r3
 8000832:	f04f 33ff 	mov.w	r3, #4294967295
 8000836:	9302      	str	r3, [sp, #8]
 8000838:	2301      	movs	r3, #1
 800083a:	9301      	str	r3, [sp, #4]
 800083c:	f107 030f 	add.w	r3, r7, #15
 8000840:	9300      	str	r3, [sp, #0]
 8000842:	2301      	movs	r3, #1
 8000844:	21ec      	movs	r1, #236	@ 0xec
 8000846:	4804      	ldr	r0, [pc, #16]	@ (8000858 <BMP_Read8+0x38>)
 8000848:	f003 faa2 	bl	8003d90 <HAL_I2C_Mem_Read>
    return value;
 800084c:	7bfb      	ldrb	r3, [r7, #15]
}
 800084e:	4618      	mov	r0, r3
 8000850:	3710      	adds	r7, #16
 8000852:	46bd      	mov	sp, r7
 8000854:	bd80      	pop	{r7, pc}
 8000856:	bf00      	nop
 8000858:	20000114 	.word	0x20000114

0800085c <BMP_Write8>:

static void BMP_Write8(uint8_t reg, uint8_t value)
{
 800085c:	b580      	push	{r7, lr}
 800085e:	b086      	sub	sp, #24
 8000860:	af04      	add	r7, sp, #16
 8000862:	4603      	mov	r3, r0
 8000864:	460a      	mov	r2, r1
 8000866:	71fb      	strb	r3, [r7, #7]
 8000868:	4613      	mov	r3, r2
 800086a:	71bb      	strb	r3, [r7, #6]
    HAL_I2C_Mem_Write(&hi2c1, BMP280_ADDR, reg, 1, &value, 1, HAL_MAX_DELAY);
 800086c:	79fb      	ldrb	r3, [r7, #7]
 800086e:	b29a      	uxth	r2, r3
 8000870:	f04f 33ff 	mov.w	r3, #4294967295
 8000874:	9302      	str	r3, [sp, #8]
 8000876:	2301      	movs	r3, #1
 8000878:	9301      	str	r3, [sp, #4]
 800087a:	1dbb      	adds	r3, r7, #6
 800087c:	9300      	str	r3, [sp, #0]
 800087e:	2301      	movs	r3, #1
 8000880:	21ec      	movs	r1, #236	@ 0xec
 8000882:	4803      	ldr	r0, [pc, #12]	@ (8000890 <BMP_Write8+0x34>)
 8000884:	f003 f970 	bl	8003b68 <HAL_I2C_Mem_Write>
}
 8000888:	bf00      	nop
 800088a:	3708      	adds	r7, #8
 800088c:	46bd      	mov	sp, r7
 800088e:	bd80      	pop	{r7, pc}
 8000890:	20000114 	.word	0x20000114

08000894 <BMP_ReadCalibration>:

static void BMP_ReadCalibration(void)
{
 8000894:	b598      	push	{r3, r4, r7, lr}
 8000896:	af00      	add	r7, sp, #0
    dig_T1 = (uint16_t)(BMP_Read8(0x88) | (BMP_Read8(0x89) << 8));
 8000898:	2088      	movs	r0, #136	@ 0x88
 800089a:	f7ff ffc1 	bl	8000820 <BMP_Read8>
 800089e:	4603      	mov	r3, r0
 80008a0:	b21c      	sxth	r4, r3
 80008a2:	2089      	movs	r0, #137	@ 0x89
 80008a4:	f7ff ffbc 	bl	8000820 <BMP_Read8>
 80008a8:	4603      	mov	r3, r0
 80008aa:	b21b      	sxth	r3, r3
 80008ac:	021b      	lsls	r3, r3, #8
 80008ae:	b21b      	sxth	r3, r3
 80008b0:	4323      	orrs	r3, r4
 80008b2:	b21b      	sxth	r3, r3
 80008b4:	b29a      	uxth	r2, r3
 80008b6:	4b5a      	ldr	r3, [pc, #360]	@ (8000a20 <BMP_ReadCalibration+0x18c>)
 80008b8:	801a      	strh	r2, [r3, #0]
    dig_T2 = (int16_t)(BMP_Read8(0x8A) | (BMP_Read8(0x8B) << 8));
 80008ba:	208a      	movs	r0, #138	@ 0x8a
 80008bc:	f7ff ffb0 	bl	8000820 <BMP_Read8>
 80008c0:	4603      	mov	r3, r0
 80008c2:	b21c      	sxth	r4, r3
 80008c4:	208b      	movs	r0, #139	@ 0x8b
 80008c6:	f7ff ffab 	bl	8000820 <BMP_Read8>
 80008ca:	4603      	mov	r3, r0
 80008cc:	b21b      	sxth	r3, r3
 80008ce:	021b      	lsls	r3, r3, #8
 80008d0:	b21b      	sxth	r3, r3
 80008d2:	4323      	orrs	r3, r4
 80008d4:	b21a      	sxth	r2, r3
 80008d6:	4b53      	ldr	r3, [pc, #332]	@ (8000a24 <BMP_ReadCalibration+0x190>)
 80008d8:	801a      	strh	r2, [r3, #0]
    dig_T3 = (int16_t)(BMP_Read8(0x8C) | (BMP_Read8(0x8D) << 8));
 80008da:	208c      	movs	r0, #140	@ 0x8c
 80008dc:	f7ff ffa0 	bl	8000820 <BMP_Read8>
 80008e0:	4603      	mov	r3, r0
 80008e2:	b21c      	sxth	r4, r3
 80008e4:	208d      	movs	r0, #141	@ 0x8d
 80008e6:	f7ff ff9b 	bl	8000820 <BMP_Read8>
 80008ea:	4603      	mov	r3, r0
 80008ec:	b21b      	sxth	r3, r3
 80008ee:	021b      	lsls	r3, r3, #8
 80008f0:	b21b      	sxth	r3, r3
 80008f2:	4323      	orrs	r3, r4
 80008f4:	b21a      	sxth	r2, r3
 80008f6:	4b4c      	ldr	r3, [pc, #304]	@ (8000a28 <BMP_ReadCalibration+0x194>)
 80008f8:	801a      	strh	r2, [r3, #0]

    dig_P1 = (uint16_t)(BMP_Read8(0x8E) | (BMP_Read8(0x8F) << 8));
 80008fa:	208e      	movs	r0, #142	@ 0x8e
 80008fc:	f7ff ff90 	bl	8000820 <BMP_Read8>
 8000900:	4603      	mov	r3, r0
 8000902:	b21c      	sxth	r4, r3
 8000904:	208f      	movs	r0, #143	@ 0x8f
 8000906:	f7ff ff8b 	bl	8000820 <BMP_Read8>
 800090a:	4603      	mov	r3, r0
 800090c:	b21b      	sxth	r3, r3
 800090e:	021b      	lsls	r3, r3, #8
 8000910:	b21b      	sxth	r3, r3
 8000912:	4323      	orrs	r3, r4
 8000914:	b21b      	sxth	r3, r3
 8000916:	b29a      	uxth	r2, r3
 8000918:	4b44      	ldr	r3, [pc, #272]	@ (8000a2c <BMP_ReadCalibration+0x198>)
 800091a:	801a      	strh	r2, [r3, #0]
    dig_P2 = (int16_t)(BMP_Read8(0x90) | (BMP_Read8(0x91) << 8));
 800091c:	2090      	movs	r0, #144	@ 0x90
 800091e:	f7ff ff7f 	bl	8000820 <BMP_Read8>
 8000922:	4603      	mov	r3, r0
 8000924:	b21c      	sxth	r4, r3
 8000926:	2091      	movs	r0, #145	@ 0x91
 8000928:	f7ff ff7a 	bl	8000820 <BMP_Read8>
 800092c:	4603      	mov	r3, r0
 800092e:	b21b      	sxth	r3, r3
 8000930:	021b      	lsls	r3, r3, #8
 8000932:	b21b      	sxth	r3, r3
 8000934:	4323      	orrs	r3, r4
 8000936:	b21a      	sxth	r2, r3
 8000938:	4b3d      	ldr	r3, [pc, #244]	@ (8000a30 <BMP_ReadCalibration+0x19c>)
 800093a:	801a      	strh	r2, [r3, #0]
    dig_P3 = (int16_t)(BMP_Read8(0x92) | (BMP_Read8(0x93) << 8));
 800093c:	2092      	movs	r0, #146	@ 0x92
 800093e:	f7ff ff6f 	bl	8000820 <BMP_Read8>
 8000942:	4603      	mov	r3, r0
 8000944:	b21c      	sxth	r4, r3
 8000946:	2093      	movs	r0, #147	@ 0x93
 8000948:	f7ff ff6a 	bl	8000820 <BMP_Read8>
 800094c:	4603      	mov	r3, r0
 800094e:	b21b      	sxth	r3, r3
 8000950:	021b      	lsls	r3, r3, #8
 8000952:	b21b      	sxth	r3, r3
 8000954:	4323      	orrs	r3, r4
 8000956:	b21a      	sxth	r2, r3
 8000958:	4b36      	ldr	r3, [pc, #216]	@ (8000a34 <BMP_ReadCalibration+0x1a0>)
 800095a:	801a      	strh	r2, [r3, #0]
    dig_P4 = (int16_t)(BMP_Read8(0x94) | (BMP_Read8(0x95) << 8));
 800095c:	2094      	movs	r0, #148	@ 0x94
 800095e:	f7ff ff5f 	bl	8000820 <BMP_Read8>
 8000962:	4603      	mov	r3, r0
 8000964:	b21c      	sxth	r4, r3
 8000966:	2095      	movs	r0, #149	@ 0x95
 8000968:	f7ff ff5a 	bl	8000820 <BMP_Read8>
 800096c:	4603      	mov	r3, r0
 800096e:	b21b      	sxth	r3, r3
 8000970:	021b      	lsls	r3, r3, #8
 8000972:	b21b      	sxth	r3, r3
 8000974:	4323      	orrs	r3, r4
 8000976:	b21a      	sxth	r2, r3
 8000978:	4b2f      	ldr	r3, [pc, #188]	@ (8000a38 <BMP_ReadCalibration+0x1a4>)
 800097a:	801a      	strh	r2, [r3, #0]
    dig_P5 = (int16_t)(BMP_Read8(0x96) | (BMP_Read8(0x97) << 8));
 800097c:	2096      	movs	r0, #150	@ 0x96
 800097e:	f7ff ff4f 	bl	8000820 <BMP_Read8>
 8000982:	4603      	mov	r3, r0
 8000984:	b21c      	sxth	r4, r3
 8000986:	2097      	movs	r0, #151	@ 0x97
 8000988:	f7ff ff4a 	bl	8000820 <BMP_Read8>
 800098c:	4603      	mov	r3, r0
 800098e:	b21b      	sxth	r3, r3
 8000990:	021b      	lsls	r3, r3, #8
 8000992:	b21b      	sxth	r3, r3
 8000994:	4323      	orrs	r3, r4
 8000996:	b21a      	sxth	r2, r3
 8000998:	4b28      	ldr	r3, [pc, #160]	@ (8000a3c <BMP_ReadCalibration+0x1a8>)
 800099a:	801a      	strh	r2, [r3, #0]
    dig_P6 = (int16_t)(BMP_Read8(0x98) | (BMP_Read8(0x99) << 8));
 800099c:	2098      	movs	r0, #152	@ 0x98
 800099e:	f7ff ff3f 	bl	8000820 <BMP_Read8>
 80009a2:	4603      	mov	r3, r0
 80009a4:	b21c      	sxth	r4, r3
 80009a6:	2099      	movs	r0, #153	@ 0x99
 80009a8:	f7ff ff3a 	bl	8000820 <BMP_Read8>
 80009ac:	4603      	mov	r3, r0
 80009ae:	b21b      	sxth	r3, r3
 80009b0:	021b      	lsls	r3, r3, #8
 80009b2:	b21b      	sxth	r3, r3
 80009b4:	4323      	orrs	r3, r4
 80009b6:	b21a      	sxth	r2, r3
 80009b8:	4b21      	ldr	r3, [pc, #132]	@ (8000a40 <BMP_ReadCalibration+0x1ac>)
 80009ba:	801a      	strh	r2, [r3, #0]
    dig_P7 = (int16_t)(BMP_Read8(0x9A) | (BMP_Read8(0x9B) << 8));
 80009bc:	209a      	movs	r0, #154	@ 0x9a
 80009be:	f7ff ff2f 	bl	8000820 <BMP_Read8>
 80009c2:	4603      	mov	r3, r0
 80009c4:	b21c      	sxth	r4, r3
 80009c6:	209b      	movs	r0, #155	@ 0x9b
 80009c8:	f7ff ff2a 	bl	8000820 <BMP_Read8>
 80009cc:	4603      	mov	r3, r0
 80009ce:	b21b      	sxth	r3, r3
 80009d0:	021b      	lsls	r3, r3, #8
 80009d2:	b21b      	sxth	r3, r3
 80009d4:	4323      	orrs	r3, r4
 80009d6:	b21a      	sxth	r2, r3
 80009d8:	4b1a      	ldr	r3, [pc, #104]	@ (8000a44 <BMP_ReadCalibration+0x1b0>)
 80009da:	801a      	strh	r2, [r3, #0]
    dig_P8 = (int16_t)(BMP_Read8(0x9C) | (BMP_Read8(0x9D) << 8));
 80009dc:	209c      	movs	r0, #156	@ 0x9c
 80009de:	f7ff ff1f 	bl	8000820 <BMP_Read8>
 80009e2:	4603      	mov	r3, r0
 80009e4:	b21c      	sxth	r4, r3
 80009e6:	209d      	movs	r0, #157	@ 0x9d
 80009e8:	f7ff ff1a 	bl	8000820 <BMP_Read8>
 80009ec:	4603      	mov	r3, r0
 80009ee:	b21b      	sxth	r3, r3
 80009f0:	021b      	lsls	r3, r3, #8
 80009f2:	b21b      	sxth	r3, r3
 80009f4:	4323      	orrs	r3, r4
 80009f6:	b21a      	sxth	r2, r3
 80009f8:	4b13      	ldr	r3, [pc, #76]	@ (8000a48 <BMP_ReadCalibration+0x1b4>)
 80009fa:	801a      	strh	r2, [r3, #0]
    dig_P9 = (int16_t)(BMP_Read8(0x9E) | (BMP_Read8(0x9F) << 8));
 80009fc:	209e      	movs	r0, #158	@ 0x9e
 80009fe:	f7ff ff0f 	bl	8000820 <BMP_Read8>
 8000a02:	4603      	mov	r3, r0
 8000a04:	b21c      	sxth	r4, r3
 8000a06:	209f      	movs	r0, #159	@ 0x9f
 8000a08:	f7ff ff0a 	bl	8000820 <BMP_Read8>
 8000a0c:	4603      	mov	r3, r0
 8000a0e:	b21b      	sxth	r3, r3
 8000a10:	021b      	lsls	r3, r3, #8
 8000a12:	b21b      	sxth	r3, r3
 8000a14:	4323      	orrs	r3, r4
 8000a16:	b21a      	sxth	r2, r3
 8000a18:	4b0c      	ldr	r3, [pc, #48]	@ (8000a4c <BMP_ReadCalibration+0x1b8>)
 8000a1a:	801a      	strh	r2, [r3, #0]
}
 8000a1c:	bf00      	nop
 8000a1e:	bd98      	pop	{r3, r4, r7, pc}
 8000a20:	20000078 	.word	0x20000078
 8000a24:	2000007a 	.word	0x2000007a
 8000a28:	2000007c 	.word	0x2000007c
 8000a2c:	2000007e 	.word	0x2000007e
 8000a30:	20000080 	.word	0x20000080
 8000a34:	20000082 	.word	0x20000082
 8000a38:	20000084 	.word	0x20000084
 8000a3c:	20000086 	.word	0x20000086
 8000a40:	20000088 	.word	0x20000088
 8000a44:	2000008a 	.word	0x2000008a
 8000a48:	2000008c 	.word	0x2000008c
 8000a4c:	2000008e 	.word	0x2000008e

08000a50 <BMP_Init>:

/* Public functions */

void BMP_Init(void)
{
 8000a50:	b580      	push	{r7, lr}
 8000a52:	b082      	sub	sp, #8
 8000a54:	af00      	add	r7, sp, #0
    uint8_t id = BMP_Read8(0xD0);
 8000a56:	20d0      	movs	r0, #208	@ 0xd0
 8000a58:	f7ff fee2 	bl	8000820 <BMP_Read8>
 8000a5c:	4603      	mov	r3, r0
 8000a5e:	71fb      	strb	r3, [r7, #7]

    if (id != 0x58)
 8000a60:	79fb      	ldrb	r3, [r7, #7]
 8000a62:	2b58      	cmp	r3, #88	@ 0x58
 8000a64:	d10a      	bne.n	8000a7c <BMP_Init+0x2c>
    {
        /* Error - sensor not connected */
        return;
    }

    BMP_ReadCalibration();
 8000a66:	f7ff ff15 	bl	8000894 <BMP_ReadCalibration>

    /* Oversampling x1, normal mode */
    BMP_Write8(0xF4, 0b00100111);
 8000a6a:	2127      	movs	r1, #39	@ 0x27
 8000a6c:	20f4      	movs	r0, #244	@ 0xf4
 8000a6e:	f7ff fef5 	bl	800085c <BMP_Write8>

    /* Filter, 0.5ms standby */
    BMP_Write8(0xF5, 0b00000000);
 8000a72:	2100      	movs	r1, #0
 8000a74:	20f5      	movs	r0, #245	@ 0xf5
 8000a76:	f7ff fef1 	bl	800085c <BMP_Write8>
 8000a7a:	e000      	b.n	8000a7e <BMP_Init+0x2e>
        return;
 8000a7c:	bf00      	nop
}
 8000a7e:	3708      	adds	r7, #8
 8000a80:	46bd      	mov	sp, r7
 8000a82:	bd80      	pop	{r7, pc}

08000a84 <BMP_ReadTemperature>:

float BMP_ReadTemperature(void)
{
 8000a84:	b590      	push	{r4, r7, lr}
 8000a86:	b085      	sub	sp, #20
 8000a88:	af00      	add	r7, sp, #0
    int32_t adc_T;
    int32_t var1, var2;
    float T;

    adc_T = (BMP_Read8(0xFA) << 12) | (BMP_Read8(0xFB) << 4) | (BMP_Read8(0xFC) >> 4);
 8000a8a:	20fa      	movs	r0, #250	@ 0xfa
 8000a8c:	f7ff fec8 	bl	8000820 <BMP_Read8>
 8000a90:	4603      	mov	r3, r0
 8000a92:	031c      	lsls	r4, r3, #12
 8000a94:	20fb      	movs	r0, #251	@ 0xfb
 8000a96:	f7ff fec3 	bl	8000820 <BMP_Read8>
 8000a9a:	4603      	mov	r3, r0
 8000a9c:	011b      	lsls	r3, r3, #4
 8000a9e:	431c      	orrs	r4, r3
 8000aa0:	20fc      	movs	r0, #252	@ 0xfc
 8000aa2:	f7ff febd 	bl	8000820 <BMP_Read8>
 8000aa6:	4603      	mov	r3, r0
 8000aa8:	091b      	lsrs	r3, r3, #4
 8000aaa:	b2db      	uxtb	r3, r3
 8000aac:	4323      	orrs	r3, r4
 8000aae:	60fb      	str	r3, [r7, #12]

    var1 = ((((adc_T >> 3) - ((int32_t)dig_T1 << 1))) * (int32_t)dig_T2) >> 11;
 8000ab0:	68fb      	ldr	r3, [r7, #12]
 8000ab2:	10da      	asrs	r2, r3, #3
 8000ab4:	4b1e      	ldr	r3, [pc, #120]	@ (8000b30 <BMP_ReadTemperature+0xac>)
 8000ab6:	881b      	ldrh	r3, [r3, #0]
 8000ab8:	005b      	lsls	r3, r3, #1
 8000aba:	1ad3      	subs	r3, r2, r3
 8000abc:	4a1d      	ldr	r2, [pc, #116]	@ (8000b34 <BMP_ReadTemperature+0xb0>)
 8000abe:	f9b2 2000 	ldrsh.w	r2, [r2]
 8000ac2:	fb02 f303 	mul.w	r3, r2, r3
 8000ac6:	12db      	asrs	r3, r3, #11
 8000ac8:	60bb      	str	r3, [r7, #8]
    var2 = (((((adc_T >> 4) - (int32_t)dig_T1) * ((adc_T >> 4) - (int32_t)dig_T1)) >> 12) * (int32_t)dig_T3) >> 14;
 8000aca:	68fb      	ldr	r3, [r7, #12]
 8000acc:	111b      	asrs	r3, r3, #4
 8000ace:	4a18      	ldr	r2, [pc, #96]	@ (8000b30 <BMP_ReadTemperature+0xac>)
 8000ad0:	8812      	ldrh	r2, [r2, #0]
 8000ad2:	1a9b      	subs	r3, r3, r2
 8000ad4:	68fa      	ldr	r2, [r7, #12]
 8000ad6:	1112      	asrs	r2, r2, #4
 8000ad8:	4915      	ldr	r1, [pc, #84]	@ (8000b30 <BMP_ReadTemperature+0xac>)
 8000ada:	8809      	ldrh	r1, [r1, #0]
 8000adc:	1a52      	subs	r2, r2, r1
 8000ade:	fb02 f303 	mul.w	r3, r2, r3
 8000ae2:	131b      	asrs	r3, r3, #12
 8000ae4:	4a14      	ldr	r2, [pc, #80]	@ (8000b38 <BMP_ReadTemperature+0xb4>)
 8000ae6:	f9b2 2000 	ldrsh.w	r2, [r2]
 8000aea:	fb02 f303 	mul.w	r3, r2, r3
 8000aee:	139b      	asrs	r3, r3, #14
 8000af0:	607b      	str	r3, [r7, #4]

    t_fine = var1 + var2;
 8000af2:	68ba      	ldr	r2, [r7, #8]
 8000af4:	687b      	ldr	r3, [r7, #4]
 8000af6:	4413      	add	r3, r2
 8000af8:	4a10      	ldr	r2, [pc, #64]	@ (8000b3c <BMP_ReadTemperature+0xb8>)
 8000afa:	6013      	str	r3, [r2, #0]
    T = (float)((t_fine * 5 + 128) >> 8);
 8000afc:	4b0f      	ldr	r3, [pc, #60]	@ (8000b3c <BMP_ReadTemperature+0xb8>)
 8000afe:	681a      	ldr	r2, [r3, #0]
 8000b00:	4613      	mov	r3, r2
 8000b02:	009b      	lsls	r3, r3, #2
 8000b04:	4413      	add	r3, r2
 8000b06:	3380      	adds	r3, #128	@ 0x80
 8000b08:	121b      	asrs	r3, r3, #8
 8000b0a:	ee07 3a90 	vmov	s15, r3
 8000b0e:	eef8 7ae7 	vcvt.f32.s32	s15, s15
 8000b12:	edc7 7a00 	vstr	s15, [r7]

    return T / 100.0f;
 8000b16:	edd7 7a00 	vldr	s15, [r7]
 8000b1a:	ed9f 7a09 	vldr	s14, [pc, #36]	@ 8000b40 <BMP_ReadTemperature+0xbc>
 8000b1e:	eec7 6a87 	vdiv.f32	s13, s15, s14
 8000b22:	eef0 7a66 	vmov.f32	s15, s13
}
 8000b26:	eeb0 0a67 	vmov.f32	s0, s15
 8000b2a:	3714      	adds	r7, #20
 8000b2c:	46bd      	mov	sp, r7
 8000b2e:	bd90      	pop	{r4, r7, pc}
 8000b30:	20000078 	.word	0x20000078
 8000b34:	2000007a 	.word	0x2000007a
 8000b38:	2000007c 	.word	0x2000007c
 8000b3c:	20000090 	.word	0x20000090
 8000b40:	42c80000 	.word	0x42c80000

08000b44 <BMP_ReadPressure>:

float BMP_ReadPressure(void)
{
 8000b44:	e92d 4ff0 	stmdb	sp!, {r4, r5, r6, r7, r8, r9, sl, fp, lr}
 8000b48:	b0cb      	sub	sp, #300	@ 0x12c
 8000b4a:	af00      	add	r7, sp, #0
    int32_t adc_P;
    int64_t var1, var2, p;

    adc_P = (BMP_Read8(0xF7) << 12) | (BMP_Read8(0xF8) << 4) | (BMP_Read8(0xF9) >> 4);
 8000b4c:	20f7      	movs	r0, #247	@ 0xf7
 8000b4e:	f7ff fe67 	bl	8000820 <BMP_Read8>
 8000b52:	4603      	mov	r3, r0
 8000b54:	031e      	lsls	r6, r3, #12
 8000b56:	20f8      	movs	r0, #248	@ 0xf8
 8000b58:	f7ff fe62 	bl	8000820 <BMP_Read8>
 8000b5c:	4603      	mov	r3, r0
 8000b5e:	011b      	lsls	r3, r3, #4
 8000b60:	431e      	orrs	r6, r3
 8000b62:	20f9      	movs	r0, #249	@ 0xf9
 8000b64:	f7ff fe5c 	bl	8000820 <BMP_Read8>
 8000b68:	4603      	mov	r3, r0
 8000b6a:	091b      	lsrs	r3, r3, #4
 8000b6c:	b2db      	uxtb	r3, r3
 8000b6e:	4333      	orrs	r3, r6
 8000b70:	f8c7 3124 	str.w	r3, [r7, #292]	@ 0x124

    var1 = ((int64_t)t_fine) - 128000;
 8000b74:	4baa      	ldr	r3, [pc, #680]	@ (8000e20 <BMP_ReadPressure+0x2dc>)
 8000b76:	681b      	ldr	r3, [r3, #0]
 8000b78:	17da      	asrs	r2, r3, #31
 8000b7a:	f8c7 30c8 	str.w	r3, [r7, #200]	@ 0xc8
 8000b7e:	f8c7 20cc 	str.w	r2, [r7, #204]	@ 0xcc
 8000b82:	e9d7 1232 	ldrd	r1, r2, [r7, #200]	@ 0xc8
 8000b86:	460b      	mov	r3, r1
 8000b88:	f5b3 33fa 	subs.w	r3, r3, #128000	@ 0x1f400
 8000b8c:	64bb      	str	r3, [r7, #72]	@ 0x48
 8000b8e:	4613      	mov	r3, r2
 8000b90:	f143 33ff 	adc.w	r3, r3, #4294967295
 8000b94:	64fb      	str	r3, [r7, #76]	@ 0x4c
 8000b96:	e9d7 2312 	ldrd	r2, r3, [r7, #72]	@ 0x48
 8000b9a:	e9c7 2346 	strd	r2, r3, [r7, #280]	@ 0x118
    var2 = var1 * var1 * (int64_t)dig_P6;
 8000b9e:	f8d7 211c 	ldr.w	r2, [r7, #284]	@ 0x11c
 8000ba2:	f8d7 3118 	ldr.w	r3, [r7, #280]	@ 0x118
 8000ba6:	fb03 f102 	mul.w	r1, r3, r2
 8000baa:	f8d7 211c 	ldr.w	r2, [r7, #284]	@ 0x11c
 8000bae:	f8d7 3118 	ldr.w	r3, [r7, #280]	@ 0x118
 8000bb2:	fb02 f303 	mul.w	r3, r2, r3
 8000bb6:	18ca      	adds	r2, r1, r3
 8000bb8:	f8d7 3118 	ldr.w	r3, [r7, #280]	@ 0x118
 8000bbc:	fba3 4503 	umull	r4, r5, r3, r3
 8000bc0:	1953      	adds	r3, r2, r5
 8000bc2:	461d      	mov	r5, r3
 8000bc4:	4b97      	ldr	r3, [pc, #604]	@ (8000e24 <BMP_ReadPressure+0x2e0>)
 8000bc6:	f9b3 3000 	ldrsh.w	r3, [r3]
 8000bca:	b21b      	sxth	r3, r3
 8000bcc:	17da      	asrs	r2, r3, #31
 8000bce:	f8c7 30c0 	str.w	r3, [r7, #192]	@ 0xc0
 8000bd2:	f8c7 20c4 	str.w	r2, [r7, #196]	@ 0xc4
 8000bd6:	e9d7 0130 	ldrd	r0, r1, [r7, #192]	@ 0xc0
 8000bda:	4603      	mov	r3, r0
 8000bdc:	fb03 f205 	mul.w	r2, r3, r5
 8000be0:	460b      	mov	r3, r1
 8000be2:	fb04 f303 	mul.w	r3, r4, r3
 8000be6:	4413      	add	r3, r2
 8000be8:	4602      	mov	r2, r0
 8000bea:	fba4 8902 	umull	r8, r9, r4, r2
 8000bee:	444b      	add	r3, r9
 8000bf0:	4699      	mov	r9, r3
 8000bf2:	e9c7 8944 	strd	r8, r9, [r7, #272]	@ 0x110
 8000bf6:	e9c7 8944 	strd	r8, r9, [r7, #272]	@ 0x110
    var2 = var2 + ((var1 * (int64_t)dig_P5) << 17);
 8000bfa:	4b8b      	ldr	r3, [pc, #556]	@ (8000e28 <BMP_ReadPressure+0x2e4>)
 8000bfc:	f9b3 3000 	ldrsh.w	r3, [r3]
 8000c00:	b21b      	sxth	r3, r3
 8000c02:	17da      	asrs	r2, r3, #31
 8000c04:	f8c7 30b8 	str.w	r3, [r7, #184]	@ 0xb8
 8000c08:	f8c7 20bc 	str.w	r2, [r7, #188]	@ 0xbc
 8000c0c:	f8d7 3118 	ldr.w	r3, [r7, #280]	@ 0x118
 8000c10:	e9d7 452e 	ldrd	r4, r5, [r7, #184]	@ 0xb8
 8000c14:	462a      	mov	r2, r5
 8000c16:	fb02 f203 	mul.w	r2, r2, r3
 8000c1a:	f8d7 311c 	ldr.w	r3, [r7, #284]	@ 0x11c
 8000c1e:	4621      	mov	r1, r4
 8000c20:	fb01 f303 	mul.w	r3, r1, r3
 8000c24:	441a      	add	r2, r3
 8000c26:	f8d7 3118 	ldr.w	r3, [r7, #280]	@ 0x118
 8000c2a:	4621      	mov	r1, r4
 8000c2c:	fba3 ab01 	umull	sl, fp, r3, r1
 8000c30:	eb02 030b 	add.w	r3, r2, fp
 8000c34:	469b      	mov	fp, r3
 8000c36:	f04f 0000 	mov.w	r0, #0
 8000c3a:	f04f 0100 	mov.w	r1, #0
 8000c3e:	ea4f 414b 	mov.w	r1, fp, lsl #17
 8000c42:	ea41 31da 	orr.w	r1, r1, sl, lsr #15
 8000c46:	ea4f 404a 	mov.w	r0, sl, lsl #17
 8000c4a:	e9d7 2344 	ldrd	r2, r3, [r7, #272]	@ 0x110
 8000c4e:	1814      	adds	r4, r2, r0
 8000c50:	643c      	str	r4, [r7, #64]	@ 0x40
 8000c52:	414b      	adcs	r3, r1
 8000c54:	647b      	str	r3, [r7, #68]	@ 0x44
 8000c56:	e9d7 3410 	ldrd	r3, r4, [r7, #64]	@ 0x40
 8000c5a:	e9c7 3444 	strd	r3, r4, [r7, #272]	@ 0x110
    var2 = var2 + (((int64_t)dig_P4) << 35);
 8000c5e:	4b73      	ldr	r3, [pc, #460]	@ (8000e2c <BMP_ReadPressure+0x2e8>)
 8000c60:	f9b3 3000 	ldrsh.w	r3, [r3]
 8000c64:	b21b      	sxth	r3, r3
 8000c66:	17da      	asrs	r2, r3, #31
 8000c68:	f8c7 30b0 	str.w	r3, [r7, #176]	@ 0xb0
 8000c6c:	f8c7 20b4 	str.w	r2, [r7, #180]	@ 0xb4
 8000c70:	f04f 0000 	mov.w	r0, #0
 8000c74:	f04f 0100 	mov.w	r1, #0
 8000c78:	f8d7 30b0 	ldr.w	r3, [r7, #176]	@ 0xb0
 8000c7c:	00d9      	lsls	r1, r3, #3
 8000c7e:	2000      	movs	r0, #0
 8000c80:	e9d7 2344 	ldrd	r2, r3, [r7, #272]	@ 0x110
 8000c84:	1814      	adds	r4, r2, r0
 8000c86:	63bc      	str	r4, [r7, #56]	@ 0x38
 8000c88:	414b      	adcs	r3, r1
 8000c8a:	63fb      	str	r3, [r7, #60]	@ 0x3c
 8000c8c:	e9d7 340e 	ldrd	r3, r4, [r7, #56]	@ 0x38
 8000c90:	e9c7 3444 	strd	r3, r4, [r7, #272]	@ 0x110
    var1 = (((var1 * var1 * (int64_t)dig_P3) >> 8) + ((var1 * (int64_t)dig_P2) << 12));
 8000c94:	f8d7 211c 	ldr.w	r2, [r7, #284]	@ 0x11c
 8000c98:	f8d7 3118 	ldr.w	r3, [r7, #280]	@ 0x118
 8000c9c:	fb03 f102 	mul.w	r1, r3, r2
 8000ca0:	f8d7 211c 	ldr.w	r2, [r7, #284]	@ 0x11c
 8000ca4:	f8d7 3118 	ldr.w	r3, [r7, #280]	@ 0x118
 8000ca8:	fb02 f303 	mul.w	r3, r2, r3
 8000cac:	18ca      	adds	r2, r1, r3
 8000cae:	f8d7 3118 	ldr.w	r3, [r7, #280]	@ 0x118
 8000cb2:	fba3 1303 	umull	r1, r3, r3, r3
 8000cb6:	f8c7 3104 	str.w	r3, [r7, #260]	@ 0x104
 8000cba:	460b      	mov	r3, r1
 8000cbc:	f8c7 3100 	str.w	r3, [r7, #256]	@ 0x100
 8000cc0:	f8d7 3104 	ldr.w	r3, [r7, #260]	@ 0x104
 8000cc4:	18d3      	adds	r3, r2, r3
 8000cc6:	f8c7 3104 	str.w	r3, [r7, #260]	@ 0x104
 8000cca:	4b59      	ldr	r3, [pc, #356]	@ (8000e30 <BMP_ReadPressure+0x2ec>)
 8000ccc:	f9b3 3000 	ldrsh.w	r3, [r3]
 8000cd0:	b21b      	sxth	r3, r3
 8000cd2:	17da      	asrs	r2, r3, #31
 8000cd4:	f8c7 30a8 	str.w	r3, [r7, #168]	@ 0xa8
 8000cd8:	f8c7 20ac 	str.w	r2, [r7, #172]	@ 0xac
 8000cdc:	e9d7 4540 	ldrd	r4, r5, [r7, #256]	@ 0x100
 8000ce0:	462b      	mov	r3, r5
 8000ce2:	e9d7 892a 	ldrd	r8, r9, [r7, #168]	@ 0xa8
 8000ce6:	4642      	mov	r2, r8
 8000ce8:	fb02 f203 	mul.w	r2, r2, r3
 8000cec:	464b      	mov	r3, r9
 8000cee:	4621      	mov	r1, r4
 8000cf0:	fb01 f303 	mul.w	r3, r1, r3
 8000cf4:	4413      	add	r3, r2
 8000cf6:	4622      	mov	r2, r4
 8000cf8:	4641      	mov	r1, r8
 8000cfa:	fba2 1201 	umull	r1, r2, r2, r1
 8000cfe:	f8c7 20fc 	str.w	r2, [r7, #252]	@ 0xfc
 8000d02:	460a      	mov	r2, r1
 8000d04:	f8c7 20f8 	str.w	r2, [r7, #248]	@ 0xf8
 8000d08:	f8d7 20fc 	ldr.w	r2, [r7, #252]	@ 0xfc
 8000d0c:	4413      	add	r3, r2
 8000d0e:	f8c7 30fc 	str.w	r3, [r7, #252]	@ 0xfc
 8000d12:	f04f 0000 	mov.w	r0, #0
 8000d16:	f04f 0100 	mov.w	r1, #0
 8000d1a:	e9d7 453e 	ldrd	r4, r5, [r7, #248]	@ 0xf8
 8000d1e:	4623      	mov	r3, r4
 8000d20:	0a18      	lsrs	r0, r3, #8
 8000d22:	462b      	mov	r3, r5
 8000d24:	ea40 6003 	orr.w	r0, r0, r3, lsl #24
 8000d28:	462b      	mov	r3, r5
 8000d2a:	1219      	asrs	r1, r3, #8
 8000d2c:	4b41      	ldr	r3, [pc, #260]	@ (8000e34 <BMP_ReadPressure+0x2f0>)
 8000d2e:	f9b3 3000 	ldrsh.w	r3, [r3]
 8000d32:	b21b      	sxth	r3, r3
 8000d34:	17da      	asrs	r2, r3, #31
 8000d36:	f8c7 30a0 	str.w	r3, [r7, #160]	@ 0xa0
 8000d3a:	f8c7 20a4 	str.w	r2, [r7, #164]	@ 0xa4
 8000d3e:	f8d7 3118 	ldr.w	r3, [r7, #280]	@ 0x118
 8000d42:	e9d7 5628 	ldrd	r5, r6, [r7, #160]	@ 0xa0
 8000d46:	4632      	mov	r2, r6
 8000d48:	fb02 f203 	mul.w	r2, r2, r3
 8000d4c:	f8d7 311c 	ldr.w	r3, [r7, #284]	@ 0x11c
 8000d50:	462c      	mov	r4, r5
 8000d52:	fb04 f303 	mul.w	r3, r4, r3
 8000d56:	441a      	add	r2, r3
 8000d58:	f8d7 3118 	ldr.w	r3, [r7, #280]	@ 0x118
 8000d5c:	462c      	mov	r4, r5
 8000d5e:	fba3 4304 	umull	r4, r3, r3, r4
 8000d62:	f8c7 30f4 	str.w	r3, [r7, #244]	@ 0xf4
 8000d66:	4623      	mov	r3, r4
 8000d68:	f8c7 30f0 	str.w	r3, [r7, #240]	@ 0xf0
 8000d6c:	f8d7 30f4 	ldr.w	r3, [r7, #244]	@ 0xf4
 8000d70:	18d3      	adds	r3, r2, r3
 8000d72:	f8c7 30f4 	str.w	r3, [r7, #244]	@ 0xf4
 8000d76:	f04f 0200 	mov.w	r2, #0
 8000d7a:	f04f 0300 	mov.w	r3, #0
 8000d7e:	e9d7 563c 	ldrd	r5, r6, [r7, #240]	@ 0xf0
 8000d82:	4634      	mov	r4, r6
 8000d84:	0323      	lsls	r3, r4, #12
 8000d86:	462c      	mov	r4, r5
 8000d88:	ea43 5314 	orr.w	r3, r3, r4, lsr #20
 8000d8c:	462c      	mov	r4, r5
 8000d8e:	0322      	lsls	r2, r4, #12
 8000d90:	1884      	adds	r4, r0, r2
 8000d92:	633c      	str	r4, [r7, #48]	@ 0x30
 8000d94:	eb41 0303 	adc.w	r3, r1, r3
 8000d98:	637b      	str	r3, [r7, #52]	@ 0x34
 8000d9a:	e9d7 340c 	ldrd	r3, r4, [r7, #48]	@ 0x30
 8000d9e:	e9c7 3446 	strd	r3, r4, [r7, #280]	@ 0x118
    var1 = ((((int64_t)1 << 47) + var1) * (int64_t)dig_P1) >> 33;
 8000da2:	e9d7 2346 	ldrd	r2, r3, [r7, #280]	@ 0x118
 8000da6:	f503 4100 	add.w	r1, r3, #32768	@ 0x8000
 8000daa:	f8c7 109c 	str.w	r1, [r7, #156]	@ 0x9c
 8000dae:	f8c7 2098 	str.w	r2, [r7, #152]	@ 0x98
 8000db2:	4b21      	ldr	r3, [pc, #132]	@ (8000e38 <BMP_ReadPressure+0x2f4>)
 8000db4:	881b      	ldrh	r3, [r3, #0]
 8000db6:	b29b      	uxth	r3, r3
 8000db8:	2200      	movs	r2, #0
 8000dba:	f8c7 3090 	str.w	r3, [r7, #144]	@ 0x90
 8000dbe:	f8c7 2094 	str.w	r2, [r7, #148]	@ 0x94
 8000dc2:	e9d7 4526 	ldrd	r4, r5, [r7, #152]	@ 0x98
 8000dc6:	462b      	mov	r3, r5
 8000dc8:	e9d7 8924 	ldrd	r8, r9, [r7, #144]	@ 0x90
 8000dcc:	4642      	mov	r2, r8
 8000dce:	fb02 f203 	mul.w	r2, r2, r3
 8000dd2:	464b      	mov	r3, r9
 8000dd4:	4621      	mov	r1, r4
 8000dd6:	fb01 f303 	mul.w	r3, r1, r3
 8000dda:	4413      	add	r3, r2
 8000ddc:	4622      	mov	r2, r4
 8000dde:	4641      	mov	r1, r8
 8000de0:	fba2 1201 	umull	r1, r2, r2, r1
 8000de4:	f8c7 20ec 	str.w	r2, [r7, #236]	@ 0xec
 8000de8:	460a      	mov	r2, r1
 8000dea:	f8c7 20e8 	str.w	r2, [r7, #232]	@ 0xe8
 8000dee:	f8d7 20ec 	ldr.w	r2, [r7, #236]	@ 0xec
 8000df2:	4413      	add	r3, r2
 8000df4:	f8c7 30ec 	str.w	r3, [r7, #236]	@ 0xec
 8000df8:	f04f 0200 	mov.w	r2, #0
 8000dfc:	f04f 0300 	mov.w	r3, #0
 8000e00:	e9d7 453a 	ldrd	r4, r5, [r7, #232]	@ 0xe8
 8000e04:	4629      	mov	r1, r5
 8000e06:	104a      	asrs	r2, r1, #1
 8000e08:	4629      	mov	r1, r5
 8000e0a:	17cb      	asrs	r3, r1, #31
 8000e0c:	e9c7 2346 	strd	r2, r3, [r7, #280]	@ 0x118

    if (var1 == 0)
 8000e10:	e9d7 2346 	ldrd	r2, r3, [r7, #280]	@ 0x118
 8000e14:	4313      	orrs	r3, r2
 8000e16:	d113      	bne.n	8000e40 <BMP_ReadPressure+0x2fc>
    {
        return 0;
 8000e18:	eddf 7a08 	vldr	s15, [pc, #32]	@ 8000e3c <BMP_ReadPressure+0x2f8>
 8000e1c:	e160      	b.n	80010e0 <BMP_ReadPressure+0x59c>
 8000e1e:	bf00      	nop
 8000e20:	20000090 	.word	0x20000090
 8000e24:	20000088 	.word	0x20000088
 8000e28:	20000086 	.word	0x20000086
 8000e2c:	20000084 	.word	0x20000084
 8000e30:	20000082 	.word	0x20000082
 8000e34:	20000080 	.word	0x20000080
 8000e38:	2000007e 	.word	0x2000007e
 8000e3c:	00000000 	.word	0x00000000
    }

    p = 1048576 - adc_P;
 8000e40:	f8d7 3124 	ldr.w	r3, [r7, #292]	@ 0x124
 8000e44:	f5c3 1380 	rsb	r3, r3, #1048576	@ 0x100000
 8000e48:	17da      	asrs	r2, r3, #31
 8000e4a:	62bb      	str	r3, [r7, #40]	@ 0x28
 8000e4c:	62fa      	str	r2, [r7, #44]	@ 0x2c
 8000e4e:	e9d7 340a 	ldrd	r3, r4, [r7, #40]	@ 0x28
 8000e52:	e9c7 3442 	strd	r3, r4, [r7, #264]	@ 0x108
    p = (((p << 31) - var2) * 3125) / var1;
 8000e56:	f8d7 3108 	ldr.w	r3, [r7, #264]	@ 0x108
 8000e5a:	105b      	asrs	r3, r3, #1
 8000e5c:	f8c7 308c 	str.w	r3, [r7, #140]	@ 0x8c
 8000e60:	f8d7 3108 	ldr.w	r3, [r7, #264]	@ 0x108
 8000e64:	07db      	lsls	r3, r3, #31
 8000e66:	f8c7 3088 	str.w	r3, [r7, #136]	@ 0x88
 8000e6a:	e9d7 2344 	ldrd	r2, r3, [r7, #272]	@ 0x110
 8000e6e:	e9d7 4522 	ldrd	r4, r5, [r7, #136]	@ 0x88
 8000e72:	4621      	mov	r1, r4
 8000e74:	1a89      	subs	r1, r1, r2
 8000e76:	f8c7 1080 	str.w	r1, [r7, #128]	@ 0x80
 8000e7a:	4629      	mov	r1, r5
 8000e7c:	eb61 0303 	sbc.w	r3, r1, r3
 8000e80:	f8c7 3084 	str.w	r3, [r7, #132]	@ 0x84
 8000e84:	e9d7 4520 	ldrd	r4, r5, [r7, #128]	@ 0x80
 8000e88:	4622      	mov	r2, r4
 8000e8a:	462b      	mov	r3, r5
 8000e8c:	1891      	adds	r1, r2, r2
 8000e8e:	6239      	str	r1, [r7, #32]
 8000e90:	415b      	adcs	r3, r3
 8000e92:	627b      	str	r3, [r7, #36]	@ 0x24
 8000e94:	e9d7 2308 	ldrd	r2, r3, [r7, #32]
 8000e98:	4621      	mov	r1, r4
 8000e9a:	1851      	adds	r1, r2, r1
 8000e9c:	61b9      	str	r1, [r7, #24]
 8000e9e:	4629      	mov	r1, r5
 8000ea0:	414b      	adcs	r3, r1
 8000ea2:	61fb      	str	r3, [r7, #28]
 8000ea4:	f04f 0200 	mov.w	r2, #0
 8000ea8:	f04f 0300 	mov.w	r3, #0
 8000eac:	e9d7 8906 	ldrd	r8, r9, [r7, #24]
 8000eb0:	4649      	mov	r1, r9
 8000eb2:	018b      	lsls	r3, r1, #6
 8000eb4:	4641      	mov	r1, r8
 8000eb6:	ea43 6391 	orr.w	r3, r3, r1, lsr #26
 8000eba:	4641      	mov	r1, r8
 8000ebc:	018a      	lsls	r2, r1, #6
 8000ebe:	4641      	mov	r1, r8
 8000ec0:	1889      	adds	r1, r1, r2
 8000ec2:	6139      	str	r1, [r7, #16]
 8000ec4:	4649      	mov	r1, r9
 8000ec6:	eb43 0101 	adc.w	r1, r3, r1
 8000eca:	6179      	str	r1, [r7, #20]
 8000ecc:	f04f 0200 	mov.w	r2, #0
 8000ed0:	f04f 0300 	mov.w	r3, #0
 8000ed4:	e9d7 8904 	ldrd	r8, r9, [r7, #16]
 8000ed8:	4649      	mov	r1, r9
 8000eda:	008b      	lsls	r3, r1, #2
 8000edc:	4641      	mov	r1, r8
 8000ede:	ea43 7391 	orr.w	r3, r3, r1, lsr #30
 8000ee2:	4641      	mov	r1, r8
 8000ee4:	008a      	lsls	r2, r1, #2
 8000ee6:	4610      	mov	r0, r2
 8000ee8:	4619      	mov	r1, r3
 8000eea:	4603      	mov	r3, r0
 8000eec:	4622      	mov	r2, r4
 8000eee:	189b      	adds	r3, r3, r2
 8000ef0:	60bb      	str	r3, [r7, #8]
 8000ef2:	460b      	mov	r3, r1
 8000ef4:	462a      	mov	r2, r5
 8000ef6:	eb42 0303 	adc.w	r3, r2, r3
 8000efa:	60fb      	str	r3, [r7, #12]
 8000efc:	f04f 0200 	mov.w	r2, #0
 8000f00:	f04f 0300 	mov.w	r3, #0
 8000f04:	e9d7 8902 	ldrd	r8, r9, [r7, #8]
 8000f08:	4649      	mov	r1, r9
 8000f0a:	008b      	lsls	r3, r1, #2
 8000f0c:	4641      	mov	r1, r8
 8000f0e:	ea43 7391 	orr.w	r3, r3, r1, lsr #30
 8000f12:	4641      	mov	r1, r8
 8000f14:	008a      	lsls	r2, r1, #2
 8000f16:	4610      	mov	r0, r2
 8000f18:	4619      	mov	r1, r3
 8000f1a:	4603      	mov	r3, r0
 8000f1c:	4622      	mov	r2, r4
 8000f1e:	189b      	adds	r3, r3, r2
 8000f20:	67bb      	str	r3, [r7, #120]	@ 0x78
 8000f22:	462b      	mov	r3, r5
 8000f24:	460a      	mov	r2, r1
 8000f26:	eb42 0303 	adc.w	r3, r2, r3
 8000f2a:	67fb      	str	r3, [r7, #124]	@ 0x7c
 8000f2c:	e9d7 2346 	ldrd	r2, r3, [r7, #280]	@ 0x118
 8000f30:	e9d7 011e 	ldrd	r0, r1, [r7, #120]	@ 0x78
 8000f34:	f7ff fa8e 	bl	8000454 <__aeabi_ldivmod>
 8000f38:	4602      	mov	r2, r0
 8000f3a:	460b      	mov	r3, r1
 8000f3c:	e9c7 2342 	strd	r2, r3, [r7, #264]	@ 0x108
    var1 = (((int64_t)dig_P9) * (p >> 13) * (p >> 13)) >> 25;
 8000f40:	4b6b      	ldr	r3, [pc, #428]	@ (80010f0 <BMP_ReadPressure+0x5ac>)
 8000f42:	f9b3 3000 	ldrsh.w	r3, [r3]
 8000f46:	b21b      	sxth	r3, r3
 8000f48:	17da      	asrs	r2, r3, #31
 8000f4a:	673b      	str	r3, [r7, #112]	@ 0x70
 8000f4c:	677a      	str	r2, [r7, #116]	@ 0x74
 8000f4e:	e9d7 2342 	ldrd	r2, r3, [r7, #264]	@ 0x108
 8000f52:	f04f 0000 	mov.w	r0, #0
 8000f56:	f04f 0100 	mov.w	r1, #0
 8000f5a:	0b50      	lsrs	r0, r2, #13
 8000f5c:	ea40 40c3 	orr.w	r0, r0, r3, lsl #19
 8000f60:	1359      	asrs	r1, r3, #13
 8000f62:	e9d7 451c 	ldrd	r4, r5, [r7, #112]	@ 0x70
 8000f66:	462b      	mov	r3, r5
 8000f68:	fb00 f203 	mul.w	r2, r0, r3
 8000f6c:	4623      	mov	r3, r4
 8000f6e:	fb03 f301 	mul.w	r3, r3, r1
 8000f72:	4413      	add	r3, r2
 8000f74:	4622      	mov	r2, r4
 8000f76:	fba2 1200 	umull	r1, r2, r2, r0
 8000f7a:	f8c7 20e4 	str.w	r2, [r7, #228]	@ 0xe4
 8000f7e:	460a      	mov	r2, r1
 8000f80:	f8c7 20e0 	str.w	r2, [r7, #224]	@ 0xe0
 8000f84:	f8d7 20e4 	ldr.w	r2, [r7, #228]	@ 0xe4
 8000f88:	4413      	add	r3, r2
 8000f8a:	f8c7 30e4 	str.w	r3, [r7, #228]	@ 0xe4
 8000f8e:	e9d7 2342 	ldrd	r2, r3, [r7, #264]	@ 0x108
 8000f92:	f04f 0000 	mov.w	r0, #0
 8000f96:	f04f 0100 	mov.w	r1, #0
 8000f9a:	0b50      	lsrs	r0, r2, #13
 8000f9c:	ea40 40c3 	orr.w	r0, r0, r3, lsl #19
 8000fa0:	1359      	asrs	r1, r3, #13
 8000fa2:	e9d7 4538 	ldrd	r4, r5, [r7, #224]	@ 0xe0
 8000fa6:	462b      	mov	r3, r5
 8000fa8:	fb00 f203 	mul.w	r2, r0, r3
 8000fac:	4623      	mov	r3, r4
 8000fae:	fb03 f301 	mul.w	r3, r3, r1
 8000fb2:	4413      	add	r3, r2
 8000fb4:	4622      	mov	r2, r4
 8000fb6:	fba2 1200 	umull	r1, r2, r2, r0
 8000fba:	f8c7 20dc 	str.w	r2, [r7, #220]	@ 0xdc
 8000fbe:	460a      	mov	r2, r1
 8000fc0:	f8c7 20d8 	str.w	r2, [r7, #216]	@ 0xd8
 8000fc4:	f8d7 20dc 	ldr.w	r2, [r7, #220]	@ 0xdc
 8000fc8:	4413      	add	r3, r2
 8000fca:	f8c7 30dc 	str.w	r3, [r7, #220]	@ 0xdc
 8000fce:	f04f 0200 	mov.w	r2, #0
 8000fd2:	f04f 0300 	mov.w	r3, #0
 8000fd6:	e9d7 4536 	ldrd	r4, r5, [r7, #216]	@ 0xd8
 8000fda:	4621      	mov	r1, r4
 8000fdc:	0e4a      	lsrs	r2, r1, #25
 8000fde:	4629      	mov	r1, r5
 8000fe0:	ea42 12c1 	orr.w	r2, r2, r1, lsl #7
 8000fe4:	4629      	mov	r1, r5
 8000fe6:	164b      	asrs	r3, r1, #25
 8000fe8:	e9c7 2346 	strd	r2, r3, [r7, #280]	@ 0x118
    var2 = (((int64_t)dig_P8) * p) >> 19;
 8000fec:	4b41      	ldr	r3, [pc, #260]	@ (80010f4 <BMP_ReadPressure+0x5b0>)
 8000fee:	f9b3 3000 	ldrsh.w	r3, [r3]
 8000ff2:	b21b      	sxth	r3, r3
 8000ff4:	17da      	asrs	r2, r3, #31
 8000ff6:	66bb      	str	r3, [r7, #104]	@ 0x68
 8000ff8:	66fa      	str	r2, [r7, #108]	@ 0x6c
 8000ffa:	f8d7 3108 	ldr.w	r3, [r7, #264]	@ 0x108
 8000ffe:	e9d7 451a 	ldrd	r4, r5, [r7, #104]	@ 0x68
 8001002:	462a      	mov	r2, r5
 8001004:	fb02 f203 	mul.w	r2, r2, r3
 8001008:	f8d7 310c 	ldr.w	r3, [r7, #268]	@ 0x10c
 800100c:	4621      	mov	r1, r4
 800100e:	fb01 f303 	mul.w	r3, r1, r3
 8001012:	4413      	add	r3, r2
 8001014:	f8d7 2108 	ldr.w	r2, [r7, #264]	@ 0x108
 8001018:	4621      	mov	r1, r4
 800101a:	fba2 1201 	umull	r1, r2, r2, r1
 800101e:	f8c7 20d4 	str.w	r2, [r7, #212]	@ 0xd4
 8001022:	460a      	mov	r2, r1
 8001024:	f8c7 20d0 	str.w	r2, [r7, #208]	@ 0xd0
 8001028:	f8d7 20d4 	ldr.w	r2, [r7, #212]	@ 0xd4
 800102c:	4413      	add	r3, r2
 800102e:	f8c7 30d4 	str.w	r3, [r7, #212]	@ 0xd4
 8001032:	f04f 0200 	mov.w	r2, #0
 8001036:	f04f 0300 	mov.w	r3, #0
 800103a:	e9d7 4534 	ldrd	r4, r5, [r7, #208]	@ 0xd0
 800103e:	4621      	mov	r1, r4
 8001040:	0cca      	lsrs	r2, r1, #19
 8001042:	4629      	mov	r1, r5
 8001044:	ea42 3241 	orr.w	r2, r2, r1, lsl #13
 8001048:	4629      	mov	r1, r5
 800104a:	14cb      	asrs	r3, r1, #19
 800104c:	e9c7 2344 	strd	r2, r3, [r7, #272]	@ 0x110
    p = ((p + var1 + var2) >> 8) + (((int64_t)dig_P7) << 4);
 8001050:	e9d7 0142 	ldrd	r0, r1, [r7, #264]	@ 0x108
 8001054:	e9d7 2346 	ldrd	r2, r3, [r7, #280]	@ 0x118
 8001058:	1884      	adds	r4, r0, r2
 800105a:	663c      	str	r4, [r7, #96]	@ 0x60
 800105c:	eb41 0303 	adc.w	r3, r1, r3
 8001060:	667b      	str	r3, [r7, #100]	@ 0x64
 8001062:	e9d7 2344 	ldrd	r2, r3, [r7, #272]	@ 0x110
 8001066:	e9d7 4518 	ldrd	r4, r5, [r7, #96]	@ 0x60
 800106a:	4621      	mov	r1, r4
 800106c:	1889      	adds	r1, r1, r2
 800106e:	65b9      	str	r1, [r7, #88]	@ 0x58
 8001070:	4629      	mov	r1, r5
 8001072:	eb43 0101 	adc.w	r1, r3, r1
 8001076:	65f9      	str	r1, [r7, #92]	@ 0x5c
 8001078:	f04f 0000 	mov.w	r0, #0
 800107c:	f04f 0100 	mov.w	r1, #0
 8001080:	e9d7 4516 	ldrd	r4, r5, [r7, #88]	@ 0x58
 8001084:	4623      	mov	r3, r4
 8001086:	0a18      	lsrs	r0, r3, #8
 8001088:	462b      	mov	r3, r5
 800108a:	ea40 6003 	orr.w	r0, r0, r3, lsl #24
 800108e:	462b      	mov	r3, r5
 8001090:	1219      	asrs	r1, r3, #8
 8001092:	4b19      	ldr	r3, [pc, #100]	@ (80010f8 <BMP_ReadPressure+0x5b4>)
 8001094:	f9b3 3000 	ldrsh.w	r3, [r3]
 8001098:	b21b      	sxth	r3, r3
 800109a:	17da      	asrs	r2, r3, #31
 800109c:	653b      	str	r3, [r7, #80]	@ 0x50
 800109e:	657a      	str	r2, [r7, #84]	@ 0x54
 80010a0:	f04f 0200 	mov.w	r2, #0
 80010a4:	f04f 0300 	mov.w	r3, #0
 80010a8:	e9d7 5614 	ldrd	r5, r6, [r7, #80]	@ 0x50
 80010ac:	4634      	mov	r4, r6
 80010ae:	0123      	lsls	r3, r4, #4
 80010b0:	462c      	mov	r4, r5
 80010b2:	ea43 7314 	orr.w	r3, r3, r4, lsr #28
 80010b6:	462c      	mov	r4, r5
 80010b8:	0122      	lsls	r2, r4, #4
 80010ba:	1884      	adds	r4, r0, r2
 80010bc:	603c      	str	r4, [r7, #0]
 80010be:	eb41 0303 	adc.w	r3, r1, r3
 80010c2:	607b      	str	r3, [r7, #4]
 80010c4:	e9d7 3400 	ldrd	r3, r4, [r7]
 80010c8:	e9c7 3442 	strd	r3, r4, [r7, #264]	@ 0x108

    return (float)p / 256.0f;
 80010cc:	e9d7 0142 	ldrd	r0, r1, [r7, #264]	@ 0x108
 80010d0:	f7ff f982 	bl	80003d8 <__aeabi_l2f>
 80010d4:	ee06 0a90 	vmov	s13, r0
 80010d8:	ed9f 7a08 	vldr	s14, [pc, #32]	@ 80010fc <BMP_ReadPressure+0x5b8>
 80010dc:	eec6 7a87 	vdiv.f32	s15, s13, s14
}
 80010e0:	eeb0 0a67 	vmov.f32	s0, s15
 80010e4:	f507 7796 	add.w	r7, r7, #300	@ 0x12c
 80010e8:	46bd      	mov	sp, r7
 80010ea:	e8bd 8ff0 	ldmia.w	sp!, {r4, r5, r6, r7, r8, r9, sl, fp, pc}
 80010ee:	bf00      	nop
 80010f0:	2000008e 	.word	0x2000008e
 80010f4:	2000008c 	.word	0x2000008c
 80010f8:	2000008a 	.word	0x2000008a
 80010fc:	43800000 	.word	0x43800000

08001100 <pressure_to_sealevel_temp>:

float pressure_to_sealevel_temp(float pressure_hPa, float altitude_m, float temperature_C)
{
 8001100:	b580      	push	{r7, lr}
 8001102:	b084      	sub	sp, #16
 8001104:	af00      	add	r7, sp, #0
 8001106:	ed87 0a03 	vstr	s0, [r7, #12]
 800110a:	edc7 0a02 	vstr	s1, [r7, #8]
 800110e:	ed87 1a01 	vstr	s2, [r7, #4]
    return pressure_hPa * powf(1.0f - (altitude_m / (44330.0f + 0.0065f * temperature_C)), -5.255f);
 8001112:	edd7 7a01 	vldr	s15, [r7, #4]
 8001116:	ed9f 7a10 	vldr	s14, [pc, #64]	@ 8001158 <pressure_to_sealevel_temp+0x58>
 800111a:	ee67 7a87 	vmul.f32	s15, s15, s14
 800111e:	ed9f 7a0f 	vldr	s14, [pc, #60]	@ 800115c <pressure_to_sealevel_temp+0x5c>
 8001122:	ee37 7a87 	vadd.f32	s14, s15, s14
 8001126:	edd7 6a02 	vldr	s13, [r7, #8]
 800112a:	eec6 7a87 	vdiv.f32	s15, s13, s14
 800112e:	eeb7 7a00 	vmov.f32	s14, #112	@ 0x3f800000  1.0
 8001132:	ee77 7a67 	vsub.f32	s15, s14, s15
 8001136:	eddf 0a0a 	vldr	s1, [pc, #40]	@ 8001160 <pressure_to_sealevel_temp+0x60>
 800113a:	eeb0 0a67 	vmov.f32	s0, s15
 800113e:	f005 fc8f 	bl	8006a60 <powf>
 8001142:	eeb0 7a40 	vmov.f32	s14, s0
 8001146:	edd7 7a03 	vldr	s15, [r7, #12]
 800114a:	ee67 7a27 	vmul.f32	s15, s14, s15
}
 800114e:	eeb0 0a67 	vmov.f32	s0, s15
 8001152:	3710      	adds	r7, #16
 8001154:	46bd      	mov	sp, r7
 8001156:	bd80      	pop	{r7, pc}
 8001158:	3bd4fdf4 	.word	0x3bd4fdf4
 800115c:	472d2a00 	.word	0x472d2a00
 8001160:	c0a828f6 	.word	0xc0a828f6

08001164 <delay_us>:
static void DHT11_Pin_Input(void);

/* Function definitions */

void delay_us(uint16_t us)
{
 8001164:	b480      	push	{r7}
 8001166:	b085      	sub	sp, #20
 8001168:	af00      	add	r7, sp, #0
 800116a:	4603      	mov	r3, r0
 800116c:	80fb      	strh	r3, [r7, #6]
    uint16_t start = __HAL_TIM_GET_COUNTER(&htim1);
 800116e:	4b0a      	ldr	r3, [pc, #40]	@ (8001198 <delay_us+0x34>)
 8001170:	681b      	ldr	r3, [r3, #0]
 8001172:	6a5b      	ldr	r3, [r3, #36]	@ 0x24
 8001174:	81fb      	strh	r3, [r7, #14]
    while ((__HAL_TIM_GET_COUNTER(&htim1) - start) < us);
 8001176:	bf00      	nop
 8001178:	4b07      	ldr	r3, [pc, #28]	@ (8001198 <delay_us+0x34>)
 800117a:	681b      	ldr	r3, [r3, #0]
 800117c:	6a5a      	ldr	r2, [r3, #36]	@ 0x24
 800117e:	89fb      	ldrh	r3, [r7, #14]
 8001180:	1ad2      	subs	r2, r2, r3
 8001182:	88fb      	ldrh	r3, [r7, #6]
 8001184:	429a      	cmp	r2, r3
 8001186:	d3f7      	bcc.n	8001178 <delay_us+0x14>
}
 8001188:	bf00      	nop
 800118a:	bf00      	nop
 800118c:	3714      	adds	r7, #20
 800118e:	46bd      	mov	sp, r7
 8001190:	f85d 7b04 	ldr.w	r7, [sp], #4
 8001194:	4770      	bx	lr
 8001196:	bf00      	nop
 8001198:	200001cc 	.word	0x200001cc

0800119c <DHT11_Pin_Output>:

static void DHT11_Pin_Output(void)
{
 800119c:	b580      	push	{r7, lr}
 800119e:	b086      	sub	sp, #24
 80011a0:	af00      	add	r7, sp, #0
    GPIO_InitTypeDef GPIO_InitStruct = {0};
 80011a2:	1d3b      	adds	r3, r7, #4
 80011a4:	2200      	movs	r2, #0
 80011a6:	601a      	str	r2, [r3, #0]
 80011a8:	605a      	str	r2, [r3, #4]
 80011aa:	609a      	str	r2, [r3, #8]
 80011ac:	60da      	str	r2, [r3, #12]
 80011ae:	611a      	str	r2, [r3, #16]
    GPIO_InitStruct.Pin = DHT11_Pin;
 80011b0:	2301      	movs	r3, #1
 80011b2:	607b      	str	r3, [r7, #4]
    GPIO_InitStruct.Mode = GPIO_MODE_OUTPUT_PP;
 80011b4:	2301      	movs	r3, #1
 80011b6:	60bb      	str	r3, [r7, #8]
    GPIO_InitStruct.Pull = GPIO_NOPULL;
 80011b8:	2300      	movs	r3, #0
 80011ba:	60fb      	str	r3, [r7, #12]
    GPIO_InitStruct.Speed = GPIO_SPEED_FREQ_LOW;
 80011bc:	2300      	movs	r3, #0
 80011be:	613b      	str	r3, [r7, #16]
    HAL_GPIO_Init(DHT11_GPIO_Port, &GPIO_InitStruct);
 80011c0:	1d3b      	adds	r3, r7, #4
 80011c2:	4619      	mov	r1, r3
 80011c4:	4803      	ldr	r0, [pc, #12]	@ (80011d4 <DHT11_Pin_Output+0x38>)
 80011c6:	f002 fa17 	bl	80035f8 <HAL_GPIO_Init>
}
 80011ca:	bf00      	nop
 80011cc:	3718      	adds	r7, #24
 80011ce:	46bd      	mov	sp, r7
 80011d0:	bd80      	pop	{r7, pc}
 80011d2:	bf00      	nop
 80011d4:	40020000 	.word	0x40020000

080011d8 <DHT11_Pin_Input>:

static void DHT11_Pin_Input(void)
{
 80011d8:	b580      	push	{r7, lr}
 80011da:	b086      	sub	sp, #24
 80011dc:	af00      	add	r7, sp, #0
    GPIO_InitTypeDef GPIO_InitStruct = {0};
 80011de:	1d3b      	adds	r3, r7, #4
 80011e0:	2200      	movs	r2, #0
 80011e2:	601a      	str	r2, [r3, #0]
 80011e4:	605a      	str	r2, [r3, #4]
 80011e6:	609a      	str	r2, [r3, #8]
 80011e8:	60da      	str	r2, [r3, #12]
 80011ea:	611a      	str	r2, [r3, #16]
    GPIO_InitStruct.Pin = DHT11_Pin;
 80011ec:	2301      	movs	r3, #1
 80011ee:	607b      	str	r3, [r7, #4]
    GPIO_InitStruct.Mode = GPIO_MODE_INPUT;
 80011f0:	2300      	movs	r3, #0
 80011f2:	60bb      	str	r3, [r7, #8]
    GPIO_InitStruct.Pull = GPIO_NOPULL;
 80011f4:	2300      	movs	r3, #0
 80011f6:	60fb      	str	r3, [r7, #12]
    HAL_GPIO_Init(DHT11_GPIO_Port, &GPIO_InitStruct);
 80011f8:	1d3b      	adds	r3, r7, #4
 80011fa:	4619      	mov	r1, r3
 80011fc:	4803      	ldr	r0, [pc, #12]	@ (800120c <DHT11_Pin_Input+0x34>)
 80011fe:	f002 f9fb 	bl	80035f8 <HAL_GPIO_Init>
}
 8001202:	bf00      	nop
 8001204:	3718      	adds	r7, #24
 8001206:	46bd      	mov	sp, r7
 8001208:	bd80      	pop	{r7, pc}
 800120a:	bf00      	nop
 800120c:	40020000 	.word	0x40020000

08001210 <DHT11_Read_Data>:

int DHT11_Read_Data(void)
{
 8001210:	b580      	push	{r7, lr}
 8001212:	b086      	sub	sp, #24
 8001214:	af00      	add	r7, sp, #0
    uint16_t timeout = 0;
 8001216:	2300      	movs	r3, #0
 8001218:	82fb      	strh	r3, [r7, #22]
    int i, j;

    /* Start communication */
    DHT11_Pin_Output();
 800121a:	f7ff ffbf 	bl	800119c <DHT11_Pin_Output>
    HAL_GPIO_WritePin(DHT11_GPIO_Port, DHT11_Pin, GPIO_PIN_RESET);
 800121e:	2200      	movs	r2, #0
 8001220:	2101      	movs	r1, #1
 8001222:	4856      	ldr	r0, [pc, #344]	@ (800137c <DHT11_Read_Data+0x16c>)
 8001224:	f002 fbac 	bl	8003980 <HAL_GPIO_WritePin>
    HAL_Delay(18);
 8001228:	2012      	movs	r0, #18
 800122a:	f001 fc05 	bl	8002a38 <HAL_Delay>
    HAL_GPIO_WritePin(DHT11_GPIO_Port, DHT11_Pin, GPIO_PIN_SET);
 800122e:	2201      	movs	r2, #1
 8001230:	2101      	movs	r1, #1
 8001232:	4852      	ldr	r0, [pc, #328]	@ (800137c <DHT11_Read_Data+0x16c>)
 8001234:	f002 fba4 	bl	8003980 <HAL_GPIO_WritePin>
    delay_us(20);
 8001238:	2014      	movs	r0, #20
 800123a:	f7ff ff93 	bl	8001164 <delay_us>
    DHT11_Pin_Input();
 800123e:	f7ff ffcb 	bl	80011d8 <DHT11_Pin_Input>

    /* Wait for response - LOW (80 us) */
    timeout = 0;
 8001242:	2300      	movs	r3, #0
 8001244:	82fb      	strh	r3, [r7, #22]
    while (HAL_GPIO_ReadPin(DHT11_GPIO_Port, DHT11_Pin) == GPIO_PIN_SET)
 8001246:	e008      	b.n	800125a <DHT11_Read_Data+0x4a>
    {
        timeout++;
 8001248:	8afb      	ldrh	r3, [r7, #22]
 800124a:	3301      	adds	r3, #1
 800124c:	82fb      	strh	r3, [r7, #22]
        if (timeout > 1000) return 0;
 800124e:	8afb      	ldrh	r3, [r7, #22]
 8001250:	f5b3 7f7a 	cmp.w	r3, #1000	@ 0x3e8
 8001254:	d901      	bls.n	800125a <DHT11_Read_Data+0x4a>
 8001256:	2300      	movs	r3, #0
 8001258:	e08c      	b.n	8001374 <DHT11_Read_Data+0x164>
    while (HAL_GPIO_ReadPin(DHT11_GPIO_Port, DHT11_Pin) == GPIO_PIN_SET)
 800125a:	2101      	movs	r1, #1
 800125c:	4847      	ldr	r0, [pc, #284]	@ (800137c <DHT11_Read_Data+0x16c>)
 800125e:	f002 fb77 	bl	8003950 <HAL_GPIO_ReadPin>
 8001262:	4603      	mov	r3, r0
 8001264:	2b01      	cmp	r3, #1
 8001266:	d0ef      	beq.n	8001248 <DHT11_Read_Data+0x38>
    }

    timeout = 0;
 8001268:	2300      	movs	r3, #0
 800126a:	82fb      	strh	r3, [r7, #22]
    while (HAL_GPIO_ReadPin(DHT11_GPIO_Port, DHT11_Pin) == GPIO_PIN_RESET)
 800126c:	e008      	b.n	8001280 <DHT11_Read_Data+0x70>
    {
        timeout++;
 800126e:	8afb      	ldrh	r3, [r7, #22]
 8001270:	3301      	adds	r3, #1
 8001272:	82fb      	strh	r3, [r7, #22]
        if (timeout > 1000) return 0;
 8001274:	8afb      	ldrh	r3, [r7, #22]
 8001276:	f5b3 7f7a 	cmp.w	r3, #1000	@ 0x3e8
 800127a:	d901      	bls.n	8001280 <DHT11_Read_Data+0x70>
 800127c:	2300      	movs	r3, #0
 800127e:	e079      	b.n	8001374 <DHT11_Read_Data+0x164>
    while (HAL_GPIO_ReadPin(DHT11_GPIO_Port, DHT11_Pin) == GPIO_PIN_RESET)
 8001280:	2101      	movs	r1, #1
 8001282:	483e      	ldr	r0, [pc, #248]	@ (800137c <DHT11_Read_Data+0x16c>)
 8001284:	f002 fb64 	bl	8003950 <HAL_GPIO_ReadPin>
 8001288:	4603      	mov	r3, r0
 800128a:	2b00      	cmp	r3, #0
 800128c:	d0ef      	beq.n	800126e <DHT11_Read_Data+0x5e>
    }

    /* Read data */
    for (i = 0; i < 5; i++)
 800128e:	2300      	movs	r3, #0
 8001290:	613b      	str	r3, [r7, #16]
 8001292:	e057      	b.n	8001344 <DHT11_Read_Data+0x134>
    {
        uint8_t wartosc = 0;
 8001294:	2300      	movs	r3, #0
 8001296:	72fb      	strb	r3, [r7, #11]
        DHT11_Data[i] = 0;
 8001298:	4a39      	ldr	r2, [pc, #228]	@ (8001380 <DHT11_Read_Data+0x170>)
 800129a:	693b      	ldr	r3, [r7, #16]
 800129c:	4413      	add	r3, r2
 800129e:	2200      	movs	r2, #0
 80012a0:	701a      	strb	r2, [r3, #0]

        for (j = 0; j < 8; j++)
 80012a2:	2300      	movs	r3, #0
 80012a4:	60fb      	str	r3, [r7, #12]
 80012a6:	e042      	b.n	800132e <DHT11_Read_Data+0x11e>
        {
            uint8_t bit = 0;
 80012a8:	2300      	movs	r3, #0
 80012aa:	72bb      	strb	r3, [r7, #10]
            uint16_t dlugosc = 0;
 80012ac:	2300      	movs	r3, #0
 80012ae:	813b      	strh	r3, [r7, #8]
            uint16_t start;

            while (HAL_GPIO_ReadPin(DHT11_GPIO_Port, DHT11_Pin) == GPIO_PIN_SET);
 80012b0:	bf00      	nop
 80012b2:	2101      	movs	r1, #1
 80012b4:	4831      	ldr	r0, [pc, #196]	@ (800137c <DHT11_Read_Data+0x16c>)
 80012b6:	f002 fb4b 	bl	8003950 <HAL_GPIO_ReadPin>
 80012ba:	4603      	mov	r3, r0
 80012bc:	2b01      	cmp	r3, #1
 80012be:	d0f8      	beq.n	80012b2 <DHT11_Read_Data+0xa2>
            while (HAL_GPIO_ReadPin(DHT11_GPIO_Port, DHT11_Pin) == GPIO_PIN_RESET);
 80012c0:	bf00      	nop
 80012c2:	2101      	movs	r1, #1
 80012c4:	482d      	ldr	r0, [pc, #180]	@ (800137c <DHT11_Read_Data+0x16c>)
 80012c6:	f002 fb43 	bl	8003950 <HAL_GPIO_ReadPin>
 80012ca:	4603      	mov	r3, r0
 80012cc:	2b00      	cmp	r3, #0
 80012ce:	d0f8      	beq.n	80012c2 <DHT11_Read_Data+0xb2>

            start = __HAL_TIM_GET_COUNTER(&htim1);
 80012d0:	4b2c      	ldr	r3, [pc, #176]	@ (8001384 <DHT11_Read_Data+0x174>)
 80012d2:	681b      	ldr	r3, [r3, #0]
 80012d4:	6a5b      	ldr	r3, [r3, #36]	@ 0x24
 80012d6:	80fb      	strh	r3, [r7, #6]
            while (HAL_GPIO_ReadPin(DHT11_GPIO_Port, DHT11_Pin) == GPIO_PIN_SET);
 80012d8:	bf00      	nop
 80012da:	2101      	movs	r1, #1
 80012dc:	4827      	ldr	r0, [pc, #156]	@ (800137c <DHT11_Read_Data+0x16c>)
 80012de:	f002 fb37 	bl	8003950 <HAL_GPIO_ReadPin>
 80012e2:	4603      	mov	r3, r0
 80012e4:	2b01      	cmp	r3, #1
 80012e6:	d0f8      	beq.n	80012da <DHT11_Read_Data+0xca>
            dlugosc = __HAL_TIM_GET_COUNTER(&htim1) - start;
 80012e8:	4b26      	ldr	r3, [pc, #152]	@ (8001384 <DHT11_Read_Data+0x174>)
 80012ea:	681b      	ldr	r3, [r3, #0]
 80012ec:	6a5b      	ldr	r3, [r3, #36]	@ 0x24
 80012ee:	b29a      	uxth	r2, r3
 80012f0:	88fb      	ldrh	r3, [r7, #6]
 80012f2:	1ad3      	subs	r3, r2, r3
 80012f4:	813b      	strh	r3, [r7, #8]

            if (dlugosc < 40)
 80012f6:	893b      	ldrh	r3, [r7, #8]
 80012f8:	2b27      	cmp	r3, #39	@ 0x27
 80012fa:	d802      	bhi.n	8001302 <DHT11_Read_Data+0xf2>
                bit = 0;
 80012fc:	2300      	movs	r3, #0
 80012fe:	72bb      	strb	r3, [r7, #10]
 8001300:	e001      	b.n	8001306 <DHT11_Read_Data+0xf6>
            else
                bit = 1;
 8001302:	2301      	movs	r3, #1
 8001304:	72bb      	strb	r3, [r7, #10]

            if (dlugosc > 99)
 8001306:	893b      	ldrh	r3, [r7, #8]
 8001308:	2b63      	cmp	r3, #99	@ 0x63
 800130a:	d901      	bls.n	8001310 <DHT11_Read_Data+0x100>
                return 0;
 800130c:	2300      	movs	r3, #0
 800130e:	e031      	b.n	8001374 <DHT11_Read_Data+0x164>

            wartosc |= (bit << (7 - j));
 8001310:	7aba      	ldrb	r2, [r7, #10]
 8001312:	68fb      	ldr	r3, [r7, #12]
 8001314:	f1c3 0307 	rsb	r3, r3, #7
 8001318:	fa02 f303 	lsl.w	r3, r2, r3
 800131c:	b25a      	sxtb	r2, r3
 800131e:	f997 300b 	ldrsb.w	r3, [r7, #11]
 8001322:	4313      	orrs	r3, r2
 8001324:	b25b      	sxtb	r3, r3
 8001326:	72fb      	strb	r3, [r7, #11]
        for (j = 0; j < 8; j++)
 8001328:	68fb      	ldr	r3, [r7, #12]
 800132a:	3301      	adds	r3, #1
 800132c:	60fb      	str	r3, [r7, #12]
 800132e:	68fb      	ldr	r3, [r7, #12]
 8001330:	2b07      	cmp	r3, #7
 8001332:	ddb9      	ble.n	80012a8 <DHT11_Read_Data+0x98>
        }
        DHT11_Data[i] = wartosc;
 8001334:	4a12      	ldr	r2, [pc, #72]	@ (8001380 <DHT11_Read_Data+0x170>)
 8001336:	693b      	ldr	r3, [r7, #16]
 8001338:	4413      	add	r3, r2
 800133a:	7afa      	ldrb	r2, [r7, #11]
 800133c:	701a      	strb	r2, [r3, #0]
    for (i = 0; i < 5; i++)
 800133e:	693b      	ldr	r3, [r7, #16]
 8001340:	3301      	adds	r3, #1
 8001342:	613b      	str	r3, [r7, #16]
 8001344:	693b      	ldr	r3, [r7, #16]
 8001346:	2b04      	cmp	r3, #4
 8001348:	dda4      	ble.n	8001294 <DHT11_Read_Data+0x84>
    }

    /* Checksum verification */
    if (DHT11_Data[4] == (uint8_t)(DHT11_Data[0] + DHT11_Data[1] + DHT11_Data[2] + DHT11_Data[3]))
 800134a:	4b0d      	ldr	r3, [pc, #52]	@ (8001380 <DHT11_Read_Data+0x170>)
 800134c:	791a      	ldrb	r2, [r3, #4]
 800134e:	4b0c      	ldr	r3, [pc, #48]	@ (8001380 <DHT11_Read_Data+0x170>)
 8001350:	7819      	ldrb	r1, [r3, #0]
 8001352:	4b0b      	ldr	r3, [pc, #44]	@ (8001380 <DHT11_Read_Data+0x170>)
 8001354:	785b      	ldrb	r3, [r3, #1]
 8001356:	440b      	add	r3, r1
 8001358:	b2d9      	uxtb	r1, r3
 800135a:	4b09      	ldr	r3, [pc, #36]	@ (8001380 <DHT11_Read_Data+0x170>)
 800135c:	789b      	ldrb	r3, [r3, #2]
 800135e:	440b      	add	r3, r1
 8001360:	b2d9      	uxtb	r1, r3
 8001362:	4b07      	ldr	r3, [pc, #28]	@ (8001380 <DHT11_Read_Data+0x170>)
 8001364:	78db      	ldrb	r3, [r3, #3]
 8001366:	440b      	add	r3, r1
 8001368:	b2db      	uxtb	r3, r3
 800136a:	429a      	cmp	r2, r3
 800136c:	d101      	bne.n	8001372 <DHT11_Read_Data+0x162>
        return 1;
 800136e:	2301      	movs	r3, #1
 8001370:	e000      	b.n	8001374 <DHT11_Read_Data+0x164>
    else
        return 0;
 8001372:	2300      	movs	r3, #0
}
 8001374:	4618      	mov	r0, r3
 8001376:	3718      	adds	r7, #24
 8001378:	46bd      	mov	sp, r7
 800137a:	bd80      	pop	{r7, pc}
 800137c:	40020000 	.word	0x40020000
 8001380:	20000094 	.word	0x20000094
 8001384:	200001cc 	.word	0x200001cc

08001388 <Filter>:
extern ADC_HandleTypeDef hadc1;

/* Private functions */

static int Filter(int m)
{
 8001388:	b480      	push	{r7}
 800138a:	b085      	sub	sp, #20
 800138c:	af00      	add	r7, sp, #0
 800138e:	6078      	str	r0, [r7, #4]
    static int flag_first = 0;
    static int _buff[10];
    static int sum = 0;
    const int _buff_max = 10;
 8001390:	230a      	movs	r3, #10
 8001392:	60bb      	str	r3, [r7, #8]
    int i;

    if (flag_first == 0)
 8001394:	4b2c      	ldr	r3, [pc, #176]	@ (8001448 <Filter+0xc0>)
 8001396:	681b      	ldr	r3, [r3, #0]
 8001398:	2b00      	cmp	r3, #0
 800139a:	d11f      	bne.n	80013dc <Filter+0x54>
    {
        flag_first = 1;
 800139c:	4b2a      	ldr	r3, [pc, #168]	@ (8001448 <Filter+0xc0>)
 800139e:	2201      	movs	r2, #1
 80013a0:	601a      	str	r2, [r3, #0]
        sum = 0;
 80013a2:	4b2a      	ldr	r3, [pc, #168]	@ (800144c <Filter+0xc4>)
 80013a4:	2200      	movs	r2, #0
 80013a6:	601a      	str	r2, [r3, #0]
        for (i = 0; i < _buff_max; i++)
 80013a8:	2300      	movs	r3, #0
 80013aa:	60fb      	str	r3, [r7, #12]
 80013ac:	e010      	b.n	80013d0 <Filter+0x48>
        {
            _buff[i] = m;
 80013ae:	4928      	ldr	r1, [pc, #160]	@ (8001450 <Filter+0xc8>)
 80013b0:	68fb      	ldr	r3, [r7, #12]
 80013b2:	687a      	ldr	r2, [r7, #4]
 80013b4:	f841 2023 	str.w	r2, [r1, r3, lsl #2]
            sum += _buff[i];
 80013b8:	4a25      	ldr	r2, [pc, #148]	@ (8001450 <Filter+0xc8>)
 80013ba:	68fb      	ldr	r3, [r7, #12]
 80013bc:	f852 2023 	ldr.w	r2, [r2, r3, lsl #2]
 80013c0:	4b22      	ldr	r3, [pc, #136]	@ (800144c <Filter+0xc4>)
 80013c2:	681b      	ldr	r3, [r3, #0]
 80013c4:	4413      	add	r3, r2
 80013c6:	4a21      	ldr	r2, [pc, #132]	@ (800144c <Filter+0xc4>)
 80013c8:	6013      	str	r3, [r2, #0]
        for (i = 0; i < _buff_max; i++)
 80013ca:	68fb      	ldr	r3, [r7, #12]
 80013cc:	3301      	adds	r3, #1
 80013ce:	60fb      	str	r3, [r7, #12]
 80013d0:	68fa      	ldr	r2, [r7, #12]
 80013d2:	68bb      	ldr	r3, [r7, #8]
 80013d4:	429a      	cmp	r2, r3
 80013d6:	dbea      	blt.n	80013ae <Filter+0x26>
        }
        return m;
 80013d8:	687b      	ldr	r3, [r7, #4]
 80013da:	e02e      	b.n	800143a <Filter+0xb2>
    }
    else
    {
        sum -= _buff[0];
 80013dc:	4b1b      	ldr	r3, [pc, #108]	@ (800144c <Filter+0xc4>)
 80013de:	681a      	ldr	r2, [r3, #0]
 80013e0:	4b1b      	ldr	r3, [pc, #108]	@ (8001450 <Filter+0xc8>)
 80013e2:	681b      	ldr	r3, [r3, #0]
 80013e4:	1ad3      	subs	r3, r2, r3
 80013e6:	4a19      	ldr	r2, [pc, #100]	@ (800144c <Filter+0xc4>)
 80013e8:	6013      	str	r3, [r2, #0]
        for (i = 0; i < (_buff_max - 1); i++)
 80013ea:	2300      	movs	r3, #0
 80013ec:	60fb      	str	r3, [r7, #12]
 80013ee:	e00b      	b.n	8001408 <Filter+0x80>
        {
            _buff[i] = _buff[i + 1];
 80013f0:	68fb      	ldr	r3, [r7, #12]
 80013f2:	3301      	adds	r3, #1
 80013f4:	4a16      	ldr	r2, [pc, #88]	@ (8001450 <Filter+0xc8>)
 80013f6:	f852 2023 	ldr.w	r2, [r2, r3, lsl #2]
 80013fa:	4915      	ldr	r1, [pc, #84]	@ (8001450 <Filter+0xc8>)
 80013fc:	68fb      	ldr	r3, [r7, #12]
 80013fe:	f841 2023 	str.w	r2, [r1, r3, lsl #2]
        for (i = 0; i < (_buff_max - 1); i++)
 8001402:	68fb      	ldr	r3, [r7, #12]
 8001404:	3301      	adds	r3, #1
 8001406:	60fb      	str	r3, [r7, #12]
 8001408:	68bb      	ldr	r3, [r7, #8]
 800140a:	3b01      	subs	r3, #1
 800140c:	68fa      	ldr	r2, [r7, #12]
 800140e:	429a      	cmp	r2, r3
 8001410:	dbee      	blt.n	80013f0 <Filter+0x68>
        }
        _buff[9] = m;
 8001412:	4a0f      	ldr	r2, [pc, #60]	@ (8001450 <Filter+0xc8>)
 8001414:	687b      	ldr	r3, [r7, #4]
 8001416:	6253      	str	r3, [r2, #36]	@ 0x24
        sum += _buff[9];
 8001418:	4b0d      	ldr	r3, [pc, #52]	@ (8001450 <Filter+0xc8>)
 800141a:	6a5a      	ldr	r2, [r3, #36]	@ 0x24
 800141c:	4b0b      	ldr	r3, [pc, #44]	@ (800144c <Filter+0xc4>)
 800141e:	681b      	ldr	r3, [r3, #0]
 8001420:	4413      	add	r3, r2
 8001422:	4a0a      	ldr	r2, [pc, #40]	@ (800144c <Filter+0xc4>)
 8001424:	6013      	str	r3, [r2, #0]

        i = sum / 10;
 8001426:	4b09      	ldr	r3, [pc, #36]	@ (800144c <Filter+0xc4>)
 8001428:	681b      	ldr	r3, [r3, #0]
 800142a:	4a0a      	ldr	r2, [pc, #40]	@ (8001454 <Filter+0xcc>)
 800142c:	fb82 1203 	smull	r1, r2, r2, r3
 8001430:	1092      	asrs	r2, r2, #2
 8001432:	17db      	asrs	r3, r3, #31
 8001434:	1ad3      	subs	r3, r2, r3
 8001436:	60fb      	str	r3, [r7, #12]
        return i;
 8001438:	68fb      	ldr	r3, [r7, #12]
    }
}
 800143a:	4618      	mov	r0, r3
 800143c:	3714      	adds	r7, #20
 800143e:	46bd      	mov	sp, r7
 8001440:	f85d 7b04 	ldr.w	r7, [sp], #4
 8001444:	4770      	bx	lr
 8001446:	bf00      	nop
 8001448:	2000009c 	.word	0x2000009c
 800144c:	200000a0 	.word	0x200000a0
 8001450:	200000a4 	.word	0x200000a4
 8001454:	66666667 	.word	0x66666667

08001458 <ReadDustSensor>:

/* Public functions */

float ReadDustSensor(void)
{
 8001458:	b580      	push	{r7, lr}
 800145a:	b082      	sub	sp, #8
 800145c:	af00      	add	r7, sp, #0
    uint32_t adcValue;
    float voltage;

    /* Turn on sensor LED */
    HAL_GPIO_WritePin(GP_DIODE_GPIO_Port, GP_DIODE_Pin, GPIO_PIN_SET);
 800145e:	2201      	movs	r2, #1
 8001460:	2110      	movs	r1, #16
 8001462:	481b      	ldr	r0, [pc, #108]	@ (80014d0 <ReadDustSensor+0x78>)
 8001464:	f002 fa8c 	bl	8003980 <HAL_GPIO_WritePin>

    delay_us(280);
 8001468:	f44f 708c 	mov.w	r0, #280	@ 0x118
 800146c:	f7ff fe7a 	bl	8001164 <delay_us>

    /* Start conversion */
    HAL_ADC_Start(&hadc1);
 8001470:	4818      	ldr	r0, [pc, #96]	@ (80014d4 <ReadDustSensor+0x7c>)
 8001472:	f001 fb49 	bl	8002b08 <HAL_ADC_Start>

    /* Wait for completion */
    HAL_ADC_PollForConversion(&hadc1, 10);
 8001476:	210a      	movs	r1, #10
 8001478:	4816      	ldr	r0, [pc, #88]	@ (80014d4 <ReadDustSensor+0x7c>)
 800147a:	f001 fc47 	bl	8002d0c <HAL_ADC_PollForConversion>

    /* Read result */
    adcValue = HAL_ADC_GetValue(&hadc1);
 800147e:	4815      	ldr	r0, [pc, #84]	@ (80014d4 <ReadDustSensor+0x7c>)
 8001480:	f001 fccf 	bl	8002e22 <HAL_ADC_GetValue>
 8001484:	6078      	str	r0, [r7, #4]
    adcValue = (uint32_t)Filter((int)adcValue);
 8001486:	687b      	ldr	r3, [r7, #4]
 8001488:	4618      	mov	r0, r3
 800148a:	f7ff ff7d 	bl	8001388 <Filter>
 800148e:	4603      	mov	r3, r0
 8001490:	607b      	str	r3, [r7, #4]

    /* Turn off LED */
    HAL_GPIO_WritePin(GP_DIODE_GPIO_Port, GP_DIODE_Pin, GPIO_PIN_RESET);
 8001492:	2200      	movs	r2, #0
 8001494:	2110      	movs	r1, #16
 8001496:	480e      	ldr	r0, [pc, #56]	@ (80014d0 <ReadDustSensor+0x78>)
 8001498:	f002 fa72 	bl	8003980 <HAL_GPIO_WritePin>

    /* Stop ADC */
    HAL_ADC_Stop(&hadc1);
 800149c:	480d      	ldr	r0, [pc, #52]	@ (80014d4 <ReadDustSensor+0x7c>)
 800149e:	f001 fc01 	bl	8002ca4 <HAL_ADC_Stop>

    /* Convert to voltage */
    voltage = ((float)adcValue * 3300.0f) / 4095.0f;
 80014a2:	687b      	ldr	r3, [r7, #4]
 80014a4:	ee07 3a90 	vmov	s15, r3
 80014a8:	eef8 7a67 	vcvt.f32.u32	s15, s15
 80014ac:	ed9f 7a0a 	vldr	s14, [pc, #40]	@ 80014d8 <ReadDustSensor+0x80>
 80014b0:	ee27 7a87 	vmul.f32	s14, s15, s14
 80014b4:	eddf 6a09 	vldr	s13, [pc, #36]	@ 80014dc <ReadDustSensor+0x84>
 80014b8:	eec7 7a26 	vdiv.f32	s15, s14, s13
 80014bc:	edc7 7a00 	vstr	s15, [r7]

    return voltage;
 80014c0:	683b      	ldr	r3, [r7, #0]
 80014c2:	ee07 3a90 	vmov	s15, r3
}
 80014c6:	eeb0 0a67 	vmov.f32	s0, s15
 80014ca:	3708      	adds	r7, #8
 80014cc:	46bd      	mov	sp, r7
 80014ce:	bd80      	pop	{r7, pc}
 80014d0:	40020000 	.word	0x40020000
 80014d4:	200000cc 	.word	0x200000cc
 80014d8:	454e4000 	.word	0x454e4000
 80014dc:	457ff000 	.word	0x457ff000

080014e0 <VoltageToDustDensity>:

float VoltageToDustDensity(float voltage)
{
 80014e0:	b480      	push	{r7}
 80014e2:	b085      	sub	sp, #20
 80014e4:	af00      	add	r7, sp, #0
 80014e6:	ed87 0a01 	vstr	s0, [r7, #4]
    float density = 0;
 80014ea:	f04f 0300 	mov.w	r3, #0
 80014ee:	60fb      	str	r3, [r7, #12]

    voltage *= 11;
 80014f0:	edd7 7a01 	vldr	s15, [r7, #4]
 80014f4:	eeb2 7a06 	vmov.f32	s14, #38	@ 0x41300000  11.0
 80014f8:	ee67 7a87 	vmul.f32	s15, s15, s14
 80014fc:	edc7 7a01 	vstr	s15, [r7, #4]

    if (voltage >= 400.0f)
 8001500:	edd7 7a01 	vldr	s15, [r7, #4]
 8001504:	ed9f 7a10 	vldr	s14, [pc, #64]	@ 8001548 <VoltageToDustDensity+0x68>
 8001508:	eef4 7ac7 	vcmpe.f32	s15, s14
 800150c:	eef1 fa10 	vmrs	APSR_nzcv, fpscr
 8001510:	db0c      	blt.n	800152c <VoltageToDustDensity+0x4c>
    {
        density = (voltage - 400.0f) * 0.2f;
 8001512:	edd7 7a01 	vldr	s15, [r7, #4]
 8001516:	ed9f 7a0c 	vldr	s14, [pc, #48]	@ 8001548 <VoltageToDustDensity+0x68>
 800151a:	ee77 7ac7 	vsub.f32	s15, s15, s14
 800151e:	ed9f 7a0b 	vldr	s14, [pc, #44]	@ 800154c <VoltageToDustDensity+0x6c>
 8001522:	ee67 7a87 	vmul.f32	s15, s15, s14
 8001526:	edc7 7a03 	vstr	s15, [r7, #12]
 800152a:	e002      	b.n	8001532 <VoltageToDustDensity+0x52>
    }
    else
    {
        density = 0;
 800152c:	f04f 0300 	mov.w	r3, #0
 8001530:	60fb      	str	r3, [r7, #12]
    }

    return density;
 8001532:	68fb      	ldr	r3, [r7, #12]
 8001534:	ee07 3a90 	vmov	s15, r3
}
 8001538:	eeb0 0a67 	vmov.f32	s0, s15
 800153c:	3714      	adds	r7, #20
 800153e:	46bd      	mov	sp, r7
 8001540:	f85d 7b04 	ldr.w	r7, [sp], #4
 8001544:	4770      	bx	lr
 8001546:	bf00      	nop
 8001548:	43c80000 	.word	0x43c80000
 800154c:	3e4ccccd 	.word	0x3e4ccccd

08001550 <updateData>:
static void MX_I2C1_Init(void);
static void MX_ADC1_Init(void);
static void MX_TIM2_Init(void);
/* USER CODE BEGIN PFP */
void updateData()
{
 8001550:	b580      	push	{r7, lr}
 8001552:	af00      	add	r7, sp, #0
	HAL_GPIO_TogglePin(GREEN_LED_GPIO_Port, GREEN_LED_Pin);
 8001554:	2101      	movs	r1, #1
 8001556:	483e      	ldr	r0, [pc, #248]	@ (8001650 <updateData+0x100>)
 8001558:	f002 fa2b 	bl	80039b2 <HAL_GPIO_TogglePin>
	DHT11_Read_Data();
 800155c:	f7ff fe58 	bl	8001210 <DHT11_Read_Data>
	hum = (float)DHT11_Data[0] + ((float)DHT11_Data[1] / 10.0f);
 8001560:	4b3c      	ldr	r3, [pc, #240]	@ (8001654 <updateData+0x104>)
 8001562:	781b      	ldrb	r3, [r3, #0]
 8001564:	ee07 3a90 	vmov	s15, r3
 8001568:	eeb8 7a67 	vcvt.f32.u32	s14, s15
 800156c:	4b39      	ldr	r3, [pc, #228]	@ (8001654 <updateData+0x104>)
 800156e:	785b      	ldrb	r3, [r3, #1]
 8001570:	ee07 3a90 	vmov	s15, r3
 8001574:	eef8 6a67 	vcvt.f32.u32	s13, s15
 8001578:	eeb2 6a04 	vmov.f32	s12, #36	@ 0x41200000  10.0
 800157c:	eec6 7a86 	vdiv.f32	s15, s13, s12
 8001580:	ee77 7a27 	vadd.f32	s15, s14, s15
 8001584:	4b34      	ldr	r3, [pc, #208]	@ (8001658 <updateData+0x108>)
 8001586:	edc3 7a00 	vstr	s15, [r3]
	tem = (float)DHT11_Data[2] + ((float)DHT11_Data[3] / 10.0f);
 800158a:	4b32      	ldr	r3, [pc, #200]	@ (8001654 <updateData+0x104>)
 800158c:	789b      	ldrb	r3, [r3, #2]
 800158e:	ee07 3a90 	vmov	s15, r3
 8001592:	eeb8 7a67 	vcvt.f32.u32	s14, s15
 8001596:	4b2f      	ldr	r3, [pc, #188]	@ (8001654 <updateData+0x104>)
 8001598:	78db      	ldrb	r3, [r3, #3]
 800159a:	ee07 3a90 	vmov	s15, r3
 800159e:	eef8 6a67 	vcvt.f32.u32	s13, s15
 80015a2:	eeb2 6a04 	vmov.f32	s12, #36	@ 0x41200000  10.0
 80015a6:	eec6 7a86 	vdiv.f32	s15, s13, s12
 80015aa:	ee77 7a27 	vadd.f32	s15, s14, s15
 80015ae:	4b2b      	ldr	r3, [pc, #172]	@ (800165c <updateData+0x10c>)
 80015b0:	edc3 7a00 	vstr	s15, [r3]

	HAL_GPIO_TogglePin(GREEN_LED_GPIO_Port, GREEN_LED_Pin);
 80015b4:	2101      	movs	r1, #1
 80015b6:	4826      	ldr	r0, [pc, #152]	@ (8001650 <updateData+0x100>)
 80015b8:	f002 f9fb 	bl	80039b2 <HAL_GPIO_TogglePin>

	tempBMP = BMP_ReadTemperature();
 80015bc:	f7ff fa62 	bl	8000a84 <BMP_ReadTemperature>
 80015c0:	eef0 7a40 	vmov.f32	s15, s0
 80015c4:	4b26      	ldr	r3, [pc, #152]	@ (8001660 <updateData+0x110>)
 80015c6:	edc3 7a00 	vstr	s15, [r3]
	psi = BMP_ReadPressure();
 80015ca:	f7ff fabb 	bl	8000b44 <BMP_ReadPressure>
 80015ce:	eef0 7a40 	vmov.f32	s15, s0
 80015d2:	4b24      	ldr	r3, [pc, #144]	@ (8001664 <updateData+0x114>)
 80015d4:	edc3 7a00 	vstr	s15, [r3]
	psi_w = pressure_to_sealevel_temp(psi, 240, tem);
 80015d8:	4b22      	ldr	r3, [pc, #136]	@ (8001664 <updateData+0x114>)
 80015da:	edd3 7a00 	vldr	s15, [r3]
 80015de:	4b1f      	ldr	r3, [pc, #124]	@ (800165c <updateData+0x10c>)
 80015e0:	ed93 7a00 	vldr	s14, [r3]
 80015e4:	eeb0 1a47 	vmov.f32	s2, s14
 80015e8:	eddf 0a1f 	vldr	s1, [pc, #124]	@ 8001668 <updateData+0x118>
 80015ec:	eeb0 0a67 	vmov.f32	s0, s15
 80015f0:	f7ff fd86 	bl	8001100 <pressure_to_sealevel_temp>
 80015f4:	eef0 7a40 	vmov.f32	s15, s0
 80015f8:	4b1c      	ldr	r3, [pc, #112]	@ (800166c <updateData+0x11c>)
 80015fa:	edc3 7a00 	vstr	s15, [r3]

	dustVoltage = ReadDustSensor();
 80015fe:	f7ff ff2b 	bl	8001458 <ReadDustSensor>
 8001602:	eef0 7a40 	vmov.f32	s15, s0
 8001606:	4b1a      	ldr	r3, [pc, #104]	@ (8001670 <updateData+0x120>)
 8001608:	edc3 7a00 	vstr	s15, [r3]
	dustDensity = VoltageToDustDensity(dustVoltage);
 800160c:	4b18      	ldr	r3, [pc, #96]	@ (8001670 <updateData+0x120>)
 800160e:	edd3 7a00 	vldr	s15, [r3]
 8001612:	eeb0 0a67 	vmov.f32	s0, s15
 8001616:	f7ff ff63 	bl	80014e0 <VoltageToDustDensity>
 800161a:	eef0 7a40 	vmov.f32	s15, s0
 800161e:	4b15      	ldr	r3, [pc, #84]	@ (8001674 <updateData+0x124>)
 8001620:	edc3 7a00 	vstr	s15, [r3]

	OLED_temp();
 8001624:	f000 fd34 	bl	8002090 <OLED_temp>
	OLED_pressure_Pa(psi_w, 0);
 8001628:	4b10      	ldr	r3, [pc, #64]	@ (800166c <updateData+0x11c>)
 800162a:	edd3 7a00 	vldr	s15, [r3]
 800162e:	2000      	movs	r0, #0
 8001630:	eeb0 0a67 	vmov.f32	s0, s15
 8001634:	f000 fde0 	bl	80021f8 <OLED_pressure_Pa>
	OLED_pressure_Pa(psi, 64);
 8001638:	4b0a      	ldr	r3, [pc, #40]	@ (8001664 <updateData+0x114>)
 800163a:	edd3 7a00 	vldr	s15, [r3]
 800163e:	2040      	movs	r0, #64	@ 0x40
 8001640:	eeb0 0a67 	vmov.f32	s0, s15
 8001644:	f000 fdd8 	bl	80021f8 <OLED_pressure_Pa>
	OLED_dust();
 8001648:	f000 fe86 	bl	8002358 <OLED_dust>
}
 800164c:	bf00      	nop
 800164e:	bd80      	pop	{r7, pc}
 8001650:	40020400 	.word	0x40020400
 8001654:	20000094 	.word	0x20000094
 8001658:	20000268 	.word	0x20000268
 800165c:	20000264 	.word	0x20000264
 8001660:	20000274 	.word	0x20000274
 8001664:	2000026c 	.word	0x2000026c
 8001668:	43700000 	.word	0x43700000
 800166c:	20000270 	.word	0x20000270
 8001670:	20000278 	.word	0x20000278
 8001674:	2000027c 	.word	0x2000027c

08001678 <init>:
void init()
{
 8001678:	b580      	push	{r7, lr}
 800167a:	b082      	sub	sp, #8
 800167c:	af00      	add	r7, sp, #0
	OLED_Init();
 800167e:	f000 fc25 	bl	8001ecc <OLED_Init>
	OLED_Clear();
 8001682:	f000 fc65 	bl	8001f50 <OLED_Clear>
	BMP_Init();
 8001686:	f7ff f9e3 	bl	8000a50 <BMP_Init>
	for(int i=0; i<5; i++)
 800168a:	2300      	movs	r3, #0
 800168c:	607b      	str	r3, [r7, #4]
 800168e:	e007      	b.n	80016a0 <init+0x28>
	   DHT11_Data[i]=0;
 8001690:	4a0c      	ldr	r2, [pc, #48]	@ (80016c4 <init+0x4c>)
 8001692:	687b      	ldr	r3, [r7, #4]
 8001694:	4413      	add	r3, r2
 8001696:	2200      	movs	r2, #0
 8001698:	701a      	strb	r2, [r3, #0]
	for(int i=0; i<5; i++)
 800169a:	687b      	ldr	r3, [r7, #4]
 800169c:	3301      	adds	r3, #1
 800169e:	607b      	str	r3, [r7, #4]
 80016a0:	687b      	ldr	r3, [r7, #4]
 80016a2:	2b04      	cmp	r3, #4
 80016a4:	ddf4      	ble.n	8001690 <init+0x18>
	HAL_GPIO_WritePin(GPIOB, GREEN_LED_Pin, GPIO_PIN_SET);
 80016a6:	2201      	movs	r2, #1
 80016a8:	2101      	movs	r1, #1
 80016aa:	4807      	ldr	r0, [pc, #28]	@ (80016c8 <init+0x50>)
 80016ac:	f002 f968 	bl	8003980 <HAL_GPIO_WritePin>
	HAL_Delay(2000); //dwie sekundy na rozruch
 80016b0:	f44f 60fa 	mov.w	r0, #2000	@ 0x7d0
 80016b4:	f001 f9c0 	bl	8002a38 <HAL_Delay>
	updateData();
 80016b8:	f7ff ff4a 	bl	8001550 <updateData>
}
 80016bc:	bf00      	nop
 80016be:	3708      	adds	r7, #8
 80016c0:	46bd      	mov	sp, r7
 80016c2:	bd80      	pop	{r7, pc}
 80016c4:	20000094 	.word	0x20000094
 80016c8:	40020400 	.word	0x40020400

080016cc <main>:
/**
  * @brief  The application entry point.
  * @retval int
  */
int main(void)
{
 80016cc:	b580      	push	{r7, lr}
 80016ce:	af00      	add	r7, sp, #0

  /* USER CODE BEGIN 1 */
  /* USER CODE END 1 */

  /* MPU Configuration--------------------------------------------------------*/
  MPU_Config();
 80016d0:	f000 fa8a 	bl	8001be8 <MPU_Config>

  /* MCU Configuration--------------------------------------------------------*/

  /* Reset of all peripherals, Initializes the Flash interface and the Systick. */
  HAL_Init();
 80016d4:	f001 f953 	bl	800297e <HAL_Init>
  /* USER CODE BEGIN Init */

  /* USER CODE END Init */

  /* Configure the system clock */
  SystemClock_Config();
 80016d8:	f000 f826 	bl	8001728 <SystemClock_Config>
  /* USER CODE BEGIN SysInit */

  /* USER CODE END SysInit */

  /* Initialize all configured peripherals */
  MX_GPIO_Init();
 80016dc:	f000 fa08 	bl	8001af0 <MX_GPIO_Init>
  MX_SPI1_Init();
 80016e0:	f000 f924 	bl	800192c <MX_SPI1_Init>
  MX_TIM1_Init();
 80016e4:	f000 f960 	bl	80019a8 <MX_TIM1_Init>
  MX_I2C1_Init();
 80016e8:	f000 f8e0 	bl	80018ac <MX_I2C1_Init>
  MX_ADC1_Init();
 80016ec:	f000 f88c 	bl	8001808 <MX_ADC1_Init>
  MX_TIM2_Init();
 80016f0:	f000 f9ae 	bl	8001a50 <MX_TIM2_Init>
  /* USER CODE BEGIN 2 */
  HAL_TIM_Base_Start(&htim1);
 80016f4:	4809      	ldr	r0, [pc, #36]	@ (800171c <main+0x50>)
 80016f6:	f004 fc99 	bl	800602c <HAL_TIM_Base_Start>
  HAL_TIM_Base_Start_IT(&htim2);
 80016fa:	4809      	ldr	r0, [pc, #36]	@ (8001720 <main+0x54>)
 80016fc:	f004 fd06 	bl	800610c <HAL_TIM_Base_Start_IT>
  init();
 8001700:	f7ff ffba 	bl	8001678 <init>
  while (1)
  {
    /* USER CODE END WHILE */

    /* USER CODE BEGIN 3 */
	  if (update_flag)
 8001704:	4b07      	ldr	r3, [pc, #28]	@ (8001724 <main+0x58>)
 8001706:	781b      	ldrb	r3, [r3, #0]
 8001708:	b2db      	uxtb	r3, r3
 800170a:	2b00      	cmp	r3, #0
 800170c:	d0fa      	beq.n	8001704 <main+0x38>
	  {
	  	update_flag = 0;
 800170e:	4b05      	ldr	r3, [pc, #20]	@ (8001724 <main+0x58>)
 8001710:	2200      	movs	r2, #0
 8001712:	701a      	strb	r2, [r3, #0]
	    updateData();
 8001714:	f7ff ff1c 	bl	8001550 <updateData>
	  if (update_flag)
 8001718:	e7f4      	b.n	8001704 <main+0x38>
 800171a:	bf00      	nop
 800171c:	200001cc 	.word	0x200001cc
 8001720:	20000218 	.word	0x20000218
 8001724:	20000280 	.word	0x20000280

08001728 <SystemClock_Config>:
/**
  * @brief System Clock Configuration
  * @retval None
  */
void SystemClock_Config(void)
{
 8001728:	b580      	push	{r7, lr}
 800172a:	b094      	sub	sp, #80	@ 0x50
 800172c:	af00      	add	r7, sp, #0
  RCC_OscInitTypeDef RCC_OscInitStruct = {0};
 800172e:	f107 031c 	add.w	r3, r7, #28
 8001732:	2234      	movs	r2, #52	@ 0x34
 8001734:	2100      	movs	r1, #0
 8001736:	4618      	mov	r0, r3
 8001738:	f005 f946 	bl	80069c8 <memset>
  RCC_ClkInitTypeDef RCC_ClkInitStruct = {0};
 800173c:	f107 0308 	add.w	r3, r7, #8
 8001740:	2200      	movs	r2, #0
 8001742:	601a      	str	r2, [r3, #0]
 8001744:	605a      	str	r2, [r3, #4]
 8001746:	609a      	str	r2, [r3, #8]
 8001748:	60da      	str	r2, [r3, #12]
 800174a:	611a      	str	r2, [r3, #16]

  /** Configure the main internal regulator output voltage
  */
  __HAL_RCC_PWR_CLK_ENABLE();
 800174c:	4b2c      	ldr	r3, [pc, #176]	@ (8001800 <SystemClock_Config+0xd8>)
 800174e:	6c1b      	ldr	r3, [r3, #64]	@ 0x40
 8001750:	4a2b      	ldr	r2, [pc, #172]	@ (8001800 <SystemClock_Config+0xd8>)
 8001752:	f043 5380 	orr.w	r3, r3, #268435456	@ 0x10000000
 8001756:	6413      	str	r3, [r2, #64]	@ 0x40
 8001758:	4b29      	ldr	r3, [pc, #164]	@ (8001800 <SystemClock_Config+0xd8>)
 800175a:	6c1b      	ldr	r3, [r3, #64]	@ 0x40
 800175c:	f003 5380 	and.w	r3, r3, #268435456	@ 0x10000000
 8001760:	607b      	str	r3, [r7, #4]
 8001762:	687b      	ldr	r3, [r7, #4]
  __HAL_PWR_VOLTAGESCALING_CONFIG(PWR_REGULATOR_VOLTAGE_SCALE3);
 8001764:	4b27      	ldr	r3, [pc, #156]	@ (8001804 <SystemClock_Config+0xdc>)
 8001766:	681b      	ldr	r3, [r3, #0]
 8001768:	f423 4340 	bic.w	r3, r3, #49152	@ 0xc000
 800176c:	4a25      	ldr	r2, [pc, #148]	@ (8001804 <SystemClock_Config+0xdc>)
 800176e:	f443 4380 	orr.w	r3, r3, #16384	@ 0x4000
 8001772:	6013      	str	r3, [r2, #0]
 8001774:	4b23      	ldr	r3, [pc, #140]	@ (8001804 <SystemClock_Config+0xdc>)
 8001776:	681b      	ldr	r3, [r3, #0]
 8001778:	f403 4340 	and.w	r3, r3, #49152	@ 0xc000
 800177c:	603b      	str	r3, [r7, #0]
 800177e:	683b      	ldr	r3, [r7, #0]

  /** Initializes the RCC Oscillators according to the specified parameters
  * in the RCC_OscInitTypeDef structure.
  */
  RCC_OscInitStruct.OscillatorType = RCC_OSCILLATORTYPE_HSI;
 8001780:	2302      	movs	r3, #2
 8001782:	61fb      	str	r3, [r7, #28]
  RCC_OscInitStruct.HSIState = RCC_HSI_ON;
 8001784:	2301      	movs	r3, #1
 8001786:	62bb      	str	r3, [r7, #40]	@ 0x28
  RCC_OscInitStruct.HSICalibrationValue = RCC_HSICALIBRATION_DEFAULT;
 8001788:	2310      	movs	r3, #16
 800178a:	62fb      	str	r3, [r7, #44]	@ 0x2c
  RCC_OscInitStruct.PLL.PLLState = RCC_PLL_ON;
 800178c:	2302      	movs	r3, #2
 800178e:	637b      	str	r3, [r7, #52]	@ 0x34
  RCC_OscInitStruct.PLL.PLLSource = RCC_PLLSOURCE_HSI;
 8001790:	2300      	movs	r3, #0
 8001792:	63bb      	str	r3, [r7, #56]	@ 0x38
  RCC_OscInitStruct.PLL.PLLM = 16;
 8001794:	2310      	movs	r3, #16
 8001796:	63fb      	str	r3, [r7, #60]	@ 0x3c
  RCC_OscInitStruct.PLL.PLLN = 192;
 8001798:	23c0      	movs	r3, #192	@ 0xc0
 800179a:	643b      	str	r3, [r7, #64]	@ 0x40
  RCC_OscInitStruct.PLL.PLLP = RCC_PLLP_DIV2;
 800179c:	2302      	movs	r3, #2
 800179e:	647b      	str	r3, [r7, #68]	@ 0x44
  RCC_OscInitStruct.PLL.PLLQ = 2;
 80017a0:	2302      	movs	r3, #2
 80017a2:	64bb      	str	r3, [r7, #72]	@ 0x48
  RCC_OscInitStruct.PLL.PLLR = 2;
 80017a4:	2302      	movs	r3, #2
 80017a6:	64fb      	str	r3, [r7, #76]	@ 0x4c
  if (HAL_RCC_OscConfig(&RCC_OscInitStruct) != HAL_OK)
 80017a8:	f107 031c 	add.w	r3, r7, #28
 80017ac:	4618      	mov	r0, r3
 80017ae:	f002 ffb3 	bl	8004718 <HAL_RCC_OscConfig>
 80017b2:	4603      	mov	r3, r0
 80017b4:	2b00      	cmp	r3, #0
 80017b6:	d001      	beq.n	80017bc <SystemClock_Config+0x94>
  {
    Error_Handler();
 80017b8:	f000 fa42 	bl	8001c40 <Error_Handler>
  }

  /** Activate the Over-Drive mode
  */
  if (HAL_PWREx_EnableOverDrive() != HAL_OK)
 80017bc:	f002 ff5c 	bl	8004678 <HAL_PWREx_EnableOverDrive>
 80017c0:	4603      	mov	r3, r0
 80017c2:	2b00      	cmp	r3, #0
 80017c4:	d001      	beq.n	80017ca <SystemClock_Config+0xa2>
  {
    Error_Handler();
 80017c6:	f000 fa3b 	bl	8001c40 <Error_Handler>
  }

  /** Initializes the CPU, AHB and APB buses clocks
  */
  RCC_ClkInitStruct.ClockType = RCC_CLOCKTYPE_HCLK|RCC_CLOCKTYPE_SYSCLK
 80017ca:	230f      	movs	r3, #15
 80017cc:	60bb      	str	r3, [r7, #8]
                              |RCC_CLOCKTYPE_PCLK1|RCC_CLOCKTYPE_PCLK2;
  RCC_ClkInitStruct.SYSCLKSource = RCC_SYSCLKSOURCE_PLLCLK;
 80017ce:	2302      	movs	r3, #2
 80017d0:	60fb      	str	r3, [r7, #12]
  RCC_ClkInitStruct.AHBCLKDivider = RCC_SYSCLK_DIV1;
 80017d2:	2300      	movs	r3, #0
 80017d4:	613b      	str	r3, [r7, #16]
  RCC_ClkInitStruct.APB1CLKDivider = RCC_HCLK_DIV2;
 80017d6:	f44f 5380 	mov.w	r3, #4096	@ 0x1000
 80017da:	617b      	str	r3, [r7, #20]
  RCC_ClkInitStruct.APB2CLKDivider = RCC_HCLK_DIV1;
 80017dc:	2300      	movs	r3, #0
 80017de:	61bb      	str	r3, [r7, #24]

  if (HAL_RCC_ClockConfig(&RCC_ClkInitStruct, FLASH_LATENCY_3) != HAL_OK)
 80017e0:	f107 0308 	add.w	r3, r7, #8
 80017e4:	2103      	movs	r1, #3
 80017e6:	4618      	mov	r0, r3
 80017e8:	f003 fa44 	bl	8004c74 <HAL_RCC_ClockConfig>
 80017ec:	4603      	mov	r3, r0
 80017ee:	2b00      	cmp	r3, #0
 80017f0:	d001      	beq.n	80017f6 <SystemClock_Config+0xce>
  {
    Error_Handler();
 80017f2:	f000 fa25 	bl	8001c40 <Error_Handler>
  }
}
 80017f6:	bf00      	nop
 80017f8:	3750      	adds	r7, #80	@ 0x50
 80017fa:	46bd      	mov	sp, r7
 80017fc:	bd80      	pop	{r7, pc}
 80017fe:	bf00      	nop
 8001800:	40023800 	.word	0x40023800
 8001804:	40007000 	.word	0x40007000

08001808 <MX_ADC1_Init>:
  * @brief ADC1 Initialization Function
  * @param None
  * @retval None
  */
static void MX_ADC1_Init(void)
{
 8001808:	b580      	push	{r7, lr}
 800180a:	b084      	sub	sp, #16
 800180c:	af00      	add	r7, sp, #0

  /* USER CODE BEGIN ADC1_Init 0 */

  /* USER CODE END ADC1_Init 0 */

  ADC_ChannelConfTypeDef sConfig = {0};
 800180e:	463b      	mov	r3, r7
 8001810:	2200      	movs	r2, #0
 8001812:	601a      	str	r2, [r3, #0]
 8001814:	605a      	str	r2, [r3, #4]
 8001816:	609a      	str	r2, [r3, #8]
 8001818:	60da      	str	r2, [r3, #12]

  /* USER CODE END ADC1_Init 1 */

  /** Configure the global features of the ADC (Clock, Resolution, Data Alignment and number of conversion)
  */
  hadc1.Instance = ADC1;
 800181a:	4b21      	ldr	r3, [pc, #132]	@ (80018a0 <MX_ADC1_Init+0x98>)
 800181c:	4a21      	ldr	r2, [pc, #132]	@ (80018a4 <MX_ADC1_Init+0x9c>)
 800181e:	601a      	str	r2, [r3, #0]
  hadc1.Init.ClockPrescaler = ADC_CLOCK_SYNC_PCLK_DIV4;
 8001820:	4b1f      	ldr	r3, [pc, #124]	@ (80018a0 <MX_ADC1_Init+0x98>)
 8001822:	f44f 3280 	mov.w	r2, #65536	@ 0x10000
 8001826:	605a      	str	r2, [r3, #4]
  hadc1.Init.Resolution = ADC_RESOLUTION_12B;
 8001828:	4b1d      	ldr	r3, [pc, #116]	@ (80018a0 <MX_ADC1_Init+0x98>)
 800182a:	2200      	movs	r2, #0
 800182c:	609a      	str	r2, [r3, #8]
  hadc1.Init.ScanConvMode = ADC_SCAN_DISABLE;
 800182e:	4b1c      	ldr	r3, [pc, #112]	@ (80018a0 <MX_ADC1_Init+0x98>)
 8001830:	2200      	movs	r2, #0
 8001832:	611a      	str	r2, [r3, #16]
  hadc1.Init.ContinuousConvMode = DISABLE;
 8001834:	4b1a      	ldr	r3, [pc, #104]	@ (80018a0 <MX_ADC1_Init+0x98>)
 8001836:	2200      	movs	r2, #0
 8001838:	619a      	str	r2, [r3, #24]
  hadc1.Init.DiscontinuousConvMode = DISABLE;
 800183a:	4b19      	ldr	r3, [pc, #100]	@ (80018a0 <MX_ADC1_Init+0x98>)
 800183c:	2200      	movs	r2, #0
 800183e:	f883 2020 	strb.w	r2, [r3, #32]
  hadc1.Init.ExternalTrigConvEdge = ADC_EXTERNALTRIGCONVEDGE_NONE;
 8001842:	4b17      	ldr	r3, [pc, #92]	@ (80018a0 <MX_ADC1_Init+0x98>)
 8001844:	2200      	movs	r2, #0
 8001846:	62da      	str	r2, [r3, #44]	@ 0x2c
  hadc1.Init.ExternalTrigConv = ADC_SOFTWARE_START;
 8001848:	4b15      	ldr	r3, [pc, #84]	@ (80018a0 <MX_ADC1_Init+0x98>)
 800184a:	4a17      	ldr	r2, [pc, #92]	@ (80018a8 <MX_ADC1_Init+0xa0>)
 800184c:	629a      	str	r2, [r3, #40]	@ 0x28
  hadc1.Init.DataAlign = ADC_DATAALIGN_RIGHT;
 800184e:	4b14      	ldr	r3, [pc, #80]	@ (80018a0 <MX_ADC1_Init+0x98>)
 8001850:	2200      	movs	r2, #0
 8001852:	60da      	str	r2, [r3, #12]
  hadc1.Init.NbrOfConversion = 1;
 8001854:	4b12      	ldr	r3, [pc, #72]	@ (80018a0 <MX_ADC1_Init+0x98>)
 8001856:	2201      	movs	r2, #1
 8001858:	61da      	str	r2, [r3, #28]
  hadc1.Init.DMAContinuousRequests = DISABLE;
 800185a:	4b11      	ldr	r3, [pc, #68]	@ (80018a0 <MX_ADC1_Init+0x98>)
 800185c:	2200      	movs	r2, #0
 800185e:	f883 2030 	strb.w	r2, [r3, #48]	@ 0x30
  hadc1.Init.EOCSelection = ADC_EOC_SINGLE_CONV;
 8001862:	4b0f      	ldr	r3, [pc, #60]	@ (80018a0 <MX_ADC1_Init+0x98>)
 8001864:	2201      	movs	r2, #1
 8001866:	615a      	str	r2, [r3, #20]
  if (HAL_ADC_Init(&hadc1) != HAL_OK)
 8001868:	480d      	ldr	r0, [pc, #52]	@ (80018a0 <MX_ADC1_Init+0x98>)
 800186a:	f001 f909 	bl	8002a80 <HAL_ADC_Init>
 800186e:	4603      	mov	r3, r0
 8001870:	2b00      	cmp	r3, #0
 8001872:	d001      	beq.n	8001878 <MX_ADC1_Init+0x70>
  {
    Error_Handler();
 8001874:	f000 f9e4 	bl	8001c40 <Error_Handler>
  }

  /** Configure for the selected ADC regular channel its corresponding rank in the sequencer and its sample time.
  */
  sConfig.Channel = ADC_CHANNEL_9;
 8001878:	2309      	movs	r3, #9
 800187a:	603b      	str	r3, [r7, #0]
  sConfig.Rank = ADC_REGULAR_RANK_1;
 800187c:	2301      	movs	r3, #1
 800187e:	607b      	str	r3, [r7, #4]
  sConfig.SamplingTime = ADC_SAMPLETIME_3CYCLES;
 8001880:	2300      	movs	r3, #0
 8001882:	60bb      	str	r3, [r7, #8]
  if (HAL_ADC_ConfigChannel(&hadc1, &sConfig) != HAL_OK)
 8001884:	463b      	mov	r3, r7
 8001886:	4619      	mov	r1, r3
 8001888:	4805      	ldr	r0, [pc, #20]	@ (80018a0 <MX_ADC1_Init+0x98>)
 800188a:	f001 fad7 	bl	8002e3c <HAL_ADC_ConfigChannel>
 800188e:	4603      	mov	r3, r0
 8001890:	2b00      	cmp	r3, #0
 8001892:	d001      	beq.n	8001898 <MX_ADC1_Init+0x90>
  {
    Error_Handler();
 8001894:	f000 f9d4 	bl	8001c40 <Error_Handler>
  }
  /* USER CODE BEGIN ADC1_Init 2 */

  /* USER CODE END ADC1_Init 2 */

}
 8001898:	bf00      	nop
 800189a:	3710      	adds	r7, #16
 800189c:	46bd      	mov	sp, r7
 800189e:	bd80      	pop	{r7, pc}
 80018a0:	200000cc 	.word	0x200000cc
 80018a4:	40012000 	.word	0x40012000
 80018a8:	0f000001 	.word	0x0f000001

080018ac <MX_I2C1_Init>:
  * @brief I2C1 Initialization Function
  * @param None
  * @retval None
  */
static void MX_I2C1_Init(void)
{
 80018ac:	b580      	push	{r7, lr}
 80018ae:	af00      	add	r7, sp, #0
  /* USER CODE END I2C1_Init 0 */

  /* USER CODE BEGIN I2C1_Init 1 */

  /* USER CODE END I2C1_Init 1 */
  hi2c1.Instance = I2C1;
 80018b0:	4b1b      	ldr	r3, [pc, #108]	@ (8001920 <MX_I2C1_Init+0x74>)
 80018b2:	4a1c      	ldr	r2, [pc, #112]	@ (8001924 <MX_I2C1_Init+0x78>)
 80018b4:	601a      	str	r2, [r3, #0]
  hi2c1.Init.Timing = 0x20303E5D;
 80018b6:	4b1a      	ldr	r3, [pc, #104]	@ (8001920 <MX_I2C1_Init+0x74>)
 80018b8:	4a1b      	ldr	r2, [pc, #108]	@ (8001928 <MX_I2C1_Init+0x7c>)
 80018ba:	605a      	str	r2, [r3, #4]
  hi2c1.Init.OwnAddress1 = 0;
 80018bc:	4b18      	ldr	r3, [pc, #96]	@ (8001920 <MX_I2C1_Init+0x74>)
 80018be:	2200      	movs	r2, #0
 80018c0:	609a      	str	r2, [r3, #8]
  hi2c1.Init.AddressingMode = I2C_ADDRESSINGMODE_7BIT;
 80018c2:	4b17      	ldr	r3, [pc, #92]	@ (8001920 <MX_I2C1_Init+0x74>)
 80018c4:	2201      	movs	r2, #1
 80018c6:	60da      	str	r2, [r3, #12]
  hi2c1.Init.DualAddressMode = I2C_DUALADDRESS_DISABLE;
 80018c8:	4b15      	ldr	r3, [pc, #84]	@ (8001920 <MX_I2C1_Init+0x74>)
 80018ca:	2200      	movs	r2, #0
 80018cc:	611a      	str	r2, [r3, #16]
  hi2c1.Init.OwnAddress2 = 0;
 80018ce:	4b14      	ldr	r3, [pc, #80]	@ (8001920 <MX_I2C1_Init+0x74>)
 80018d0:	2200      	movs	r2, #0
 80018d2:	615a      	str	r2, [r3, #20]
  hi2c1.Init.OwnAddress2Masks = I2C_OA2_NOMASK;
 80018d4:	4b12      	ldr	r3, [pc, #72]	@ (8001920 <MX_I2C1_Init+0x74>)
 80018d6:	2200      	movs	r2, #0
 80018d8:	619a      	str	r2, [r3, #24]
  hi2c1.Init.GeneralCallMode = I2C_GENERALCALL_DISABLE;
 80018da:	4b11      	ldr	r3, [pc, #68]	@ (8001920 <MX_I2C1_Init+0x74>)
 80018dc:	2200      	movs	r2, #0
 80018de:	61da      	str	r2, [r3, #28]
  hi2c1.Init.NoStretchMode = I2C_NOSTRETCH_DISABLE;
 80018e0:	4b0f      	ldr	r3, [pc, #60]	@ (8001920 <MX_I2C1_Init+0x74>)
 80018e2:	2200      	movs	r2, #0
 80018e4:	621a      	str	r2, [r3, #32]
  if (HAL_I2C_Init(&hi2c1) != HAL_OK)
 80018e6:	480e      	ldr	r0, [pc, #56]	@ (8001920 <MX_I2C1_Init+0x74>)
 80018e8:	f002 f8a2 	bl	8003a30 <HAL_I2C_Init>
 80018ec:	4603      	mov	r3, r0
 80018ee:	2b00      	cmp	r3, #0
 80018f0:	d001      	beq.n	80018f6 <MX_I2C1_Init+0x4a>
  {
    Error_Handler();
 80018f2:	f000 f9a5 	bl	8001c40 <Error_Handler>
  }

  /** Configure Analogue filter
  */
  if (HAL_I2CEx_ConfigAnalogFilter(&hi2c1, I2C_ANALOGFILTER_ENABLE) != HAL_OK)
 80018f6:	2100      	movs	r1, #0
 80018f8:	4809      	ldr	r0, [pc, #36]	@ (8001920 <MX_I2C1_Init+0x74>)
 80018fa:	f002 fe25 	bl	8004548 <HAL_I2CEx_ConfigAnalogFilter>
 80018fe:	4603      	mov	r3, r0
 8001900:	2b00      	cmp	r3, #0
 8001902:	d001      	beq.n	8001908 <MX_I2C1_Init+0x5c>
  {
    Error_Handler();
 8001904:	f000 f99c 	bl	8001c40 <Error_Handler>
  }

  /** Configure Digital filter
  */
  if (HAL_I2CEx_ConfigDigitalFilter(&hi2c1, 0) != HAL_OK)
 8001908:	2100      	movs	r1, #0
 800190a:	4805      	ldr	r0, [pc, #20]	@ (8001920 <MX_I2C1_Init+0x74>)
 800190c:	f002 fe67 	bl	80045de <HAL_I2CEx_ConfigDigitalFilter>
 8001910:	4603      	mov	r3, r0
 8001912:	2b00      	cmp	r3, #0
 8001914:	d001      	beq.n	800191a <MX_I2C1_Init+0x6e>
  {
    Error_Handler();
 8001916:	f000 f993 	bl	8001c40 <Error_Handler>
  }
  /* USER CODE BEGIN I2C1_Init 2 */

  /* USER CODE END I2C1_Init 2 */

}
 800191a:	bf00      	nop
 800191c:	bd80      	pop	{r7, pc}
 800191e:	bf00      	nop
 8001920:	20000114 	.word	0x20000114
 8001924:	40005400 	.word	0x40005400
 8001928:	20303e5d 	.word	0x20303e5d

0800192c <MX_SPI1_Init>:
  * @brief SPI1 Initialization Function
  * @param None
  * @retval None
  */
static void MX_SPI1_Init(void)
{
 800192c:	b580      	push	{r7, lr}
 800192e:	af00      	add	r7, sp, #0

  /* USER CODE BEGIN SPI1_Init 1 */

  /* USER CODE END SPI1_Init 1 */
  /* SPI1 parameter configuration*/
  hspi1.Instance = SPI1;
 8001930:	4b1b      	ldr	r3, [pc, #108]	@ (80019a0 <MX_SPI1_Init+0x74>)
 8001932:	4a1c      	ldr	r2, [pc, #112]	@ (80019a4 <MX_SPI1_Init+0x78>)
 8001934:	601a      	str	r2, [r3, #0]
  hspi1.Init.Mode = SPI_MODE_MASTER;
 8001936:	4b1a      	ldr	r3, [pc, #104]	@ (80019a0 <MX_SPI1_Init+0x74>)
 8001938:	f44f 7282 	mov.w	r2, #260	@ 0x104
 800193c:	605a      	str	r2, [r3, #4]
  hspi1.Init.Direction = SPI_DIRECTION_2LINES;
 800193e:	4b18      	ldr	r3, [pc, #96]	@ (80019a0 <MX_SPI1_Init+0x74>)
 8001940:	2200      	movs	r2, #0
 8001942:	609a      	str	r2, [r3, #8]
  hspi1.Init.DataSize = SPI_DATASIZE_8BIT;
 8001944:	4b16      	ldr	r3, [pc, #88]	@ (80019a0 <MX_SPI1_Init+0x74>)
 8001946:	f44f 62e0 	mov.w	r2, #1792	@ 0x700
 800194a:	60da      	str	r2, [r3, #12]
  hspi1.Init.CLKPolarity = SPI_POLARITY_LOW;
 800194c:	4b14      	ldr	r3, [pc, #80]	@ (80019a0 <MX_SPI1_Init+0x74>)
 800194e:	2200      	movs	r2, #0
 8001950:	611a      	str	r2, [r3, #16]
  hspi1.Init.CLKPhase = SPI_PHASE_1EDGE;
 8001952:	4b13      	ldr	r3, [pc, #76]	@ (80019a0 <MX_SPI1_Init+0x74>)
 8001954:	2200      	movs	r2, #0
 8001956:	615a      	str	r2, [r3, #20]
  hspi1.Init.NSS = SPI_NSS_SOFT;
 8001958:	4b11      	ldr	r3, [pc, #68]	@ (80019a0 <MX_SPI1_Init+0x74>)
 800195a:	f44f 7200 	mov.w	r2, #512	@ 0x200
 800195e:	619a      	str	r2, [r3, #24]
  hspi1.Init.BaudRatePrescaler = SPI_BAUDRATEPRESCALER_2;
 8001960:	4b0f      	ldr	r3, [pc, #60]	@ (80019a0 <MX_SPI1_Init+0x74>)
 8001962:	2200      	movs	r2, #0
 8001964:	61da      	str	r2, [r3, #28]
  hspi1.Init.FirstBit = SPI_FIRSTBIT_MSB;
 8001966:	4b0e      	ldr	r3, [pc, #56]	@ (80019a0 <MX_SPI1_Init+0x74>)
 8001968:	2200      	movs	r2, #0
 800196a:	621a      	str	r2, [r3, #32]
  hspi1.Init.TIMode = SPI_TIMODE_DISABLE;
 800196c:	4b0c      	ldr	r3, [pc, #48]	@ (80019a0 <MX_SPI1_Init+0x74>)
 800196e:	2200      	movs	r2, #0
 8001970:	625a      	str	r2, [r3, #36]	@ 0x24
  hspi1.Init.CRCCalculation = SPI_CRCCALCULATION_DISABLE;
 8001972:	4b0b      	ldr	r3, [pc, #44]	@ (80019a0 <MX_SPI1_Init+0x74>)
 8001974:	2200      	movs	r2, #0
 8001976:	629a      	str	r2, [r3, #40]	@ 0x28
  hspi1.Init.CRCPolynomial = 7;
 8001978:	4b09      	ldr	r3, [pc, #36]	@ (80019a0 <MX_SPI1_Init+0x74>)
 800197a:	2207      	movs	r2, #7
 800197c:	62da      	str	r2, [r3, #44]	@ 0x2c
  hspi1.Init.CRCLength = SPI_CRC_LENGTH_DATASIZE;
 800197e:	4b08      	ldr	r3, [pc, #32]	@ (80019a0 <MX_SPI1_Init+0x74>)
 8001980:	2200      	movs	r2, #0
 8001982:	631a      	str	r2, [r3, #48]	@ 0x30
  hspi1.Init.NSSPMode = SPI_NSS_PULSE_ENABLE;
 8001984:	4b06      	ldr	r3, [pc, #24]	@ (80019a0 <MX_SPI1_Init+0x74>)
 8001986:	2208      	movs	r2, #8
 8001988:	635a      	str	r2, [r3, #52]	@ 0x34
  if (HAL_SPI_Init(&hspi1) != HAL_OK)
 800198a:	4805      	ldr	r0, [pc, #20]	@ (80019a0 <MX_SPI1_Init+0x74>)
 800198c:	f003 ff4c 	bl	8005828 <HAL_SPI_Init>
 8001990:	4603      	mov	r3, r0
 8001992:	2b00      	cmp	r3, #0
 8001994:	d001      	beq.n	800199a <MX_SPI1_Init+0x6e>
  {
    Error_Handler();
 8001996:	f000 f953 	bl	8001c40 <Error_Handler>
  }
  /* USER CODE BEGIN SPI1_Init 2 */

  /* USER CODE END SPI1_Init 2 */

}
 800199a:	bf00      	nop
 800199c:	bd80      	pop	{r7, pc}
 800199e:	bf00      	nop
 80019a0:	20000168 	.word	0x20000168
 80019a4:	40013000 	.word	0x40013000

080019a8 <MX_TIM1_Init>:
  * @brief TIM1 Initialization Function
  * @param None
  * @retval None
  */
static void MX_TIM1_Init(void)
{
 80019a8:	b580      	push	{r7, lr}
 80019aa:	b088      	sub	sp, #32
 80019ac:	af00      	add	r7, sp, #0

  /* USER CODE BEGIN TIM1_Init 0 */

  /* USER CODE END TIM1_Init 0 */

  TIM_ClockConfigTypeDef sClockSourceConfig = {0};
 80019ae:	f107 0310 	add.w	r3, r7, #16
 80019b2:	2200      	movs	r2, #0
 80019b4:	601a      	str	r2, [r3, #0]
 80019b6:	605a      	str	r2, [r3, #4]
 80019b8:	609a      	str	r2, [r3, #8]
 80019ba:	60da      	str	r2, [r3, #12]
  TIM_MasterConfigTypeDef sMasterConfig = {0};
 80019bc:	1d3b      	adds	r3, r7, #4
 80019be:	2200      	movs	r2, #0
 80019c0:	601a      	str	r2, [r3, #0]
 80019c2:	605a      	str	r2, [r3, #4]
 80019c4:	609a      	str	r2, [r3, #8]

  /* USER CODE BEGIN TIM1_Init 1 */

  /* USER CODE END TIM1_Init 1 */
  htim1.Instance = TIM1;
 80019c6:	4b20      	ldr	r3, [pc, #128]	@ (8001a48 <MX_TIM1_Init+0xa0>)
 80019c8:	4a20      	ldr	r2, [pc, #128]	@ (8001a4c <MX_TIM1_Init+0xa4>)
 80019ca:	601a      	str	r2, [r3, #0]
  htim1.Init.Prescaler = 96-1;
 80019cc:	4b1e      	ldr	r3, [pc, #120]	@ (8001a48 <MX_TIM1_Init+0xa0>)
 80019ce:	225f      	movs	r2, #95	@ 0x5f
 80019d0:	605a      	str	r2, [r3, #4]
  htim1.Init.CounterMode = TIM_COUNTERMODE_UP;
 80019d2:	4b1d      	ldr	r3, [pc, #116]	@ (8001a48 <MX_TIM1_Init+0xa0>)
 80019d4:	2200      	movs	r2, #0
 80019d6:	609a      	str	r2, [r3, #8]
  htim1.Init.Period = 65535;
 80019d8:	4b1b      	ldr	r3, [pc, #108]	@ (8001a48 <MX_TIM1_Init+0xa0>)
 80019da:	f64f 72ff 	movw	r2, #65535	@ 0xffff
 80019de:	60da      	str	r2, [r3, #12]
  htim1.Init.ClockDivision = TIM_CLOCKDIVISION_DIV1;
 80019e0:	4b19      	ldr	r3, [pc, #100]	@ (8001a48 <MX_TIM1_Init+0xa0>)
 80019e2:	2200      	movs	r2, #0
 80019e4:	611a      	str	r2, [r3, #16]
  htim1.Init.RepetitionCounter = 0;
 80019e6:	4b18      	ldr	r3, [pc, #96]	@ (8001a48 <MX_TIM1_Init+0xa0>)
 80019e8:	2200      	movs	r2, #0
 80019ea:	615a      	str	r2, [r3, #20]
  htim1.Init.AutoReloadPreload = TIM_AUTORELOAD_PRELOAD_DISABLE;
 80019ec:	4b16      	ldr	r3, [pc, #88]	@ (8001a48 <MX_TIM1_Init+0xa0>)
 80019ee:	2200      	movs	r2, #0
 80019f0:	619a      	str	r2, [r3, #24]
  if (HAL_TIM_Base_Init(&htim1) != HAL_OK)
 80019f2:	4815      	ldr	r0, [pc, #84]	@ (8001a48 <MX_TIM1_Init+0xa0>)
 80019f4:	f004 fac2 	bl	8005f7c <HAL_TIM_Base_Init>
 80019f8:	4603      	mov	r3, r0
 80019fa:	2b00      	cmp	r3, #0
 80019fc:	d001      	beq.n	8001a02 <MX_TIM1_Init+0x5a>
  {
    Error_Handler();
 80019fe:	f000 f91f 	bl	8001c40 <Error_Handler>
  }
  sClockSourceConfig.ClockSource = TIM_CLOCKSOURCE_INTERNAL;
 8001a02:	f44f 5380 	mov.w	r3, #4096	@ 0x1000
 8001a06:	613b      	str	r3, [r7, #16]
  if (HAL_TIM_ConfigClockSource(&htim1, &sClockSourceConfig) != HAL_OK)
 8001a08:	f107 0310 	add.w	r3, r7, #16
 8001a0c:	4619      	mov	r1, r3
 8001a0e:	480e      	ldr	r0, [pc, #56]	@ (8001a48 <MX_TIM1_Init+0xa0>)
 8001a10:	f004 fcfc 	bl	800640c <HAL_TIM_ConfigClockSource>
 8001a14:	4603      	mov	r3, r0
 8001a16:	2b00      	cmp	r3, #0
 8001a18:	d001      	beq.n	8001a1e <MX_TIM1_Init+0x76>
  {
    Error_Handler();
 8001a1a:	f000 f911 	bl	8001c40 <Error_Handler>
  }
  sMasterConfig.MasterOutputTrigger = TIM_TRGO_RESET;
 8001a1e:	2300      	movs	r3, #0
 8001a20:	607b      	str	r3, [r7, #4]
  sMasterConfig.MasterOutputTrigger2 = TIM_TRGO2_RESET;
 8001a22:	2300      	movs	r3, #0
 8001a24:	60bb      	str	r3, [r7, #8]
  sMasterConfig.MasterSlaveMode = TIM_MASTERSLAVEMODE_DISABLE;
 8001a26:	2300      	movs	r3, #0
 8001a28:	60fb      	str	r3, [r7, #12]
  if (HAL_TIMEx_MasterConfigSynchronization(&htim1, &sMasterConfig) != HAL_OK)
 8001a2a:	1d3b      	adds	r3, r7, #4
 8001a2c:	4619      	mov	r1, r3
 8001a2e:	4806      	ldr	r0, [pc, #24]	@ (8001a48 <MX_TIM1_Init+0xa0>)
 8001a30:	f004 ff1e 	bl	8006870 <HAL_TIMEx_MasterConfigSynchronization>
 8001a34:	4603      	mov	r3, r0
 8001a36:	2b00      	cmp	r3, #0
 8001a38:	d001      	beq.n	8001a3e <MX_TIM1_Init+0x96>
  {
    Error_Handler();
 8001a3a:	f000 f901 	bl	8001c40 <Error_Handler>
  }
  /* USER CODE BEGIN TIM1_Init 2 */

  /* USER CODE END TIM1_Init 2 */

}
 8001a3e:	bf00      	nop
 8001a40:	3720      	adds	r7, #32
 8001a42:	46bd      	mov	sp, r7
 8001a44:	bd80      	pop	{r7, pc}
 8001a46:	bf00      	nop
 8001a48:	200001cc 	.word	0x200001cc
 8001a4c:	40010000 	.word	0x40010000

08001a50 <MX_TIM2_Init>:
  * @brief TIM2 Initialization Function
  * @param None
  * @retval None
  */
static void MX_TIM2_Init(void)
{
 8001a50:	b580      	push	{r7, lr}
 8001a52:	b088      	sub	sp, #32
 8001a54:	af00      	add	r7, sp, #0

  /* USER CODE BEGIN TIM2_Init 0 */

  /* USER CODE END TIM2_Init 0 */

  TIM_ClockConfigTypeDef sClockSourceConfig = {0};
 8001a56:	f107 0310 	add.w	r3, r7, #16
 8001a5a:	2200      	movs	r2, #0
 8001a5c:	601a      	str	r2, [r3, #0]
 8001a5e:	605a      	str	r2, [r3, #4]
 8001a60:	609a      	str	r2, [r3, #8]
 8001a62:	60da      	str	r2, [r3, #12]
  TIM_MasterConfigTypeDef sMasterConfig = {0};
 8001a64:	1d3b      	adds	r3, r7, #4
 8001a66:	2200      	movs	r2, #0
 8001a68:	601a      	str	r2, [r3, #0]
 8001a6a:	605a      	str	r2, [r3, #4]
 8001a6c:	609a      	str	r2, [r3, #8]

  /* USER CODE BEGIN TIM2_Init 1 */

  /* USER CODE END TIM2_Init 1 */
  htim2.Instance = TIM2;
 8001a6e:	4b1e      	ldr	r3, [pc, #120]	@ (8001ae8 <MX_TIM2_Init+0x98>)
 8001a70:	f04f 4280 	mov.w	r2, #1073741824	@ 0x40000000
 8001a74:	601a      	str	r2, [r3, #0]
  htim2.Init.Prescaler = 9600-1;
 8001a76:	4b1c      	ldr	r3, [pc, #112]	@ (8001ae8 <MX_TIM2_Init+0x98>)
 8001a78:	f242 527f 	movw	r2, #9599	@ 0x257f
 8001a7c:	605a      	str	r2, [r3, #4]
  htim2.Init.CounterMode = TIM_COUNTERMODE_UP;
 8001a7e:	4b1a      	ldr	r3, [pc, #104]	@ (8001ae8 <MX_TIM2_Init+0x98>)
 8001a80:	2200      	movs	r2, #0
 8001a82:	609a      	str	r2, [r3, #8]
  htim2.Init.Period = 100000-1;
 8001a84:	4b18      	ldr	r3, [pc, #96]	@ (8001ae8 <MX_TIM2_Init+0x98>)
 8001a86:	4a19      	ldr	r2, [pc, #100]	@ (8001aec <MX_TIM2_Init+0x9c>)
 8001a88:	60da      	str	r2, [r3, #12]
  htim2.Init.ClockDivision = TIM_CLOCKDIVISION_DIV1;
 8001a8a:	4b17      	ldr	r3, [pc, #92]	@ (8001ae8 <MX_TIM2_Init+0x98>)
 8001a8c:	2200      	movs	r2, #0
 8001a8e:	611a      	str	r2, [r3, #16]
  htim2.Init.AutoReloadPreload = TIM_AUTORELOAD_PRELOAD_DISABLE;
 8001a90:	4b15      	ldr	r3, [pc, #84]	@ (8001ae8 <MX_TIM2_Init+0x98>)
 8001a92:	2200      	movs	r2, #0
 8001a94:	619a      	str	r2, [r3, #24]
  if (HAL_TIM_Base_Init(&htim2) != HAL_OK)
 8001a96:	4814      	ldr	r0, [pc, #80]	@ (8001ae8 <MX_TIM2_Init+0x98>)
 8001a98:	f004 fa70 	bl	8005f7c <HAL_TIM_Base_Init>
 8001a9c:	4603      	mov	r3, r0
 8001a9e:	2b00      	cmp	r3, #0
 8001aa0:	d001      	beq.n	8001aa6 <MX_TIM2_Init+0x56>
  {
    Error_Handler();
 8001aa2:	f000 f8cd 	bl	8001c40 <Error_Handler>
  }
  sClockSourceConfig.ClockSource = TIM_CLOCKSOURCE_INTERNAL;
 8001aa6:	f44f 5380 	mov.w	r3, #4096	@ 0x1000
 8001aaa:	613b      	str	r3, [r7, #16]
  if (HAL_TIM_ConfigClockSource(&htim2, &sClockSourceConfig) != HAL_OK)
 8001aac:	f107 0310 	add.w	r3, r7, #16
 8001ab0:	4619      	mov	r1, r3
 8001ab2:	480d      	ldr	r0, [pc, #52]	@ (8001ae8 <MX_TIM2_Init+0x98>)
 8001ab4:	f004 fcaa 	bl	800640c <HAL_TIM_ConfigClockSource>
 8001ab8:	4603      	mov	r3, r0
 8001aba:	2b00      	cmp	r3, #0
 8001abc:	d001      	beq.n	8001ac2 <MX_TIM2_Init+0x72>
  {
    Error_Handler();
 8001abe:	f000 f8bf 	bl	8001c40 <Error_Handler>
  }
  sMasterConfig.MasterOutputTrigger = TIM_TRGO_RESET;
 8001ac2:	2300      	movs	r3, #0
 8001ac4:	607b      	str	r3, [r7, #4]
  sMasterConfig.MasterSlaveMode = TIM_MASTERSLAVEMODE_DISABLE;
 8001ac6:	2300      	movs	r3, #0
 8001ac8:	60fb      	str	r3, [r7, #12]
  if (HAL_TIMEx_MasterConfigSynchronization(&htim2, &sMasterConfig) != HAL_OK)
 8001aca:	1d3b      	adds	r3, r7, #4
 8001acc:	4619      	mov	r1, r3
 8001ace:	4806      	ldr	r0, [pc, #24]	@ (8001ae8 <MX_TIM2_Init+0x98>)
 8001ad0:	f004 fece 	bl	8006870 <HAL_TIMEx_MasterConfigSynchronization>
 8001ad4:	4603      	mov	r3, r0
 8001ad6:	2b00      	cmp	r3, #0
 8001ad8:	d001      	beq.n	8001ade <MX_TIM2_Init+0x8e>
  {
    Error_Handler();
 8001ada:	f000 f8b1 	bl	8001c40 <Error_Handler>
  }
  /* USER CODE BEGIN TIM2_Init 2 */

  /* USER CODE END TIM2_Init 2 */

}
 8001ade:	bf00      	nop
 8001ae0:	3720      	adds	r7, #32
 8001ae2:	46bd      	mov	sp, r7
 8001ae4:	bd80      	pop	{r7, pc}
 8001ae6:	bf00      	nop
 8001ae8:	20000218 	.word	0x20000218
 8001aec:	0001869f 	.word	0x0001869f

08001af0 <MX_GPIO_Init>:
  * @brief GPIO Initialization Function
  * @param None
  * @retval None
  */
static void MX_GPIO_Init(void)
{
 8001af0:	b580      	push	{r7, lr}
 8001af2:	b088      	sub	sp, #32
 8001af4:	af00      	add	r7, sp, #0
  GPIO_InitTypeDef GPIO_InitStruct = {0};
 8001af6:	f107 030c 	add.w	r3, r7, #12
 8001afa:	2200      	movs	r2, #0
 8001afc:	601a      	str	r2, [r3, #0]
 8001afe:	605a      	str	r2, [r3, #4]
 8001b00:	609a      	str	r2, [r3, #8]
 8001b02:	60da      	str	r2, [r3, #12]
 8001b04:	611a      	str	r2, [r3, #16]
  /* USER CODE BEGIN MX_GPIO_Init_1 */

  /* USER CODE END MX_GPIO_Init_1 */

  /* GPIO Ports Clock Enable */
  __HAL_RCC_GPIOC_CLK_ENABLE();
 8001b06:	4b34      	ldr	r3, [pc, #208]	@ (8001bd8 <MX_GPIO_Init+0xe8>)
 8001b08:	6b1b      	ldr	r3, [r3, #48]	@ 0x30
 8001b0a:	4a33      	ldr	r2, [pc, #204]	@ (8001bd8 <MX_GPIO_Init+0xe8>)
 8001b0c:	f043 0304 	orr.w	r3, r3, #4
 8001b10:	6313      	str	r3, [r2, #48]	@ 0x30
 8001b12:	4b31      	ldr	r3, [pc, #196]	@ (8001bd8 <MX_GPIO_Init+0xe8>)
 8001b14:	6b1b      	ldr	r3, [r3, #48]	@ 0x30
 8001b16:	f003 0304 	and.w	r3, r3, #4
 8001b1a:	60bb      	str	r3, [r7, #8]
 8001b1c:	68bb      	ldr	r3, [r7, #8]
  __HAL_RCC_GPIOA_CLK_ENABLE();
 8001b1e:	4b2e      	ldr	r3, [pc, #184]	@ (8001bd8 <MX_GPIO_Init+0xe8>)
 8001b20:	6b1b      	ldr	r3, [r3, #48]	@ 0x30
 8001b22:	4a2d      	ldr	r2, [pc, #180]	@ (8001bd8 <MX_GPIO_Init+0xe8>)
 8001b24:	f043 0301 	orr.w	r3, r3, #1
 8001b28:	6313      	str	r3, [r2, #48]	@ 0x30
 8001b2a:	4b2b      	ldr	r3, [pc, #172]	@ (8001bd8 <MX_GPIO_Init+0xe8>)
 8001b2c:	6b1b      	ldr	r3, [r3, #48]	@ 0x30
 8001b2e:	f003 0301 	and.w	r3, r3, #1
 8001b32:	607b      	str	r3, [r7, #4]
 8001b34:	687b      	ldr	r3, [r7, #4]
  __HAL_RCC_GPIOB_CLK_ENABLE();
 8001b36:	4b28      	ldr	r3, [pc, #160]	@ (8001bd8 <MX_GPIO_Init+0xe8>)
 8001b38:	6b1b      	ldr	r3, [r3, #48]	@ 0x30
 8001b3a:	4a27      	ldr	r2, [pc, #156]	@ (8001bd8 <MX_GPIO_Init+0xe8>)
 8001b3c:	f043 0302 	orr.w	r3, r3, #2
 8001b40:	6313      	str	r3, [r2, #48]	@ 0x30
 8001b42:	4b25      	ldr	r3, [pc, #148]	@ (8001bd8 <MX_GPIO_Init+0xe8>)
 8001b44:	6b1b      	ldr	r3, [r3, #48]	@ 0x30
 8001b46:	f003 0302 	and.w	r3, r3, #2
 8001b4a:	603b      	str	r3, [r7, #0]
 8001b4c:	683b      	ldr	r3, [r7, #0]

  /*Configure GPIO pin Output Level */
  HAL_GPIO_WritePin(GPIOA, DHT11_Pin|GP_DIODE_Pin|OLED_DC_Pin|OLED_RES_Pin, GPIO_PIN_RESET);
 8001b4e:	2200      	movs	r2, #0
 8001b50:	f240 3111 	movw	r1, #785	@ 0x311
 8001b54:	4821      	ldr	r0, [pc, #132]	@ (8001bdc <MX_GPIO_Init+0xec>)
 8001b56:	f001 ff13 	bl	8003980 <HAL_GPIO_WritePin>

  /*Configure GPIO pin Output Level */
  HAL_GPIO_WritePin(GPIOB, GREEN_LED_Pin|Red_LED_Pin|OLED_CS_Pin, GPIO_PIN_RESET);
 8001b5a:	2200      	movs	r2, #0
 8001b5c:	f244 0141 	movw	r1, #16449	@ 0x4041
 8001b60:	481f      	ldr	r0, [pc, #124]	@ (8001be0 <MX_GPIO_Init+0xf0>)
 8001b62:	f001 ff0d 	bl	8003980 <HAL_GPIO_WritePin>

  /*Configure GPIO pin : PC13 */
  GPIO_InitStruct.Pin = GPIO_PIN_13;
 8001b66:	f44f 5300 	mov.w	r3, #8192	@ 0x2000
 8001b6a:	60fb      	str	r3, [r7, #12]
  GPIO_InitStruct.Mode = GPIO_MODE_IT_RISING;
 8001b6c:	f44f 1388 	mov.w	r3, #1114112	@ 0x110000
 8001b70:	613b      	str	r3, [r7, #16]
  GPIO_InitStruct.Pull = GPIO_NOPULL;
 8001b72:	2300      	movs	r3, #0
 8001b74:	617b      	str	r3, [r7, #20]
  HAL_GPIO_Init(GPIOC, &GPIO_InitStruct);
 8001b76:	f107 030c 	add.w	r3, r7, #12
 8001b7a:	4619      	mov	r1, r3
 8001b7c:	4819      	ldr	r0, [pc, #100]	@ (8001be4 <MX_GPIO_Init+0xf4>)
 8001b7e:	f001 fd3b 	bl	80035f8 <HAL_GPIO_Init>

  /*Configure GPIO pins : DHT11_Pin GP_DIODE_Pin OLED_DC_Pin OLED_RES_Pin */
  GPIO_InitStruct.Pin = DHT11_Pin|GP_DIODE_Pin|OLED_DC_Pin|OLED_RES_Pin;
 8001b82:	f240 3311 	movw	r3, #785	@ 0x311
 8001b86:	60fb      	str	r3, [r7, #12]
  GPIO_InitStruct.Mode = GPIO_MODE_OUTPUT_PP;
 8001b88:	2301      	movs	r3, #1
 8001b8a:	613b      	str	r3, [r7, #16]
  GPIO_InitStruct.Pull = GPIO_NOPULL;
 8001b8c:	2300      	movs	r3, #0
 8001b8e:	617b      	str	r3, [r7, #20]
  GPIO_InitStruct.Speed = GPIO_SPEED_FREQ_LOW;
 8001b90:	2300      	movs	r3, #0
 8001b92:	61bb      	str	r3, [r7, #24]
  HAL_GPIO_Init(GPIOA, &GPIO_InitStruct);
 8001b94:	f107 030c 	add.w	r3, r7, #12
 8001b98:	4619      	mov	r1, r3
 8001b9a:	4810      	ldr	r0, [pc, #64]	@ (8001bdc <MX_GPIO_Init+0xec>)
 8001b9c:	f001 fd2c 	bl	80035f8 <HAL_GPIO_Init>

  /*Configure GPIO pins : GREEN_LED_Pin Red_LED_Pin OLED_CS_Pin */
  GPIO_InitStruct.Pin = GREEN_LED_Pin|Red_LED_Pin|OLED_CS_Pin;
 8001ba0:	f244 0341 	movw	r3, #16449	@ 0x4041
 8001ba4:	60fb      	str	r3, [r7, #12]
  GPIO_InitStruct.Mode = GPIO_MODE_OUTPUT_PP;
 8001ba6:	2301      	movs	r3, #1
 8001ba8:	613b      	str	r3, [r7, #16]
  GPIO_InitStruct.Pull = GPIO_NOPULL;
 8001baa:	2300      	movs	r3, #0
 8001bac:	617b      	str	r3, [r7, #20]
  GPIO_InitStruct.Speed = GPIO_SPEED_FREQ_LOW;
 8001bae:	2300      	movs	r3, #0
 8001bb0:	61bb      	str	r3, [r7, #24]
  HAL_GPIO_Init(GPIOB, &GPIO_InitStruct);
 8001bb2:	f107 030c 	add.w	r3, r7, #12
 8001bb6:	4619      	mov	r1, r3
 8001bb8:	4809      	ldr	r0, [pc, #36]	@ (8001be0 <MX_GPIO_Init+0xf0>)
 8001bba:	f001 fd1d 	bl	80035f8 <HAL_GPIO_Init>

  /* EXTI interrupt init*/
  HAL_NVIC_SetPriority(EXTI15_10_IRQn, 0, 0);
 8001bbe:	2200      	movs	r2, #0
 8001bc0:	2100      	movs	r1, #0
 8001bc2:	2028      	movs	r0, #40	@ 0x28
 8001bc4:	f001 fc69 	bl	800349a <HAL_NVIC_SetPriority>
  HAL_NVIC_EnableIRQ(EXTI15_10_IRQn);
 8001bc8:	2028      	movs	r0, #40	@ 0x28
 8001bca:	f001 fc82 	bl	80034d2 <HAL_NVIC_EnableIRQ>

  /* USER CODE BEGIN MX_GPIO_Init_2 */

  /* USER CODE END MX_GPIO_Init_2 */
}
 8001bce:	bf00      	nop
 8001bd0:	3720      	adds	r7, #32
 8001bd2:	46bd      	mov	sp, r7
 8001bd4:	bd80      	pop	{r7, pc}
 8001bd6:	bf00      	nop
 8001bd8:	40023800 	.word	0x40023800
 8001bdc:	40020000 	.word	0x40020000
 8001be0:	40020400 	.word	0x40020400
 8001be4:	40020800 	.word	0x40020800

08001be8 <MPU_Config>:
/* USER CODE END 4 */

 /* MPU Configuration */

void MPU_Config(void)
{
 8001be8:	b580      	push	{r7, lr}
 8001bea:	b084      	sub	sp, #16
 8001bec:	af00      	add	r7, sp, #0
  MPU_Region_InitTypeDef MPU_InitStruct = {0};
 8001bee:	463b      	mov	r3, r7
 8001bf0:	2200      	movs	r2, #0
 8001bf2:	601a      	str	r2, [r3, #0]
 8001bf4:	605a      	str	r2, [r3, #4]
 8001bf6:	609a      	str	r2, [r3, #8]
 8001bf8:	60da      	str	r2, [r3, #12]

  /* Disables the MPU */
  HAL_MPU_Disable();
 8001bfa:	f001 fc85 	bl	8003508 <HAL_MPU_Disable>

  /** Initializes and configures the Region and the memory to be protected
  */
  MPU_InitStruct.Enable = MPU_REGION_ENABLE;
 8001bfe:	2301      	movs	r3, #1
 8001c00:	703b      	strb	r3, [r7, #0]
  MPU_InitStruct.Number = MPU_REGION_NUMBER0;
 8001c02:	2300      	movs	r3, #0
 8001c04:	707b      	strb	r3, [r7, #1]
  MPU_InitStruct.BaseAddress = 0x0;
 8001c06:	2300      	movs	r3, #0
 8001c08:	607b      	str	r3, [r7, #4]
  MPU_InitStruct.Size = MPU_REGION_SIZE_4GB;
 8001c0a:	231f      	movs	r3, #31
 8001c0c:	723b      	strb	r3, [r7, #8]
  MPU_InitStruct.SubRegionDisable = 0x87;
 8001c0e:	2387      	movs	r3, #135	@ 0x87
 8001c10:	727b      	strb	r3, [r7, #9]
  MPU_InitStruct.TypeExtField = MPU_TEX_LEVEL0;
 8001c12:	2300      	movs	r3, #0
 8001c14:	72bb      	strb	r3, [r7, #10]
  MPU_InitStruct.AccessPermission = MPU_REGION_NO_ACCESS;
 8001c16:	2300      	movs	r3, #0
 8001c18:	72fb      	strb	r3, [r7, #11]
  MPU_InitStruct.DisableExec = MPU_INSTRUCTION_ACCESS_DISABLE;
 8001c1a:	2301      	movs	r3, #1
 8001c1c:	733b      	strb	r3, [r7, #12]
  MPU_InitStruct.IsShareable = MPU_ACCESS_SHAREABLE;
 8001c1e:	2301      	movs	r3, #1
 8001c20:	737b      	strb	r3, [r7, #13]
  MPU_InitStruct.IsCacheable = MPU_ACCESS_NOT_CACHEABLE;
 8001c22:	2300      	movs	r3, #0
 8001c24:	73bb      	strb	r3, [r7, #14]
  MPU_InitStruct.IsBufferable = MPU_ACCESS_NOT_BUFFERABLE;
 8001c26:	2300      	movs	r3, #0
 8001c28:	73fb      	strb	r3, [r7, #15]

  HAL_MPU_ConfigRegion(&MPU_InitStruct);
 8001c2a:	463b      	mov	r3, r7
 8001c2c:	4618      	mov	r0, r3
 8001c2e:	f001 fca3 	bl	8003578 <HAL_MPU_ConfigRegion>
  /* Enables the MPU */
  HAL_MPU_Enable(MPU_PRIVILEGED_DEFAULT);
 8001c32:	2004      	movs	r0, #4
 8001c34:	f001 fc80 	bl	8003538 <HAL_MPU_Enable>

}
 8001c38:	bf00      	nop
 8001c3a:	3710      	adds	r7, #16
 8001c3c:	46bd      	mov	sp, r7
 8001c3e:	bd80      	pop	{r7, pc}

08001c40 <Error_Handler>:
/**
  * @brief  This function is executed in case of error occurrence.
  * @retval None
  */
void Error_Handler(void)
{
 8001c40:	b480      	push	{r7}
 8001c42:	af00      	add	r7, sp, #0
  \details Disables IRQ interrupts by setting the I-bit in the CPSR.
           Can only be executed in Privileged modes.
 */
__STATIC_FORCEINLINE void __disable_irq(void)
{
  __ASM volatile ("cpsid i" : : : "memory");
 8001c44:	b672      	cpsid	i
}
 8001c46:	bf00      	nop
  /* USER CODE BEGIN Error_Handler_Debug */
  /* User can add his own implementation to report the HAL error return state */
  __disable_irq();
  while (1)
 8001c48:	bf00      	nop
 8001c4a:	e7fd      	b.n	8001c48 <Error_Handler+0x8>

08001c4c <OLED_CS>:
static const char* GetAirQualityText(float pm25);

/* Private functions */

static void OLED_CS(uint8_t state)
{
 8001c4c:	b580      	push	{r7, lr}
 8001c4e:	b082      	sub	sp, #8
 8001c50:	af00      	add	r7, sp, #0
 8001c52:	4603      	mov	r3, r0
 8001c54:	71fb      	strb	r3, [r7, #7]
    HAL_GPIO_WritePin(OLED_CS_GPIO_Port, OLED_CS_Pin, state ? GPIO_PIN_SET : GPIO_PIN_RESET);
 8001c56:	79fb      	ldrb	r3, [r7, #7]
 8001c58:	2b00      	cmp	r3, #0
 8001c5a:	bf14      	ite	ne
 8001c5c:	2301      	movne	r3, #1
 8001c5e:	2300      	moveq	r3, #0
 8001c60:	b2db      	uxtb	r3, r3
 8001c62:	461a      	mov	r2, r3
 8001c64:	2140      	movs	r1, #64	@ 0x40
 8001c66:	4803      	ldr	r0, [pc, #12]	@ (8001c74 <OLED_CS+0x28>)
 8001c68:	f001 fe8a 	bl	8003980 <HAL_GPIO_WritePin>
}
 8001c6c:	bf00      	nop
 8001c6e:	3708      	adds	r7, #8
 8001c70:	46bd      	mov	sp, r7
 8001c72:	bd80      	pop	{r7, pc}
 8001c74:	40020400 	.word	0x40020400

08001c78 <OLED_DC>:

static void OLED_DC(uint8_t state)
{
 8001c78:	b580      	push	{r7, lr}
 8001c7a:	b082      	sub	sp, #8
 8001c7c:	af00      	add	r7, sp, #0
 8001c7e:	4603      	mov	r3, r0
 8001c80:	71fb      	strb	r3, [r7, #7]
    HAL_GPIO_WritePin(OLED_DC_GPIO_Port, OLED_DC_Pin, state ? GPIO_PIN_SET : GPIO_PIN_RESET);
 8001c82:	79fb      	ldrb	r3, [r7, #7]
 8001c84:	2b00      	cmp	r3, #0
 8001c86:	bf14      	ite	ne
 8001c88:	2301      	movne	r3, #1
 8001c8a:	2300      	moveq	r3, #0
 8001c8c:	b2db      	uxtb	r3, r3
 8001c8e:	461a      	mov	r2, r3
 8001c90:	f44f 7180 	mov.w	r1, #256	@ 0x100
 8001c94:	4803      	ldr	r0, [pc, #12]	@ (8001ca4 <OLED_DC+0x2c>)
 8001c96:	f001 fe73 	bl	8003980 <HAL_GPIO_WritePin>
}
 8001c9a:	bf00      	nop
 8001c9c:	3708      	adds	r7, #8
 8001c9e:	46bd      	mov	sp, r7
 8001ca0:	bd80      	pop	{r7, pc}
 8001ca2:	bf00      	nop
 8001ca4:	40020000 	.word	0x40020000

08001ca8 <OLED_RESET>:

static void OLED_RESET(void)
{
 8001ca8:	b580      	push	{r7, lr}
 8001caa:	af00      	add	r7, sp, #0
    HAL_GPIO_WritePin(OLED_RES_GPIO_Port, OLED_RES_Pin, GPIO_PIN_RESET);
 8001cac:	2200      	movs	r2, #0
 8001cae:	f44f 7100 	mov.w	r1, #512	@ 0x200
 8001cb2:	4808      	ldr	r0, [pc, #32]	@ (8001cd4 <OLED_RESET+0x2c>)
 8001cb4:	f001 fe64 	bl	8003980 <HAL_GPIO_WritePin>
    HAL_Delay(10);
 8001cb8:	200a      	movs	r0, #10
 8001cba:	f000 febd 	bl	8002a38 <HAL_Delay>
    HAL_GPIO_WritePin(OLED_RES_GPIO_Port, OLED_RES_Pin, GPIO_PIN_SET);
 8001cbe:	2201      	movs	r2, #1
 8001cc0:	f44f 7100 	mov.w	r1, #512	@ 0x200
 8001cc4:	4803      	ldr	r0, [pc, #12]	@ (8001cd4 <OLED_RESET+0x2c>)
 8001cc6:	f001 fe5b 	bl	8003980 <HAL_GPIO_WritePin>
    HAL_Delay(10);
 8001cca:	200a      	movs	r0, #10
 8001ccc:	f000 feb4 	bl	8002a38 <HAL_Delay>
}
 8001cd0:	bf00      	nop
 8001cd2:	bd80      	pop	{r7, pc}
 8001cd4:	40020000 	.word	0x40020000

08001cd8 <OLED_WriteCommand>:

static void OLED_WriteCommand(uint8_t cmd)
{
 8001cd8:	b580      	push	{r7, lr}
 8001cda:	b082      	sub	sp, #8
 8001cdc:	af00      	add	r7, sp, #0
 8001cde:	4603      	mov	r3, r0
 8001ce0:	71fb      	strb	r3, [r7, #7]
    OLED_DC(0);
 8001ce2:	2000      	movs	r0, #0
 8001ce4:	f7ff ffc8 	bl	8001c78 <OLED_DC>
    OLED_CS(0);
 8001ce8:	2000      	movs	r0, #0
 8001cea:	f7ff ffaf 	bl	8001c4c <OLED_CS>
    HAL_SPI_Transmit(&hspi1, &cmd, 1, HAL_MAX_DELAY);
 8001cee:	1df9      	adds	r1, r7, #7
 8001cf0:	f04f 33ff 	mov.w	r3, #4294967295
 8001cf4:	2201      	movs	r2, #1
 8001cf6:	4805      	ldr	r0, [pc, #20]	@ (8001d0c <OLED_WriteCommand+0x34>)
 8001cf8:	f003 fe41 	bl	800597e <HAL_SPI_Transmit>
    OLED_CS(1);
 8001cfc:	2001      	movs	r0, #1
 8001cfe:	f7ff ffa5 	bl	8001c4c <OLED_CS>
}
 8001d02:	bf00      	nop
 8001d04:	3708      	adds	r7, #8
 8001d06:	46bd      	mov	sp, r7
 8001d08:	bd80      	pop	{r7, pc}
 8001d0a:	bf00      	nop
 8001d0c:	20000168 	.word	0x20000168

08001d10 <OLED_WriteData>:

static void OLED_WriteData(uint8_t *data, uint16_t size)
{
 8001d10:	b580      	push	{r7, lr}
 8001d12:	b082      	sub	sp, #8
 8001d14:	af00      	add	r7, sp, #0
 8001d16:	6078      	str	r0, [r7, #4]
 8001d18:	460b      	mov	r3, r1
 8001d1a:	807b      	strh	r3, [r7, #2]
    OLED_DC(1);
 8001d1c:	2001      	movs	r0, #1
 8001d1e:	f7ff ffab 	bl	8001c78 <OLED_DC>
    OLED_CS(0);
 8001d22:	2000      	movs	r0, #0
 8001d24:	f7ff ff92 	bl	8001c4c <OLED_CS>
    HAL_SPI_Transmit(&hspi1, data, size, HAL_MAX_DELAY);
 8001d28:	887a      	ldrh	r2, [r7, #2]
 8001d2a:	f04f 33ff 	mov.w	r3, #4294967295
 8001d2e:	6879      	ldr	r1, [r7, #4]
 8001d30:	4804      	ldr	r0, [pc, #16]	@ (8001d44 <OLED_WriteData+0x34>)
 8001d32:	f003 fe24 	bl	800597e <HAL_SPI_Transmit>
    OLED_CS(1);
 8001d36:	2001      	movs	r0, #1
 8001d38:	f7ff ff88 	bl	8001c4c <OLED_CS>
}
 8001d3c:	bf00      	nop
 8001d3e:	3708      	adds	r7, #8
 8001d40:	46bd      	mov	sp, r7
 8001d42:	bd80      	pop	{r7, pc}
 8001d44:	20000168 	.word	0x20000168

08001d48 <CharToFontIndex>:
    }
}

/* Helper function to convert char to font index */
static int CharToFontIndex(char c)
{
 8001d48:	b480      	push	{r7}
 8001d4a:	b083      	sub	sp, #12
 8001d4c:	af00      	add	r7, sp, #0
 8001d4e:	4603      	mov	r3, r0
 8001d50:	71fb      	strb	r3, [r7, #7]
    if (c >= '0' && c <= '9') return c - '0';
 8001d52:	79fb      	ldrb	r3, [r7, #7]
 8001d54:	2b2f      	cmp	r3, #47	@ 0x2f
 8001d56:	d905      	bls.n	8001d64 <CharToFontIndex+0x1c>
 8001d58:	79fb      	ldrb	r3, [r7, #7]
 8001d5a:	2b39      	cmp	r3, #57	@ 0x39
 8001d5c:	d802      	bhi.n	8001d64 <CharToFontIndex+0x1c>
 8001d5e:	79fb      	ldrb	r3, [r7, #7]
 8001d60:	3b30      	subs	r3, #48	@ 0x30
 8001d62:	e024      	b.n	8001dae <CharToFontIndex+0x66>
    if (c >= 'A' && c <= 'Z') return 10 + 2*(c - 'A');
 8001d64:	79fb      	ldrb	r3, [r7, #7]
 8001d66:	2b40      	cmp	r3, #64	@ 0x40
 8001d68:	d906      	bls.n	8001d78 <CharToFontIndex+0x30>
 8001d6a:	79fb      	ldrb	r3, [r7, #7]
 8001d6c:	2b5a      	cmp	r3, #90	@ 0x5a
 8001d6e:	d803      	bhi.n	8001d78 <CharToFontIndex+0x30>
 8001d70:	79fb      	ldrb	r3, [r7, #7]
 8001d72:	3b3c      	subs	r3, #60	@ 0x3c
 8001d74:	005b      	lsls	r3, r3, #1
 8001d76:	e01a      	b.n	8001dae <CharToFontIndex+0x66>
    if (c >= 'a' && c <= 'z') return 11 + 2*(c - 'a');
 8001d78:	79fb      	ldrb	r3, [r7, #7]
 8001d7a:	2b60      	cmp	r3, #96	@ 0x60
 8001d7c:	d907      	bls.n	8001d8e <CharToFontIndex+0x46>
 8001d7e:	79fb      	ldrb	r3, [r7, #7]
 8001d80:	2b7a      	cmp	r3, #122	@ 0x7a
 8001d82:	d804      	bhi.n	8001d8e <CharToFontIndex+0x46>
 8001d84:	79fb      	ldrb	r3, [r7, #7]
 8001d86:	3b61      	subs	r3, #97	@ 0x61
 8001d88:	005b      	lsls	r3, r3, #1
 8001d8a:	330b      	adds	r3, #11
 8001d8c:	e00f      	b.n	8001dae <CharToFontIndex+0x66>
    if (c == ' ') return 62;
 8001d8e:	79fb      	ldrb	r3, [r7, #7]
 8001d90:	2b20      	cmp	r3, #32
 8001d92:	d101      	bne.n	8001d98 <CharToFontIndex+0x50>
 8001d94:	233e      	movs	r3, #62	@ 0x3e
 8001d96:	e00a      	b.n	8001dae <CharToFontIndex+0x66>
    if (c == '.') return 62; /* Use space for dot placeholder */
 8001d98:	79fb      	ldrb	r3, [r7, #7]
 8001d9a:	2b2e      	cmp	r3, #46	@ 0x2e
 8001d9c:	d101      	bne.n	8001da2 <CharToFontIndex+0x5a>
 8001d9e:	233e      	movs	r3, #62	@ 0x3e
 8001da0:	e005      	b.n	8001dae <CharToFontIndex+0x66>
    if (c == ':') return 62;
 8001da2:	79fb      	ldrb	r3, [r7, #7]
 8001da4:	2b3a      	cmp	r3, #58	@ 0x3a
 8001da6:	d101      	bne.n	8001dac <CharToFontIndex+0x64>
 8001da8:	233e      	movs	r3, #62	@ 0x3e
 8001daa:	e000      	b.n	8001dae <CharToFontIndex+0x66>
    return 62; /* Default to space */
 8001dac:	233e      	movs	r3, #62	@ 0x3e
}
 8001dae:	4618      	mov	r0, r3
 8001db0:	370c      	adds	r7, #12
 8001db2:	46bd      	mov	sp, r7
 8001db4:	f85d 7b04 	ldr.w	r7, [sp], #4
 8001db8:	4770      	bx	lr
	...

08001dbc <GetAirQualityText>:

/* Get air quality text based on PM2.5 density */
static const char* GetAirQualityText(float pm25)
{
 8001dbc:	b480      	push	{r7}
 8001dbe:	b083      	sub	sp, #12
 8001dc0:	af00      	add	r7, sp, #0
 8001dc2:	ed87 0a01 	vstr	s0, [r7, #4]
    if (pm25 <= 35.0f)
 8001dc6:	edd7 7a01 	vldr	s15, [r7, #4]
 8001dca:	ed9f 7a1e 	vldr	s14, [pc, #120]	@ 8001e44 <GetAirQualityText+0x88>
 8001dce:	eef4 7ac7 	vcmpe.f32	s15, s14
 8001dd2:	eef1 fa10 	vmrs	APSR_nzcv, fpscr
 8001dd6:	d801      	bhi.n	8001ddc <GetAirQualityText+0x20>
        return "DOSKONALA         ";          /* Excellent - 9 chars */
 8001dd8:	4b1b      	ldr	r3, [pc, #108]	@ (8001e48 <GetAirQualityText+0x8c>)
 8001dda:	e02c      	b.n	8001e36 <GetAirQualityText+0x7a>
    else if (pm25 <= 75.0f)
 8001ddc:	edd7 7a01 	vldr	s15, [r7, #4]
 8001de0:	ed9f 7a1a 	vldr	s14, [pc, #104]	@ 8001e4c <GetAirQualityText+0x90>
 8001de4:	eef4 7ac7 	vcmpe.f32	s15, s14
 8001de8:	eef1 fa10 	vmrs	APSR_nzcv, fpscr
 8001dec:	d801      	bhi.n	8001df2 <GetAirQualityText+0x36>
        return "UMIARKOWANY       ";            /* Average - 7 chars */
 8001dee:	4b18      	ldr	r3, [pc, #96]	@ (8001e50 <GetAirQualityText+0x94>)
 8001df0:	e021      	b.n	8001e36 <GetAirQualityText+0x7a>
    else if (pm25 <= 115.0f)
 8001df2:	edd7 7a01 	vldr	s15, [r7, #4]
 8001df6:	ed9f 7a17 	vldr	s14, [pc, #92]	@ 8001e54 <GetAirQualityText+0x98>
 8001dfa:	eef4 7ac7 	vcmpe.f32	s15, s14
 8001dfe:	eef1 fa10 	vmrs	APSR_nzcv, fpscr
 8001e02:	d801      	bhi.n	8001e08 <GetAirQualityText+0x4c>
        return "LEKKIE ZANIECZYSZ ";  /* Light pollution - 17 chars */
 8001e04:	4b14      	ldr	r3, [pc, #80]	@ (8001e58 <GetAirQualityText+0x9c>)
 8001e06:	e016      	b.n	8001e36 <GetAirQualityText+0x7a>
    else if (pm25 <= 150.0f)
 8001e08:	edd7 7a01 	vldr	s15, [r7, #4]
 8001e0c:	ed9f 7a13 	vldr	s14, [pc, #76]	@ 8001e5c <GetAirQualityText+0xa0>
 8001e10:	eef4 7ac7 	vcmpe.f32	s15, s14
 8001e14:	eef1 fa10 	vmrs	APSR_nzcv, fpscr
 8001e18:	d801      	bhi.n	8001e1e <GetAirQualityText+0x62>
        return "SREDNIE ZANIECZYSZ";        /* Moderate pollution - 11 chars */
 8001e1a:	4b11      	ldr	r3, [pc, #68]	@ (8001e60 <GetAirQualityText+0xa4>)
 8001e1c:	e00b      	b.n	8001e36 <GetAirQualityText+0x7a>
    else if (pm25 <= 250.0f)
 8001e1e:	edd7 7a01 	vldr	s15, [r7, #4]
 8001e22:	ed9f 7a10 	vldr	s14, [pc, #64]	@ 8001e64 <GetAirQualityText+0xa8>
 8001e26:	eef4 7ac7 	vcmpe.f32	s15, s14
 8001e2a:	eef1 fa10 	vmrs	APSR_nzcv, fpscr
 8001e2e:	d801      	bhi.n	8001e34 <GetAirQualityText+0x78>
        return "CIEZKIE ZANIECZYSZ"; /* Heavy pollution - 18 chars */
 8001e30:	4b0d      	ldr	r3, [pc, #52]	@ (8001e68 <GetAirQualityText+0xac>)
 8001e32:	e000      	b.n	8001e36 <GetAirQualityText+0x7a>
    else
        return "POWAZNE ZANIECZYSZ"; /* Serious pollution - 18 chars */
 8001e34:	4b0d      	ldr	r3, [pc, #52]	@ (8001e6c <GetAirQualityText+0xb0>)
}
 8001e36:	4618      	mov	r0, r3
 8001e38:	370c      	adds	r7, #12
 8001e3a:	46bd      	mov	sp, r7
 8001e3c:	f85d 7b04 	ldr.w	r7, [sp], #4
 8001e40:	4770      	bx	lr
 8001e42:	bf00      	nop
 8001e44:	420c0000 	.word	0x420c0000
 8001e48:	08006dd8 	.word	0x08006dd8
 8001e4c:	42960000 	.word	0x42960000
 8001e50:	08006dec 	.word	0x08006dec
 8001e54:	42e60000 	.word	0x42e60000
 8001e58:	08006e00 	.word	0x08006e00
 8001e5c:	43160000 	.word	0x43160000
 8001e60:	08006e14 	.word	0x08006e14
 8001e64:	437a0000 	.word	0x437a0000
 8001e68:	08006e28 	.word	0x08006e28
 8001e6c:	08006e3c 	.word	0x08006e3c

08001e70 <OLED_DrawString>:

/* Draw string of characters */
static void OLED_DrawString(uint8_t page, uint8_t col, const char* str)
{
 8001e70:	b580      	push	{r7, lr}
 8001e72:	b084      	sub	sp, #16
 8001e74:	af00      	add	r7, sp, #0
 8001e76:	4603      	mov	r3, r0
 8001e78:	603a      	str	r2, [r7, #0]
 8001e7a:	71fb      	strb	r3, [r7, #7]
 8001e7c:	460b      	mov	r3, r1
 8001e7e:	71bb      	strb	r3, [r7, #6]
    uint8_t pos = col;
 8001e80:	79bb      	ldrb	r3, [r7, #6]
 8001e82:	73fb      	strb	r3, [r7, #15]
    while (*str && pos < 120) /* Prevent overflow */
 8001e84:	e014      	b.n	8001eb0 <OLED_DrawString+0x40>
    {
        int idx = CharToFontIndex(*str);
 8001e86:	683b      	ldr	r3, [r7, #0]
 8001e88:	781b      	ldrb	r3, [r3, #0]
 8001e8a:	4618      	mov	r0, r3
 8001e8c:	f7ff ff5c 	bl	8001d48 <CharToFontIndex>
 8001e90:	60b8      	str	r0, [r7, #8]
        OLED_DrawLetter(page, pos, font8x8[idx]);
 8001e92:	68bb      	ldr	r3, [r7, #8]
 8001e94:	00db      	lsls	r3, r3, #3
 8001e96:	4a0c      	ldr	r2, [pc, #48]	@ (8001ec8 <OLED_DrawString+0x58>)
 8001e98:	441a      	add	r2, r3
 8001e9a:	7bf9      	ldrb	r1, [r7, #15]
 8001e9c:	79fb      	ldrb	r3, [r7, #7]
 8001e9e:	4618      	mov	r0, r3
 8001ea0:	f000 f891 	bl	8001fc6 <OLED_DrawLetter>
        pos += 8;
 8001ea4:	7bfb      	ldrb	r3, [r7, #15]
 8001ea6:	3308      	adds	r3, #8
 8001ea8:	73fb      	strb	r3, [r7, #15]
        str++;
 8001eaa:	683b      	ldr	r3, [r7, #0]
 8001eac:	3301      	adds	r3, #1
 8001eae:	603b      	str	r3, [r7, #0]
    while (*str && pos < 120) /* Prevent overflow */
 8001eb0:	683b      	ldr	r3, [r7, #0]
 8001eb2:	781b      	ldrb	r3, [r3, #0]
 8001eb4:	2b00      	cmp	r3, #0
 8001eb6:	d002      	beq.n	8001ebe <OLED_DrawString+0x4e>
 8001eb8:	7bfb      	ldrb	r3, [r7, #15]
 8001eba:	2b77      	cmp	r3, #119	@ 0x77
 8001ebc:	d9e3      	bls.n	8001e86 <OLED_DrawString+0x16>
    }
}
 8001ebe:	bf00      	nop
 8001ec0:	3710      	adds	r7, #16
 8001ec2:	46bd      	mov	sp, r7
 8001ec4:	bd80      	pop	{r7, pc}
 8001ec6:	bf00      	nop
 8001ec8:	08006e50 	.word	0x08006e50

08001ecc <OLED_Init>:

/* Public functions */

void OLED_Init(void)
{
 8001ecc:	b580      	push	{r7, lr}
 8001ece:	af00      	add	r7, sp, #0
    OLED_RESET();
 8001ed0:	f7ff feea 	bl	8001ca8 <OLED_RESET>
    HAL_Delay(100);
 8001ed4:	2064      	movs	r0, #100	@ 0x64
 8001ed6:	f000 fdaf 	bl	8002a38 <HAL_Delay>

    OLED_WriteCommand(0xAE); /* Display OFF */
 8001eda:	20ae      	movs	r0, #174	@ 0xae
 8001edc:	f7ff fefc 	bl	8001cd8 <OLED_WriteCommand>
    OLED_WriteCommand(0xA8); /* Multiplex Ratio */
 8001ee0:	20a8      	movs	r0, #168	@ 0xa8
 8001ee2:	f7ff fef9 	bl	8001cd8 <OLED_WriteCommand>
    OLED_WriteCommand(0x3F); /* 64MUX */
 8001ee6:	203f      	movs	r0, #63	@ 0x3f
 8001ee8:	f7ff fef6 	bl	8001cd8 <OLED_WriteCommand>
    OLED_WriteCommand(0xD3); /* Display Offset */
 8001eec:	20d3      	movs	r0, #211	@ 0xd3
 8001eee:	f7ff fef3 	bl	8001cd8 <OLED_WriteCommand>
    OLED_WriteCommand(0x00); /* no offset */
 8001ef2:	2000      	movs	r0, #0
 8001ef4:	f7ff fef0 	bl	8001cd8 <OLED_WriteCommand>
    OLED_WriteCommand(0x40); /* Start Line = 0 */
 8001ef8:	2040      	movs	r0, #64	@ 0x40
 8001efa:	f7ff feed 	bl	8001cd8 <OLED_WriteCommand>
    OLED_WriteCommand(0x8D); /* Charge Pump */
 8001efe:	208d      	movs	r0, #141	@ 0x8d
 8001f00:	f7ff feea 	bl	8001cd8 <OLED_WriteCommand>
    OLED_WriteCommand(0x14); /* enable */
 8001f04:	2014      	movs	r0, #20
 8001f06:	f7ff fee7 	bl	8001cd8 <OLED_WriteCommand>
    OLED_WriteCommand(0xAD); /* DC-DC Control */
 8001f0a:	20ad      	movs	r0, #173	@ 0xad
 8001f0c:	f7ff fee4 	bl	8001cd8 <OLED_WriteCommand>
    OLED_WriteCommand(0x8B); /* Enable DC-DC */
 8001f10:	208b      	movs	r0, #139	@ 0x8b
 8001f12:	f7ff fee1 	bl	8001cd8 <OLED_WriteCommand>
    OLED_WriteCommand(0xA1); /* Segment Remap */
 8001f16:	20a1      	movs	r0, #161	@ 0xa1
 8001f18:	f7ff fede 	bl	8001cd8 <OLED_WriteCommand>
    OLED_WriteCommand(0xC8); /* COM Scan Direction */
 8001f1c:	20c8      	movs	r0, #200	@ 0xc8
 8001f1e:	f7ff fedb 	bl	8001cd8 <OLED_WriteCommand>
    OLED_WriteCommand(0xDA); /* COM Pins config */
 8001f22:	20da      	movs	r0, #218	@ 0xda
 8001f24:	f7ff fed8 	bl	8001cd8 <OLED_WriteCommand>
    OLED_WriteCommand(0x12); /* for 128x64 */
 8001f28:	2012      	movs	r0, #18
 8001f2a:	f7ff fed5 	bl	8001cd8 <OLED_WriteCommand>
    OLED_WriteCommand(0x81); /* Contrast */
 8001f2e:	2081      	movs	r0, #129	@ 0x81
 8001f30:	f7ff fed2 	bl	8001cd8 <OLED_WriteCommand>
    OLED_WriteCommand(0x7F); /* medium */
 8001f34:	207f      	movs	r0, #127	@ 0x7f
 8001f36:	f7ff fecf 	bl	8001cd8 <OLED_WriteCommand>
    OLED_WriteCommand(0xA4); /* Resume RAM display */
 8001f3a:	20a4      	movs	r0, #164	@ 0xa4
 8001f3c:	f7ff fecc 	bl	8001cd8 <OLED_WriteCommand>
    OLED_WriteCommand(0xA6); /* Normal (not inverted) */
 8001f40:	20a6      	movs	r0, #166	@ 0xa6
 8001f42:	f7ff fec9 	bl	8001cd8 <OLED_WriteCommand>
    OLED_WriteCommand(0xAF); /* Display ON */
 8001f46:	20af      	movs	r0, #175	@ 0xaf
 8001f48:	f7ff fec6 	bl	8001cd8 <OLED_WriteCommand>
}
 8001f4c:	bf00      	nop
 8001f4e:	bd80      	pop	{r7, pc}

08001f50 <OLED_Clear>:

void OLED_Clear(void)
{
 8001f50:	b580      	push	{r7, lr}
 8001f52:	b0a2      	sub	sp, #136	@ 0x88
 8001f54:	af00      	add	r7, sp, #0
    uint8_t zeros[128] = {0};
 8001f56:	1d3b      	adds	r3, r7, #4
 8001f58:	2280      	movs	r2, #128	@ 0x80
 8001f5a:	2100      	movs	r1, #0
 8001f5c:	4618      	mov	r0, r3
 8001f5e:	f004 fd33 	bl	80069c8 <memset>
    const uint8_t offset = 2;
 8001f62:	2302      	movs	r3, #2
 8001f64:	f887 3086 	strb.w	r3, [r7, #134]	@ 0x86
    uint8_t page;

    for (page = 0; page < 8; page++)
 8001f68:	2300      	movs	r3, #0
 8001f6a:	f887 3087 	strb.w	r3, [r7, #135]	@ 0x87
 8001f6e:	e021      	b.n	8001fb4 <OLED_Clear+0x64>
    {
        OLED_WriteCommand(0xB0 + page);
 8001f70:	f897 3087 	ldrb.w	r3, [r7, #135]	@ 0x87
 8001f74:	3b50      	subs	r3, #80	@ 0x50
 8001f76:	b2db      	uxtb	r3, r3
 8001f78:	4618      	mov	r0, r3
 8001f7a:	f7ff fead 	bl	8001cd8 <OLED_WriteCommand>
        OLED_WriteCommand(0x00 + (offset & 0x0F));
 8001f7e:	f897 3086 	ldrb.w	r3, [r7, #134]	@ 0x86
 8001f82:	f003 030f 	and.w	r3, r3, #15
 8001f86:	b2db      	uxtb	r3, r3
 8001f88:	4618      	mov	r0, r3
 8001f8a:	f7ff fea5 	bl	8001cd8 <OLED_WriteCommand>
        OLED_WriteCommand(0x10 + (offset >> 4));
 8001f8e:	f897 3086 	ldrb.w	r3, [r7, #134]	@ 0x86
 8001f92:	091b      	lsrs	r3, r3, #4
 8001f94:	b2db      	uxtb	r3, r3
 8001f96:	3310      	adds	r3, #16
 8001f98:	b2db      	uxtb	r3, r3
 8001f9a:	4618      	mov	r0, r3
 8001f9c:	f7ff fe9c 	bl	8001cd8 <OLED_WriteCommand>
        OLED_WriteData(zeros, 128);
 8001fa0:	1d3b      	adds	r3, r7, #4
 8001fa2:	2180      	movs	r1, #128	@ 0x80
 8001fa4:	4618      	mov	r0, r3
 8001fa6:	f7ff feb3 	bl	8001d10 <OLED_WriteData>
    for (page = 0; page < 8; page++)
 8001faa:	f897 3087 	ldrb.w	r3, [r7, #135]	@ 0x87
 8001fae:	3301      	adds	r3, #1
 8001fb0:	f887 3087 	strb.w	r3, [r7, #135]	@ 0x87
 8001fb4:	f897 3087 	ldrb.w	r3, [r7, #135]	@ 0x87
 8001fb8:	2b07      	cmp	r3, #7
 8001fba:	d9d9      	bls.n	8001f70 <OLED_Clear+0x20>
    }
}
 8001fbc:	bf00      	nop
 8001fbe:	bf00      	nop
 8001fc0:	3788      	adds	r7, #136	@ 0x88
 8001fc2:	46bd      	mov	sp, r7
 8001fc4:	bd80      	pop	{r7, pc}

08001fc6 <OLED_DrawLetter>:

void OLED_DrawLetter(uint8_t page, uint8_t startColumn, const uint8_t letter[])
{
 8001fc6:	b580      	push	{r7, lr}
 8001fc8:	b086      	sub	sp, #24
 8001fca:	af00      	add	r7, sp, #0
 8001fcc:	4603      	mov	r3, r0
 8001fce:	603a      	str	r2, [r7, #0]
 8001fd0:	71fb      	strb	r3, [r7, #7]
 8001fd2:	460b      	mov	r3, r1
 8001fd4:	71bb      	strb	r3, [r7, #6]
    uint8_t temp[8];
    int i;

    /* Copy const data to writable buffer */
    for (i = 0; i < 8; i++)
 8001fd6:	2300      	movs	r3, #0
 8001fd8:	617b      	str	r3, [r7, #20]
 8001fda:	e00c      	b.n	8001ff6 <OLED_DrawLetter+0x30>
    {
        temp[i] = letter[i];
 8001fdc:	697b      	ldr	r3, [r7, #20]
 8001fde:	683a      	ldr	r2, [r7, #0]
 8001fe0:	4413      	add	r3, r2
 8001fe2:	7819      	ldrb	r1, [r3, #0]
 8001fe4:	f107 020c 	add.w	r2, r7, #12
 8001fe8:	697b      	ldr	r3, [r7, #20]
 8001fea:	4413      	add	r3, r2
 8001fec:	460a      	mov	r2, r1
 8001fee:	701a      	strb	r2, [r3, #0]
    for (i = 0; i < 8; i++)
 8001ff0:	697b      	ldr	r3, [r7, #20]
 8001ff2:	3301      	adds	r3, #1
 8001ff4:	617b      	str	r3, [r7, #20]
 8001ff6:	697b      	ldr	r3, [r7, #20]
 8001ff8:	2b07      	cmp	r3, #7
 8001ffa:	ddef      	ble.n	8001fdc <OLED_DrawLetter+0x16>
    }

    OLED_WriteCommand(0xB0 + page);
 8001ffc:	79fb      	ldrb	r3, [r7, #7]
 8001ffe:	3b50      	subs	r3, #80	@ 0x50
 8002000:	b2db      	uxtb	r3, r3
 8002002:	4618      	mov	r0, r3
 8002004:	f7ff fe68 	bl	8001cd8 <OLED_WriteCommand>
    OLED_WriteCommand(0x02 + (startColumn & 0x0F));
 8002008:	79bb      	ldrb	r3, [r7, #6]
 800200a:	f003 030f 	and.w	r3, r3, #15
 800200e:	b2db      	uxtb	r3, r3
 8002010:	3302      	adds	r3, #2
 8002012:	b2db      	uxtb	r3, r3
 8002014:	4618      	mov	r0, r3
 8002016:	f7ff fe5f 	bl	8001cd8 <OLED_WriteCommand>
    OLED_WriteCommand(0x10 + (startColumn >> 4));
 800201a:	79bb      	ldrb	r3, [r7, #6]
 800201c:	091b      	lsrs	r3, r3, #4
 800201e:	b2db      	uxtb	r3, r3
 8002020:	3310      	adds	r3, #16
 8002022:	b2db      	uxtb	r3, r3
 8002024:	4618      	mov	r0, r3
 8002026:	f7ff fe57 	bl	8001cd8 <OLED_WriteCommand>
    OLED_WriteData(temp, 8);
 800202a:	f107 030c 	add.w	r3, r7, #12
 800202e:	2108      	movs	r1, #8
 8002030:	4618      	mov	r0, r3
 8002032:	f7ff fe6d 	bl	8001d10 <OLED_WriteData>
}
 8002036:	bf00      	nop
 8002038:	3718      	adds	r7, #24
 800203a:	46bd      	mov	sp, r7
 800203c:	bd80      	pop	{r7, pc}

0800203e <OLED_DrawCol>:

void OLED_DrawCol(uint8_t page, uint8_t startColumn, uint8_t letter)
{
 800203e:	b580      	push	{r7, lr}
 8002040:	b082      	sub	sp, #8
 8002042:	af00      	add	r7, sp, #0
 8002044:	4603      	mov	r3, r0
 8002046:	71fb      	strb	r3, [r7, #7]
 8002048:	460b      	mov	r3, r1
 800204a:	71bb      	strb	r3, [r7, #6]
 800204c:	4613      	mov	r3, r2
 800204e:	717b      	strb	r3, [r7, #5]
    OLED_WriteCommand(0xB0 + page);
 8002050:	79fb      	ldrb	r3, [r7, #7]
 8002052:	3b50      	subs	r3, #80	@ 0x50
 8002054:	b2db      	uxtb	r3, r3
 8002056:	4618      	mov	r0, r3
 8002058:	f7ff fe3e 	bl	8001cd8 <OLED_WriteCommand>
    OLED_WriteCommand(0x02 + (startColumn & 0x0F));
 800205c:	79bb      	ldrb	r3, [r7, #6]
 800205e:	f003 030f 	and.w	r3, r3, #15
 8002062:	b2db      	uxtb	r3, r3
 8002064:	3302      	adds	r3, #2
 8002066:	b2db      	uxtb	r3, r3
 8002068:	4618      	mov	r0, r3
 800206a:	f7ff fe35 	bl	8001cd8 <OLED_WriteCommand>
    OLED_WriteCommand(0x10 + (startColumn >> 4));
 800206e:	79bb      	ldrb	r3, [r7, #6]
 8002070:	091b      	lsrs	r3, r3, #4
 8002072:	b2db      	uxtb	r3, r3
 8002074:	3310      	adds	r3, #16
 8002076:	b2db      	uxtb	r3, r3
 8002078:	4618      	mov	r0, r3
 800207a:	f7ff fe2d 	bl	8001cd8 <OLED_WriteCommand>
    OLED_WriteData(&letter, 1);
 800207e:	1d7b      	adds	r3, r7, #5
 8002080:	2101      	movs	r1, #1
 8002082:	4618      	mov	r0, r3
 8002084:	f7ff fe44 	bl	8001d10 <OLED_WriteData>
}
 8002088:	bf00      	nop
 800208a:	3708      	adds	r7, #8
 800208c:	46bd      	mov	sp, r7
 800208e:	bd80      	pop	{r7, pc}

08002090 <OLED_temp>:

/* IMPROVED: Temperature and Humidity with better formatting */
void OLED_temp(void)
{
 8002090:	b580      	push	{r7, lr}
 8002092:	b082      	sub	sp, #8
 8002094:	af00      	add	r7, sp, #0
    uint8_t tempD, tempL, tempD_dec;
    uint8_t humD, humL;

    /* === TEMPERATURE SECTION (Page 0) === */
    /* Label "T:" */
    OLED_DrawLetter(0, 0, font8x8[48]);   /* T */
 8002096:	4a52      	ldr	r2, [pc, #328]	@ (80021e0 <OLED_temp+0x150>)
 8002098:	2100      	movs	r1, #0
 800209a:	2000      	movs	r0, #0
 800209c:	f7ff ff93 	bl	8001fc6 <OLED_DrawLetter>
    OLED_DrawCol(0, 8, 0b01100000);       /* : */
 80020a0:	2260      	movs	r2, #96	@ 0x60
 80020a2:	2108      	movs	r1, #8
 80020a4:	2000      	movs	r0, #0
 80020a6:	f7ff ffca 	bl	800203e <OLED_DrawCol>
    OLED_DrawCol(0, 9, 0b01100000);
 80020aa:	2260      	movs	r2, #96	@ 0x60
 80020ac:	2109      	movs	r1, #9
 80020ae:	2000      	movs	r0, #0
 80020b0:	f7ff ffc5 	bl	800203e <OLED_DrawCol>

    /* Temperature value */
    tempD = (uint8_t)(DHT11_Data[2] / 10);
 80020b4:	4b4b      	ldr	r3, [pc, #300]	@ (80021e4 <OLED_temp+0x154>)
 80020b6:	789b      	ldrb	r3, [r3, #2]
 80020b8:	4a4b      	ldr	r2, [pc, #300]	@ (80021e8 <OLED_temp+0x158>)
 80020ba:	fba2 2303 	umull	r2, r3, r2, r3
 80020be:	08db      	lsrs	r3, r3, #3
 80020c0:	71fb      	strb	r3, [r7, #7]
    tempL = (uint8_t)(DHT11_Data[2] - (tempD * 10));
 80020c2:	4b48      	ldr	r3, [pc, #288]	@ (80021e4 <OLED_temp+0x154>)
 80020c4:	789a      	ldrb	r2, [r3, #2]
 80020c6:	79fb      	ldrb	r3, [r7, #7]
 80020c8:	4619      	mov	r1, r3
 80020ca:	0089      	lsls	r1, r1, #2
 80020cc:	440b      	add	r3, r1
 80020ce:	005b      	lsls	r3, r3, #1
 80020d0:	b2db      	uxtb	r3, r3
 80020d2:	1ad3      	subs	r3, r2, r3
 80020d4:	71bb      	strb	r3, [r7, #6]

    OLED_DrawLetter(0, 16, font8x8[tempD]);
 80020d6:	79fb      	ldrb	r3, [r7, #7]
 80020d8:	00db      	lsls	r3, r3, #3
 80020da:	4a44      	ldr	r2, [pc, #272]	@ (80021ec <OLED_temp+0x15c>)
 80020dc:	4413      	add	r3, r2
 80020de:	461a      	mov	r2, r3
 80020e0:	2110      	movs	r1, #16
 80020e2:	2000      	movs	r0, #0
 80020e4:	f7ff ff6f 	bl	8001fc6 <OLED_DrawLetter>
    OLED_DrawLetter(0, 24, font8x8[tempL]);
 80020e8:	79bb      	ldrb	r3, [r7, #6]
 80020ea:	00db      	lsls	r3, r3, #3
 80020ec:	4a3f      	ldr	r2, [pc, #252]	@ (80021ec <OLED_temp+0x15c>)
 80020ee:	4413      	add	r3, r2
 80020f0:	461a      	mov	r2, r3
 80020f2:	2118      	movs	r1, #24
 80020f4:	2000      	movs	r0, #0
 80020f6:	f7ff ff66 	bl	8001fc6 <OLED_DrawLetter>

    /* Decimal point */
    OLED_DrawCol(0, 32, 0b11000000);
 80020fa:	22c0      	movs	r2, #192	@ 0xc0
 80020fc:	2120      	movs	r1, #32
 80020fe:	2000      	movs	r0, #0
 8002100:	f7ff ff9d 	bl	800203e <OLED_DrawCol>
    OLED_DrawCol(0, 33, 0b11000000);
 8002104:	22c0      	movs	r2, #192	@ 0xc0
 8002106:	2121      	movs	r1, #33	@ 0x21
 8002108:	2000      	movs	r0, #0
 800210a:	f7ff ff98 	bl	800203e <OLED_DrawCol>

    /* Decimal part */
    tempD_dec = (uint8_t)(DHT11_Data[3] / 10);
 800210e:	4b35      	ldr	r3, [pc, #212]	@ (80021e4 <OLED_temp+0x154>)
 8002110:	78db      	ldrb	r3, [r3, #3]
 8002112:	4a35      	ldr	r2, [pc, #212]	@ (80021e8 <OLED_temp+0x158>)
 8002114:	fba2 2303 	umull	r2, r3, r2, r3
 8002118:	08db      	lsrs	r3, r3, #3
 800211a:	717b      	strb	r3, [r7, #5]
    OLED_DrawLetter(0, 34, font8x8[tempD_dec]);
 800211c:	797b      	ldrb	r3, [r7, #5]
 800211e:	00db      	lsls	r3, r3, #3
 8002120:	4a32      	ldr	r2, [pc, #200]	@ (80021ec <OLED_temp+0x15c>)
 8002122:	4413      	add	r3, r2
 8002124:	461a      	mov	r2, r3
 8002126:	2122      	movs	r1, #34	@ 0x22
 8002128:	2000      	movs	r0, #0
 800212a:	f7ff ff4c 	bl	8001fc6 <OLED_DrawLetter>

    /* Degree symbol */
    OLED_DrawCol(0, 42, 0b00000110);
 800212e:	2206      	movs	r2, #6
 8002130:	212a      	movs	r1, #42	@ 0x2a
 8002132:	2000      	movs	r0, #0
 8002134:	f7ff ff83 	bl	800203e <OLED_DrawCol>
    OLED_DrawCol(0, 43, 0b00000110);
 8002138:	2206      	movs	r2, #6
 800213a:	212b      	movs	r1, #43	@ 0x2b
 800213c:	2000      	movs	r0, #0
 800213e:	f7ff ff7e 	bl	800203e <OLED_DrawCol>

    /* "C" */
    OLED_DrawLetter(0, 46, font8x8[14]);  /* C */
 8002142:	4a2b      	ldr	r2, [pc, #172]	@ (80021f0 <OLED_temp+0x160>)
 8002144:	212e      	movs	r1, #46	@ 0x2e
 8002146:	2000      	movs	r0, #0
 8002148:	f7ff ff3d 	bl	8001fc6 <OLED_DrawLetter>

    /* === HUMIDITY SECTION (Page 0, right side) === */
    /* Label "H:" */
    OLED_DrawLetter(0, 64, font8x8[24]);  /* H */
 800214c:	4a29      	ldr	r2, [pc, #164]	@ (80021f4 <OLED_temp+0x164>)
 800214e:	2140      	movs	r1, #64	@ 0x40
 8002150:	2000      	movs	r0, #0
 8002152:	f7ff ff38 	bl	8001fc6 <OLED_DrawLetter>
    OLED_DrawCol(0, 72, 0b01100000);      /* : */
 8002156:	2260      	movs	r2, #96	@ 0x60
 8002158:	2148      	movs	r1, #72	@ 0x48
 800215a:	2000      	movs	r0, #0
 800215c:	f7ff ff6f 	bl	800203e <OLED_DrawCol>
    OLED_DrawCol(0, 73, 0b01100000);
 8002160:	2260      	movs	r2, #96	@ 0x60
 8002162:	2149      	movs	r1, #73	@ 0x49
 8002164:	2000      	movs	r0, #0
 8002166:	f7ff ff6a 	bl	800203e <OLED_DrawCol>

    /* Humidity value */
    humD = (uint8_t)(DHT11_Data[0] / 10);
 800216a:	4b1e      	ldr	r3, [pc, #120]	@ (80021e4 <OLED_temp+0x154>)
 800216c:	781b      	ldrb	r3, [r3, #0]
 800216e:	4a1e      	ldr	r2, [pc, #120]	@ (80021e8 <OLED_temp+0x158>)
 8002170:	fba2 2303 	umull	r2, r3, r2, r3
 8002174:	08db      	lsrs	r3, r3, #3
 8002176:	713b      	strb	r3, [r7, #4]
    humL = (uint8_t)(DHT11_Data[0] - humD * 10);
 8002178:	4b1a      	ldr	r3, [pc, #104]	@ (80021e4 <OLED_temp+0x154>)
 800217a:	781a      	ldrb	r2, [r3, #0]
 800217c:	793b      	ldrb	r3, [r7, #4]
 800217e:	4619      	mov	r1, r3
 8002180:	0089      	lsls	r1, r1, #2
 8002182:	440b      	add	r3, r1
 8002184:	005b      	lsls	r3, r3, #1
 8002186:	b2db      	uxtb	r3, r3
 8002188:	1ad3      	subs	r3, r2, r3
 800218a:	70fb      	strb	r3, [r7, #3]

    OLED_DrawLetter(0, 80, font8x8[humD]);
 800218c:	793b      	ldrb	r3, [r7, #4]
 800218e:	00db      	lsls	r3, r3, #3
 8002190:	4a16      	ldr	r2, [pc, #88]	@ (80021ec <OLED_temp+0x15c>)
 8002192:	4413      	add	r3, r2
 8002194:	461a      	mov	r2, r3
 8002196:	2150      	movs	r1, #80	@ 0x50
 8002198:	2000      	movs	r0, #0
 800219a:	f7ff ff14 	bl	8001fc6 <OLED_DrawLetter>
    OLED_DrawLetter(0, 88, font8x8[humL]);
 800219e:	78fb      	ldrb	r3, [r7, #3]
 80021a0:	00db      	lsls	r3, r3, #3
 80021a2:	4a12      	ldr	r2, [pc, #72]	@ (80021ec <OLED_temp+0x15c>)
 80021a4:	4413      	add	r3, r2
 80021a6:	461a      	mov	r2, r3
 80021a8:	2158      	movs	r1, #88	@ 0x58
 80021aa:	2000      	movs	r0, #0
 80021ac:	f7ff ff0b 	bl	8001fc6 <OLED_DrawLetter>

    /* "%" */
    OLED_DrawCol(0, 96, 0b01001001);
 80021b0:	2249      	movs	r2, #73	@ 0x49
 80021b2:	2160      	movs	r1, #96	@ 0x60
 80021b4:	2000      	movs	r0, #0
 80021b6:	f7ff ff42 	bl	800203e <OLED_DrawCol>
    OLED_DrawCol(0, 97, 0b00100100);
 80021ba:	2224      	movs	r2, #36	@ 0x24
 80021bc:	2161      	movs	r1, #97	@ 0x61
 80021be:	2000      	movs	r0, #0
 80021c0:	f7ff ff3d 	bl	800203e <OLED_DrawCol>
    OLED_DrawCol(0, 98, 0b00010010);
 80021c4:	2212      	movs	r2, #18
 80021c6:	2162      	movs	r1, #98	@ 0x62
 80021c8:	2000      	movs	r0, #0
 80021ca:	f7ff ff38 	bl	800203e <OLED_DrawCol>
    OLED_DrawCol(0, 99, 0b01001001);
 80021ce:	2249      	movs	r2, #73	@ 0x49
 80021d0:	2163      	movs	r1, #99	@ 0x63
 80021d2:	2000      	movs	r0, #0
 80021d4:	f7ff ff33 	bl	800203e <OLED_DrawCol>
}
 80021d8:	bf00      	nop
 80021da:	3708      	adds	r7, #8
 80021dc:	46bd      	mov	sp, r7
 80021de:	bd80      	pop	{r7, pc}
 80021e0:	08006fd0 	.word	0x08006fd0
 80021e4:	20000094 	.word	0x20000094
 80021e8:	cccccccd 	.word	0xcccccccd
 80021ec:	08006e50 	.word	0x08006e50
 80021f0:	08006ec0 	.word	0x08006ec0
 80021f4:	08006f10 	.word	0x08006f10

080021f8 <OLED_pressure_Pa>:

/* IMPROVED: Pressure with labels PM/PL */
void OLED_pressure_Pa(float pressure, int x)
{
 80021f8:	b580      	push	{r7, lr}
 80021fa:	b08c      	sub	sp, #48	@ 0x30
 80021fc:	af00      	add	r7, sp, #0
 80021fe:	ed87 0a01 	vstr	s0, [r7, #4]
 8002202:	6038      	str	r0, [r7, #0]
    int p = (int)pressure;
 8002204:	edd7 7a01 	vldr	s15, [r7, #4]
 8002208:	eefd 7ae7 	vcvt.s32.f32	s15, s15
 800220c:	ee17 3a90 	vmov	r3, s15
 8002210:	62fb      	str	r3, [r7, #44]	@ 0x2c
    int digits[6];
    int i;
    uint8_t page = (x == 0) ? 2 : 4; /* Page 2 for PM, Page 4 for PL */
 8002212:	683b      	ldr	r3, [r7, #0]
 8002214:	2b00      	cmp	r3, #0
 8002216:	d101      	bne.n	800221c <OLED_pressure_Pa+0x24>
 8002218:	2302      	movs	r3, #2
 800221a:	e000      	b.n	800221e <OLED_pressure_Pa+0x26>
 800221c:	2304      	movs	r3, #4
 800221e:	f887 3027 	strb.w	r3, [r7, #39]	@ 0x27

    /* Extract digits */
    for (i = 5; i >= 0; i--)
 8002222:	2305      	movs	r3, #5
 8002224:	62bb      	str	r3, [r7, #40]	@ 0x28
 8002226:	e01c      	b.n	8002262 <OLED_pressure_Pa+0x6a>
    {
        digits[i] = p % 10;
 8002228:	6af9      	ldr	r1, [r7, #44]	@ 0x2c
 800222a:	4b45      	ldr	r3, [pc, #276]	@ (8002340 <OLED_pressure_Pa+0x148>)
 800222c:	fb83 2301 	smull	r2, r3, r3, r1
 8002230:	109a      	asrs	r2, r3, #2
 8002232:	17cb      	asrs	r3, r1, #31
 8002234:	1ad2      	subs	r2, r2, r3
 8002236:	4613      	mov	r3, r2
 8002238:	009b      	lsls	r3, r3, #2
 800223a:	4413      	add	r3, r2
 800223c:	005b      	lsls	r3, r3, #1
 800223e:	1aca      	subs	r2, r1, r3
 8002240:	6abb      	ldr	r3, [r7, #40]	@ 0x28
 8002242:	009b      	lsls	r3, r3, #2
 8002244:	3330      	adds	r3, #48	@ 0x30
 8002246:	443b      	add	r3, r7
 8002248:	f843 2c24 	str.w	r2, [r3, #-36]
        p /= 10;
 800224c:	6afb      	ldr	r3, [r7, #44]	@ 0x2c
 800224e:	4a3c      	ldr	r2, [pc, #240]	@ (8002340 <OLED_pressure_Pa+0x148>)
 8002250:	fb82 1203 	smull	r1, r2, r2, r3
 8002254:	1092      	asrs	r2, r2, #2
 8002256:	17db      	asrs	r3, r3, #31
 8002258:	1ad3      	subs	r3, r2, r3
 800225a:	62fb      	str	r3, [r7, #44]	@ 0x2c
    for (i = 5; i >= 0; i--)
 800225c:	6abb      	ldr	r3, [r7, #40]	@ 0x28
 800225e:	3b01      	subs	r3, #1
 8002260:	62bb      	str	r3, [r7, #40]	@ 0x28
 8002262:	6abb      	ldr	r3, [r7, #40]	@ 0x28
 8002264:	2b00      	cmp	r3, #0
 8002266:	dadf      	bge.n	8002228 <OLED_pressure_Pa+0x30>
    }

    /* Label */
    if (x == 0)
 8002268:	683b      	ldr	r3, [r7, #0]
 800226a:	2b00      	cmp	r3, #0
 800226c:	d11c      	bne.n	80022a8 <OLED_pressure_Pa+0xb0>
    {
        /* "PM:" for Poziom Morza (Sea Level) */
        OLED_DrawLetter(page, 0, font8x8[40]);  /* P */
 800226e:	f897 3027 	ldrb.w	r3, [r7, #39]	@ 0x27
 8002272:	4a34      	ldr	r2, [pc, #208]	@ (8002344 <OLED_pressure_Pa+0x14c>)
 8002274:	2100      	movs	r1, #0
 8002276:	4618      	mov	r0, r3
 8002278:	f7ff fea5 	bl	8001fc6 <OLED_DrawLetter>
        OLED_DrawLetter(page, 8, font8x8[34]);  /* M */
 800227c:	f897 3027 	ldrb.w	r3, [r7, #39]	@ 0x27
 8002280:	4a31      	ldr	r2, [pc, #196]	@ (8002348 <OLED_pressure_Pa+0x150>)
 8002282:	2108      	movs	r1, #8
 8002284:	4618      	mov	r0, r3
 8002286:	f7ff fe9e 	bl	8001fc6 <OLED_DrawLetter>
        OLED_DrawCol(page, 16, 0b01100000);     /* : */
 800228a:	f897 3027 	ldrb.w	r3, [r7, #39]	@ 0x27
 800228e:	2260      	movs	r2, #96	@ 0x60
 8002290:	2110      	movs	r1, #16
 8002292:	4618      	mov	r0, r3
 8002294:	f7ff fed3 	bl	800203e <OLED_DrawCol>
        OLED_DrawCol(page, 17, 0b01100000);
 8002298:	f897 3027 	ldrb.w	r3, [r7, #39]	@ 0x27
 800229c:	2260      	movs	r2, #96	@ 0x60
 800229e:	2111      	movs	r1, #17
 80022a0:	4618      	mov	r0, r3
 80022a2:	f7ff fecc 	bl	800203e <OLED_DrawCol>
 80022a6:	e01b      	b.n	80022e0 <OLED_pressure_Pa+0xe8>
    }
    else
    {
        /* "PL:" for Poziom Lokalny (Local) */
        OLED_DrawLetter(page, 0, font8x8[40]);  /* P */
 80022a8:	f897 3027 	ldrb.w	r3, [r7, #39]	@ 0x27
 80022ac:	4a25      	ldr	r2, [pc, #148]	@ (8002344 <OLED_pressure_Pa+0x14c>)
 80022ae:	2100      	movs	r1, #0
 80022b0:	4618      	mov	r0, r3
 80022b2:	f7ff fe88 	bl	8001fc6 <OLED_DrawLetter>
        OLED_DrawLetter(page, 8, font8x8[32]);  /* L */
 80022b6:	f897 3027 	ldrb.w	r3, [r7, #39]	@ 0x27
 80022ba:	4a24      	ldr	r2, [pc, #144]	@ (800234c <OLED_pressure_Pa+0x154>)
 80022bc:	2108      	movs	r1, #8
 80022be:	4618      	mov	r0, r3
 80022c0:	f7ff fe81 	bl	8001fc6 <OLED_DrawLetter>
        OLED_DrawCol(page, 16, 0b01100000);     /* : */
 80022c4:	f897 3027 	ldrb.w	r3, [r7, #39]	@ 0x27
 80022c8:	2260      	movs	r2, #96	@ 0x60
 80022ca:	2110      	movs	r1, #16
 80022cc:	4618      	mov	r0, r3
 80022ce:	f7ff feb6 	bl	800203e <OLED_DrawCol>
        OLED_DrawCol(page, 17, 0b01100000);
 80022d2:	f897 3027 	ldrb.w	r3, [r7, #39]	@ 0x27
 80022d6:	2260      	movs	r2, #96	@ 0x60
 80022d8:	2111      	movs	r1, #17
 80022da:	4618      	mov	r0, r3
 80022dc:	f7ff feaf 	bl	800203e <OLED_DrawCol>
    }

    /* Display pressure value (first 5 digits) */
    for (i = 0; i < 4; i++)
 80022e0:	2300      	movs	r3, #0
 80022e2:	62bb      	str	r3, [r7, #40]	@ 0x28
 80022e4:	e016      	b.n	8002314 <OLED_pressure_Pa+0x11c>
    {
        OLED_DrawLetter(page, (uint8_t)(24 + i * 8), font8x8[digits[i]]);
 80022e6:	6abb      	ldr	r3, [r7, #40]	@ 0x28
 80022e8:	b2db      	uxtb	r3, r3
 80022ea:	3303      	adds	r3, #3
 80022ec:	b2db      	uxtb	r3, r3
 80022ee:	00db      	lsls	r3, r3, #3
 80022f0:	b2d9      	uxtb	r1, r3
 80022f2:	6abb      	ldr	r3, [r7, #40]	@ 0x28
 80022f4:	009b      	lsls	r3, r3, #2
 80022f6:	3330      	adds	r3, #48	@ 0x30
 80022f8:	443b      	add	r3, r7
 80022fa:	f853 3c24 	ldr.w	r3, [r3, #-36]
 80022fe:	00db      	lsls	r3, r3, #3
 8002300:	4a13      	ldr	r2, [pc, #76]	@ (8002350 <OLED_pressure_Pa+0x158>)
 8002302:	441a      	add	r2, r3
 8002304:	f897 3027 	ldrb.w	r3, [r7, #39]	@ 0x27
 8002308:	4618      	mov	r0, r3
 800230a:	f7ff fe5c 	bl	8001fc6 <OLED_DrawLetter>
    for (i = 0; i < 4; i++)
 800230e:	6abb      	ldr	r3, [r7, #40]	@ 0x28
 8002310:	3301      	adds	r3, #1
 8002312:	62bb      	str	r3, [r7, #40]	@ 0x28
 8002314:	6abb      	ldr	r3, [r7, #40]	@ 0x28
 8002316:	2b03      	cmp	r3, #3
 8002318:	dde5      	ble.n	80022e6 <OLED_pressure_Pa+0xee>
    }

    /* "Pa" unit */
    OLED_DrawLetter(page, 64, font8x8[40]);   /* P */
 800231a:	f897 3027 	ldrb.w	r3, [r7, #39]	@ 0x27
 800231e:	4a09      	ldr	r2, [pc, #36]	@ (8002344 <OLED_pressure_Pa+0x14c>)
 8002320:	2140      	movs	r1, #64	@ 0x40
 8002322:	4618      	mov	r0, r3
 8002324:	f7ff fe4f 	bl	8001fc6 <OLED_DrawLetter>
    OLED_DrawLetter(page, 72, font8x8[11]);   /* a */
 8002328:	f897 3027 	ldrb.w	r3, [r7, #39]	@ 0x27
 800232c:	4a09      	ldr	r2, [pc, #36]	@ (8002354 <OLED_pressure_Pa+0x15c>)
 800232e:	2148      	movs	r1, #72	@ 0x48
 8002330:	4618      	mov	r0, r3
 8002332:	f7ff fe48 	bl	8001fc6 <OLED_DrawLetter>
}
 8002336:	bf00      	nop
 8002338:	3730      	adds	r7, #48	@ 0x30
 800233a:	46bd      	mov	sp, r7
 800233c:	bd80      	pop	{r7, pc}
 800233e:	bf00      	nop
 8002340:	66666667 	.word	0x66666667
 8002344:	08006f90 	.word	0x08006f90
 8002348:	08006f60 	.word	0x08006f60
 800234c:	08006f50 	.word	0x08006f50
 8002350:	08006e50 	.word	0x08006e50
 8002354:	08006ea8 	.word	0x08006ea8

08002358 <OLED_dust>:

/* IMPROVED: Dust sensor with air quality evaluation */
void OLED_dust(void)
{
 8002358:	b580      	push	{r7, lr}
 800235a:	b086      	sub	sp, #24
 800235c:	af00      	add	r7, sp, #0
    int dustInt = (int)dustDensity;
 800235e:	4b3e      	ldr	r3, [pc, #248]	@ (8002458 <OLED_dust+0x100>)
 8002360:	edd3 7a00 	vldr	s15, [r3]
 8002364:	eefd 7ae7 	vcvt.s32.f32	s15, s15
 8002368:	ee17 3a90 	vmov	r3, s15
 800236c:	617b      	str	r3, [r7, #20]
    int d1 = dustInt / 100;
 800236e:	697b      	ldr	r3, [r7, #20]
 8002370:	4a3a      	ldr	r2, [pc, #232]	@ (800245c <OLED_dust+0x104>)
 8002372:	fb82 1203 	smull	r1, r2, r2, r3
 8002376:	1152      	asrs	r2, r2, #5
 8002378:	17db      	asrs	r3, r3, #31
 800237a:	1ad3      	subs	r3, r2, r3
 800237c:	613b      	str	r3, [r7, #16]
    int d2 = (dustInt / 10) % 10;
 800237e:	697b      	ldr	r3, [r7, #20]
 8002380:	4a37      	ldr	r2, [pc, #220]	@ (8002460 <OLED_dust+0x108>)
 8002382:	fb82 1203 	smull	r1, r2, r2, r3
 8002386:	1092      	asrs	r2, r2, #2
 8002388:	17db      	asrs	r3, r3, #31
 800238a:	1ad2      	subs	r2, r2, r3
 800238c:	4b34      	ldr	r3, [pc, #208]	@ (8002460 <OLED_dust+0x108>)
 800238e:	fb83 1302 	smull	r1, r3, r3, r2
 8002392:	1099      	asrs	r1, r3, #2
 8002394:	17d3      	asrs	r3, r2, #31
 8002396:	1ac9      	subs	r1, r1, r3
 8002398:	460b      	mov	r3, r1
 800239a:	009b      	lsls	r3, r3, #2
 800239c:	440b      	add	r3, r1
 800239e:	005b      	lsls	r3, r3, #1
 80023a0:	1ad3      	subs	r3, r2, r3
 80023a2:	60fb      	str	r3, [r7, #12]
    int d3 = dustInt % 10;
 80023a4:	697a      	ldr	r2, [r7, #20]
 80023a6:	4b2e      	ldr	r3, [pc, #184]	@ (8002460 <OLED_dust+0x108>)
 80023a8:	fb83 1302 	smull	r1, r3, r3, r2
 80023ac:	1099      	asrs	r1, r3, #2
 80023ae:	17d3      	asrs	r3, r2, #31
 80023b0:	1ac9      	subs	r1, r1, r3
 80023b2:	460b      	mov	r3, r1
 80023b4:	009b      	lsls	r3, r3, #2
 80023b6:	440b      	add	r3, r1
 80023b8:	005b      	lsls	r3, r3, #1
 80023ba:	1ad3      	subs	r3, r2, r3
 80023bc:	60bb      	str	r3, [r7, #8]
    const char* qualityText;


    OLED_DrawAirQualityEmoji16();
 80023be:	f000 f8b5 	bl	800252c <OLED_DrawAirQualityEmoji16>
    /* === PM2.5 VALUE (Page 6) === */
    /* Label "PM:" */
    OLED_DrawLetter(6, 0, font8x8[40]);   /* P */
 80023c2:	4a28      	ldr	r2, [pc, #160]	@ (8002464 <OLED_dust+0x10c>)
 80023c4:	2100      	movs	r1, #0
 80023c6:	2006      	movs	r0, #6
 80023c8:	f7ff fdfd 	bl	8001fc6 <OLED_DrawLetter>
    OLED_DrawLetter(6, 8, font8x8[34]);   /* M */
 80023cc:	4a26      	ldr	r2, [pc, #152]	@ (8002468 <OLED_dust+0x110>)
 80023ce:	2108      	movs	r1, #8
 80023d0:	2006      	movs	r0, #6
 80023d2:	f7ff fdf8 	bl	8001fc6 <OLED_DrawLetter>
    OLED_DrawCol(6, 16, 0b01100000);      /* : */
 80023d6:	2260      	movs	r2, #96	@ 0x60
 80023d8:	2110      	movs	r1, #16
 80023da:	2006      	movs	r0, #6
 80023dc:	f7ff fe2f 	bl	800203e <OLED_DrawCol>
    OLED_DrawCol(6, 17, 0b01100000);
 80023e0:	2260      	movs	r2, #96	@ 0x60
 80023e2:	2111      	movs	r1, #17
 80023e4:	2006      	movs	r0, #6
 80023e6:	f7ff fe2a 	bl	800203e <OLED_DrawCol>

    /* Value */
    OLED_DrawLetter(6, 24, font8x8[d1]);
 80023ea:	693b      	ldr	r3, [r7, #16]
 80023ec:	00db      	lsls	r3, r3, #3
 80023ee:	4a1f      	ldr	r2, [pc, #124]	@ (800246c <OLED_dust+0x114>)
 80023f0:	4413      	add	r3, r2
 80023f2:	461a      	mov	r2, r3
 80023f4:	2118      	movs	r1, #24
 80023f6:	2006      	movs	r0, #6
 80023f8:	f7ff fde5 	bl	8001fc6 <OLED_DrawLetter>
    OLED_DrawLetter(6, 32, font8x8[d2]);
 80023fc:	68fb      	ldr	r3, [r7, #12]
 80023fe:	00db      	lsls	r3, r3, #3
 8002400:	4a1a      	ldr	r2, [pc, #104]	@ (800246c <OLED_dust+0x114>)
 8002402:	4413      	add	r3, r2
 8002404:	461a      	mov	r2, r3
 8002406:	2120      	movs	r1, #32
 8002408:	2006      	movs	r0, #6
 800240a:	f7ff fddc 	bl	8001fc6 <OLED_DrawLetter>
    OLED_DrawLetter(6, 40, font8x8[d3]);
 800240e:	68bb      	ldr	r3, [r7, #8]
 8002410:	00db      	lsls	r3, r3, #3
 8002412:	4a16      	ldr	r2, [pc, #88]	@ (800246c <OLED_dust+0x114>)
 8002414:	4413      	add	r3, r2
 8002416:	461a      	mov	r2, r3
 8002418:	2128      	movs	r1, #40	@ 0x28
 800241a:	2006      	movs	r0, #6
 800241c:	f7ff fdd3 	bl	8001fc6 <OLED_DrawLetter>

    /* Unit "ug/m3" - simplified as "ug" only to avoid artifacts */
    OLED_DrawLetter(6, 56, font8x8[51]);  /* u */
 8002420:	4a13      	ldr	r2, [pc, #76]	@ (8002470 <OLED_dust+0x118>)
 8002422:	2138      	movs	r1, #56	@ 0x38
 8002424:	2006      	movs	r0, #6
 8002426:	f7ff fdce 	bl	8001fc6 <OLED_DrawLetter>
    OLED_DrawLetter(6, 64, font8x8[23]);  /* g */
 800242a:	4a12      	ldr	r2, [pc, #72]	@ (8002474 <OLED_dust+0x11c>)
 800242c:	2140      	movs	r1, #64	@ 0x40
 800242e:	2006      	movs	r0, #6
 8002430:	f7ff fdc9 	bl	8001fc6 <OLED_DrawLetter>

    /* === AIR QUALITY TEXT (Page 7) === */
    qualityText = GetAirQualityText(dustDensity);
 8002434:	4b08      	ldr	r3, [pc, #32]	@ (8002458 <OLED_dust+0x100>)
 8002436:	edd3 7a00 	vldr	s15, [r3]
 800243a:	eeb0 0a67 	vmov.f32	s0, s15
 800243e:	f7ff fcbd 	bl	8001dbc <GetAirQualityText>
 8002442:	6078      	str	r0, [r7, #4]
    OLED_DrawString(7, 0, qualityText);
 8002444:	687a      	ldr	r2, [r7, #4]
 8002446:	2100      	movs	r1, #0
 8002448:	2007      	movs	r0, #7
 800244a:	f7ff fd11 	bl	8001e70 <OLED_DrawString>
}
 800244e:	bf00      	nop
 8002450:	3718      	adds	r7, #24
 8002452:	46bd      	mov	sp, r7
 8002454:	bd80      	pop	{r7, pc}
 8002456:	bf00      	nop
 8002458:	2000027c 	.word	0x2000027c
 800245c:	51eb851f 	.word	0x51eb851f
 8002460:	66666667 	.word	0x66666667
 8002464:	08006f90 	.word	0x08006f90
 8002468:	08006f60 	.word	0x08006f60
 800246c:	08006e50 	.word	0x08006e50
 8002470:	08006fe8 	.word	0x08006fe8
 8002474:	08006f08 	.word	0x08006f08

08002478 <GetAirQualityEmoji16>:

static const uint8_t* GetAirQualityEmoji16(float pm25)
{
 8002478:	b480      	push	{r7}
 800247a:	b083      	sub	sp, #12
 800247c:	af00      	add	r7, sp, #0
 800247e:	ed87 0a01 	vstr	s0, [r7, #4]
    if (pm25 <= 35.0f)
 8002482:	edd7 7a01 	vldr	s15, [r7, #4]
 8002486:	ed9f 7a1e 	vldr	s14, [pc, #120]	@ 8002500 <GetAirQualityEmoji16+0x88>
 800248a:	eef4 7ac7 	vcmpe.f32	s15, s14
 800248e:	eef1 fa10 	vmrs	APSR_nzcv, fpscr
 8002492:	d801      	bhi.n	8002498 <GetAirQualityEmoji16+0x20>
        return emoji16_excellent;   /* :D */
 8002494:	4b1b      	ldr	r3, [pc, #108]	@ (8002504 <GetAirQualityEmoji16+0x8c>)
 8002496:	e02c      	b.n	80024f2 <GetAirQualityEmoji16+0x7a>
    else if (pm25 <= 75.0f)
 8002498:	edd7 7a01 	vldr	s15, [r7, #4]
 800249c:	ed9f 7a1a 	vldr	s14, [pc, #104]	@ 8002508 <GetAirQualityEmoji16+0x90>
 80024a0:	eef4 7ac7 	vcmpe.f32	s15, s14
 80024a4:	eef1 fa10 	vmrs	APSR_nzcv, fpscr
 80024a8:	d801      	bhi.n	80024ae <GetAirQualityEmoji16+0x36>
        return emoji16_good;        /* :) */
 80024aa:	4b18      	ldr	r3, [pc, #96]	@ (800250c <GetAirQualityEmoji16+0x94>)
 80024ac:	e021      	b.n	80024f2 <GetAirQualityEmoji16+0x7a>
    else if (pm25 <= 115.0f)
 80024ae:	edd7 7a01 	vldr	s15, [r7, #4]
 80024b2:	ed9f 7a17 	vldr	s14, [pc, #92]	@ 8002510 <GetAirQualityEmoji16+0x98>
 80024b6:	eef4 7ac7 	vcmpe.f32	s15, s14
 80024ba:	eef1 fa10 	vmrs	APSR_nzcv, fpscr
 80024be:	d801      	bhi.n	80024c4 <GetAirQualityEmoji16+0x4c>
        return emoji16_moderate;    /* :| */
 80024c0:	4b14      	ldr	r3, [pc, #80]	@ (8002514 <GetAirQualityEmoji16+0x9c>)
 80024c2:	e016      	b.n	80024f2 <GetAirQualityEmoji16+0x7a>
    else if (pm25 <= 150.0f)
 80024c4:	edd7 7a01 	vldr	s15, [r7, #4]
 80024c8:	ed9f 7a13 	vldr	s14, [pc, #76]	@ 8002518 <GetAirQualityEmoji16+0xa0>
 80024cc:	eef4 7ac7 	vcmpe.f32	s15, s14
 80024d0:	eef1 fa10 	vmrs	APSR_nzcv, fpscr
 80024d4:	d801      	bhi.n	80024da <GetAirQualityEmoji16+0x62>
        return emoji16_poor;        /* :( */
 80024d6:	4b11      	ldr	r3, [pc, #68]	@ (800251c <GetAirQualityEmoji16+0xa4>)
 80024d8:	e00b      	b.n	80024f2 <GetAirQualityEmoji16+0x7a>
    else if (pm25 <= 250.0f)
 80024da:	edd7 7a01 	vldr	s15, [r7, #4]
 80024de:	ed9f 7a10 	vldr	s14, [pc, #64]	@ 8002520 <GetAirQualityEmoji16+0xa8>
 80024e2:	eef4 7ac7 	vcmpe.f32	s15, s14
 80024e6:	eef1 fa10 	vmrs	APSR_nzcv, fpscr
 80024ea:	d801      	bhi.n	80024f0 <GetAirQualityEmoji16+0x78>
        return emoji16_bad;         /* :C */
 80024ec:	4b0d      	ldr	r3, [pc, #52]	@ (8002524 <GetAirQualityEmoji16+0xac>)
 80024ee:	e000      	b.n	80024f2 <GetAirQualityEmoji16+0x7a>
    else
        return emoji16_hazardous;   /* maska */
 80024f0:	4b0d      	ldr	r3, [pc, #52]	@ (8002528 <GetAirQualityEmoji16+0xb0>)
}
 80024f2:	4618      	mov	r0, r3
 80024f4:	370c      	adds	r7, #12
 80024f6:	46bd      	mov	sp, r7
 80024f8:	f85d 7b04 	ldr.w	r7, [sp], #4
 80024fc:	4770      	bx	lr
 80024fe:	bf00      	nop
 8002500:	420c0000 	.word	0x420c0000
 8002504:	08007048 	.word	0x08007048
 8002508:	42960000 	.word	0x42960000
 800250c:	08007068 	.word	0x08007068
 8002510:	42e60000 	.word	0x42e60000
 8002514:	08007088 	.word	0x08007088
 8002518:	43160000 	.word	0x43160000
 800251c:	080070a8 	.word	0x080070a8
 8002520:	437a0000 	.word	0x437a0000
 8002524:	080070c8 	.word	0x080070c8
 8002528:	080070e8 	.word	0x080070e8

0800252c <OLED_DrawAirQualityEmoji16>:

void OLED_DrawAirQualityEmoji16(void)
{
 800252c:	b580      	push	{r7, lr}
 800252e:	b08a      	sub	sp, #40	@ 0x28
 8002530:	af00      	add	r7, sp, #0
    const uint8_t* emoji = GetAirQualityEmoji16(dustDensity);
 8002532:	4b23      	ldr	r3, [pc, #140]	@ (80025c0 <OLED_DrawAirQualityEmoji16+0x94>)
 8002534:	edd3 7a00 	vldr	s15, [r3]
 8002538:	eeb0 0a67 	vmov.f32	s0, s15
 800253c:	f7ff ff9c 	bl	8002478 <GetAirQualityEmoji16>
 8002540:	6238      	str	r0, [r7, #32]
    uint8_t topPart[16];
    uint8_t bottomPart[16];
    int i;

    /* Kopiuj dane do buforw */
    for (i = 0; i < 16; i++)
 8002542:	2300      	movs	r3, #0
 8002544:	627b      	str	r3, [r7, #36]	@ 0x24
 8002546:	e017      	b.n	8002578 <OLED_DrawAirQualityEmoji16+0x4c>
    {
        topPart[i] = emoji[i];
 8002548:	6a7b      	ldr	r3, [r7, #36]	@ 0x24
 800254a:	6a3a      	ldr	r2, [r7, #32]
 800254c:	4413      	add	r3, r2
 800254e:	7819      	ldrb	r1, [r3, #0]
 8002550:	f107 0210 	add.w	r2, r7, #16
 8002554:	6a7b      	ldr	r3, [r7, #36]	@ 0x24
 8002556:	4413      	add	r3, r2
 8002558:	460a      	mov	r2, r1
 800255a:	701a      	strb	r2, [r3, #0]
        bottomPart[i] = emoji[16 + i];
 800255c:	6a7b      	ldr	r3, [r7, #36]	@ 0x24
 800255e:	3310      	adds	r3, #16
 8002560:	461a      	mov	r2, r3
 8002562:	6a3b      	ldr	r3, [r7, #32]
 8002564:	4413      	add	r3, r2
 8002566:	7819      	ldrb	r1, [r3, #0]
 8002568:	463a      	mov	r2, r7
 800256a:	6a7b      	ldr	r3, [r7, #36]	@ 0x24
 800256c:	4413      	add	r3, r2
 800256e:	460a      	mov	r2, r1
 8002570:	701a      	strb	r2, [r3, #0]
    for (i = 0; i < 16; i++)
 8002572:	6a7b      	ldr	r3, [r7, #36]	@ 0x24
 8002574:	3301      	adds	r3, #1
 8002576:	627b      	str	r3, [r7, #36]	@ 0x24
 8002578:	6a7b      	ldr	r3, [r7, #36]	@ 0x24
 800257a:	2b0f      	cmp	r3, #15
 800257c:	dde4      	ble.n	8002548 <OLED_DrawAirQualityEmoji16+0x1c>
    }

    /* Grna poowa - Page 0, kolumny 112-127 */
    OLED_WriteCommand(0xB0 + 0);           /* Page 0 */
 800257e:	20b0      	movs	r0, #176	@ 0xb0
 8002580:	f7ff fbaa 	bl	8001cd8 <OLED_WriteCommand>
    OLED_WriteCommand(0x02 + (112 & 0x0F)); /* Column 112 low nibble */
 8002584:	2002      	movs	r0, #2
 8002586:	f7ff fba7 	bl	8001cd8 <OLED_WriteCommand>
    OLED_WriteCommand(0x10 + (112 >> 4));   /* Column 112 high nibble */
 800258a:	2017      	movs	r0, #23
 800258c:	f7ff fba4 	bl	8001cd8 <OLED_WriteCommand>
    OLED_WriteData(topPart, 16);
 8002590:	f107 0310 	add.w	r3, r7, #16
 8002594:	2110      	movs	r1, #16
 8002596:	4618      	mov	r0, r3
 8002598:	f7ff fbba 	bl	8001d10 <OLED_WriteData>

    /* Dolna poowa - Page 1, kolumny 112-127 */
    OLED_WriteCommand(0xB0 + 1);           /* Page 1 */
 800259c:	20b1      	movs	r0, #177	@ 0xb1
 800259e:	f7ff fb9b 	bl	8001cd8 <OLED_WriteCommand>
    OLED_WriteCommand(0x02 + (112 & 0x0F));
 80025a2:	2002      	movs	r0, #2
 80025a4:	f7ff fb98 	bl	8001cd8 <OLED_WriteCommand>
    OLED_WriteCommand(0x10 + (112 >> 4));
 80025a8:	2017      	movs	r0, #23
 80025aa:	f7ff fb95 	bl	8001cd8 <OLED_WriteCommand>
    OLED_WriteData(bottomPart, 16);
 80025ae:	463b      	mov	r3, r7
 80025b0:	2110      	movs	r1, #16
 80025b2:	4618      	mov	r0, r3
 80025b4:	f7ff fbac 	bl	8001d10 <OLED_WriteData>
}
 80025b8:	bf00      	nop
 80025ba:	3728      	adds	r7, #40	@ 0x28
 80025bc:	46bd      	mov	sp, r7
 80025be:	bd80      	pop	{r7, pc}
 80025c0:	2000027c 	.word	0x2000027c

080025c4 <HAL_MspInit>:
/* USER CODE END 0 */
/**
  * Initializes the Global MSP.
  */
void HAL_MspInit(void)
{
 80025c4:	b480      	push	{r7}
 80025c6:	b083      	sub	sp, #12
 80025c8:	af00      	add	r7, sp, #0

  /* USER CODE BEGIN MspInit 0 */

  /* USER CODE END MspInit 0 */

  __HAL_RCC_PWR_CLK_ENABLE();
 80025ca:	4b0f      	ldr	r3, [pc, #60]	@ (8002608 <HAL_MspInit+0x44>)
 80025cc:	6c1b      	ldr	r3, [r3, #64]	@ 0x40
 80025ce:	4a0e      	ldr	r2, [pc, #56]	@ (8002608 <HAL_MspInit+0x44>)
 80025d0:	f043 5380 	orr.w	r3, r3, #268435456	@ 0x10000000
 80025d4:	6413      	str	r3, [r2, #64]	@ 0x40
 80025d6:	4b0c      	ldr	r3, [pc, #48]	@ (8002608 <HAL_MspInit+0x44>)
 80025d8:	6c1b      	ldr	r3, [r3, #64]	@ 0x40
 80025da:	f003 5380 	and.w	r3, r3, #268435456	@ 0x10000000
 80025de:	607b      	str	r3, [r7, #4]
 80025e0:	687b      	ldr	r3, [r7, #4]
  __HAL_RCC_SYSCFG_CLK_ENABLE();
 80025e2:	4b09      	ldr	r3, [pc, #36]	@ (8002608 <HAL_MspInit+0x44>)
 80025e4:	6c5b      	ldr	r3, [r3, #68]	@ 0x44
 80025e6:	4a08      	ldr	r2, [pc, #32]	@ (8002608 <HAL_MspInit+0x44>)
 80025e8:	f443 4380 	orr.w	r3, r3, #16384	@ 0x4000
 80025ec:	6453      	str	r3, [r2, #68]	@ 0x44
 80025ee:	4b06      	ldr	r3, [pc, #24]	@ (8002608 <HAL_MspInit+0x44>)
 80025f0:	6c5b      	ldr	r3, [r3, #68]	@ 0x44
 80025f2:	f403 4380 	and.w	r3, r3, #16384	@ 0x4000
 80025f6:	603b      	str	r3, [r7, #0]
 80025f8:	683b      	ldr	r3, [r7, #0]
  /* System interrupt init*/

  /* USER CODE BEGIN MspInit 1 */

  /* USER CODE END MspInit 1 */
}
 80025fa:	bf00      	nop
 80025fc:	370c      	adds	r7, #12
 80025fe:	46bd      	mov	sp, r7
 8002600:	f85d 7b04 	ldr.w	r7, [sp], #4
 8002604:	4770      	bx	lr
 8002606:	bf00      	nop
 8002608:	40023800 	.word	0x40023800

0800260c <HAL_ADC_MspInit>:
  * This function configures the hardware resources used in this example
  * @param hadc: ADC handle pointer
  * @retval None
  */
void HAL_ADC_MspInit(ADC_HandleTypeDef* hadc)
{
 800260c:	b580      	push	{r7, lr}
 800260e:	b08a      	sub	sp, #40	@ 0x28
 8002610:	af00      	add	r7, sp, #0
 8002612:	6078      	str	r0, [r7, #4]
  GPIO_InitTypeDef GPIO_InitStruct = {0};
 8002614:	f107 0314 	add.w	r3, r7, #20
 8002618:	2200      	movs	r2, #0
 800261a:	601a      	str	r2, [r3, #0]
 800261c:	605a      	str	r2, [r3, #4]
 800261e:	609a      	str	r2, [r3, #8]
 8002620:	60da      	str	r2, [r3, #12]
 8002622:	611a      	str	r2, [r3, #16]
  if(hadc->Instance==ADC1)
 8002624:	687b      	ldr	r3, [r7, #4]
 8002626:	681b      	ldr	r3, [r3, #0]
 8002628:	4a15      	ldr	r2, [pc, #84]	@ (8002680 <HAL_ADC_MspInit+0x74>)
 800262a:	4293      	cmp	r3, r2
 800262c:	d123      	bne.n	8002676 <HAL_ADC_MspInit+0x6a>
  {
    /* USER CODE BEGIN ADC1_MspInit 0 */

    /* USER CODE END ADC1_MspInit 0 */
    /* Peripheral clock enable */
    __HAL_RCC_ADC1_CLK_ENABLE();
 800262e:	4b15      	ldr	r3, [pc, #84]	@ (8002684 <HAL_ADC_MspInit+0x78>)
 8002630:	6c5b      	ldr	r3, [r3, #68]	@ 0x44
 8002632:	4a14      	ldr	r2, [pc, #80]	@ (8002684 <HAL_ADC_MspInit+0x78>)
 8002634:	f443 7380 	orr.w	r3, r3, #256	@ 0x100
 8002638:	6453      	str	r3, [r2, #68]	@ 0x44
 800263a:	4b12      	ldr	r3, [pc, #72]	@ (8002684 <HAL_ADC_MspInit+0x78>)
 800263c:	6c5b      	ldr	r3, [r3, #68]	@ 0x44
 800263e:	f403 7380 	and.w	r3, r3, #256	@ 0x100
 8002642:	613b      	str	r3, [r7, #16]
 8002644:	693b      	ldr	r3, [r7, #16]

    __HAL_RCC_GPIOB_CLK_ENABLE();
 8002646:	4b0f      	ldr	r3, [pc, #60]	@ (8002684 <HAL_ADC_MspInit+0x78>)
 8002648:	6b1b      	ldr	r3, [r3, #48]	@ 0x30
 800264a:	4a0e      	ldr	r2, [pc, #56]	@ (8002684 <HAL_ADC_MspInit+0x78>)
 800264c:	f043 0302 	orr.w	r3, r3, #2
 8002650:	6313      	str	r3, [r2, #48]	@ 0x30
 8002652:	4b0c      	ldr	r3, [pc, #48]	@ (8002684 <HAL_ADC_MspInit+0x78>)
 8002654:	6b1b      	ldr	r3, [r3, #48]	@ 0x30
 8002656:	f003 0302 	and.w	r3, r3, #2
 800265a:	60fb      	str	r3, [r7, #12]
 800265c:	68fb      	ldr	r3, [r7, #12]
    /**ADC1 GPIO Configuration
    PB1     ------> ADC1_IN9
    */
    GPIO_InitStruct.Pin = GP_ADC_Pin;
 800265e:	2302      	movs	r3, #2
 8002660:	617b      	str	r3, [r7, #20]
    GPIO_InitStruct.Mode = GPIO_MODE_ANALOG;
 8002662:	2303      	movs	r3, #3
 8002664:	61bb      	str	r3, [r7, #24]
    GPIO_InitStruct.Pull = GPIO_NOPULL;
 8002666:	2300      	movs	r3, #0
 8002668:	61fb      	str	r3, [r7, #28]
    HAL_GPIO_Init(GP_ADC_GPIO_Port, &GPIO_InitStruct);
 800266a:	f107 0314 	add.w	r3, r7, #20
 800266e:	4619      	mov	r1, r3
 8002670:	4805      	ldr	r0, [pc, #20]	@ (8002688 <HAL_ADC_MspInit+0x7c>)
 8002672:	f000 ffc1 	bl	80035f8 <HAL_GPIO_Init>

    /* USER CODE END ADC1_MspInit 1 */

  }

}
 8002676:	bf00      	nop
 8002678:	3728      	adds	r7, #40	@ 0x28
 800267a:	46bd      	mov	sp, r7
 800267c:	bd80      	pop	{r7, pc}
 800267e:	bf00      	nop
 8002680:	40012000 	.word	0x40012000
 8002684:	40023800 	.word	0x40023800
 8002688:	40020400 	.word	0x40020400

0800268c <HAL_I2C_MspInit>:
  * This function configures the hardware resources used in this example
  * @param hi2c: I2C handle pointer
  * @retval None
  */
void HAL_I2C_MspInit(I2C_HandleTypeDef* hi2c)
{
 800268c:	b580      	push	{r7, lr}
 800268e:	b0ae      	sub	sp, #184	@ 0xb8
 8002690:	af00      	add	r7, sp, #0
 8002692:	6078      	str	r0, [r7, #4]
  GPIO_InitTypeDef GPIO_InitStruct = {0};
 8002694:	f107 03a4 	add.w	r3, r7, #164	@ 0xa4
 8002698:	2200      	movs	r2, #0
 800269a:	601a      	str	r2, [r3, #0]
 800269c:	605a      	str	r2, [r3, #4]
 800269e:	609a      	str	r2, [r3, #8]
 80026a0:	60da      	str	r2, [r3, #12]
 80026a2:	611a      	str	r2, [r3, #16]
  RCC_PeriphCLKInitTypeDef PeriphClkInitStruct = {0};
 80026a4:	f107 0314 	add.w	r3, r7, #20
 80026a8:	2290      	movs	r2, #144	@ 0x90
 80026aa:	2100      	movs	r1, #0
 80026ac:	4618      	mov	r0, r3
 80026ae:	f004 f98b 	bl	80069c8 <memset>
  if(hi2c->Instance==I2C1)
 80026b2:	687b      	ldr	r3, [r7, #4]
 80026b4:	681b      	ldr	r3, [r3, #0]
 80026b6:	4a22      	ldr	r2, [pc, #136]	@ (8002740 <HAL_I2C_MspInit+0xb4>)
 80026b8:	4293      	cmp	r3, r2
 80026ba:	d13c      	bne.n	8002736 <HAL_I2C_MspInit+0xaa>

    /* USER CODE END I2C1_MspInit 0 */

  /** Initializes the peripherals clock
  */
    PeriphClkInitStruct.PeriphClockSelection = RCC_PERIPHCLK_I2C1;
 80026bc:	f44f 4380 	mov.w	r3, #16384	@ 0x4000
 80026c0:	617b      	str	r3, [r7, #20]
    PeriphClkInitStruct.I2c1ClockSelection = RCC_I2C1CLKSOURCE_PCLK1;
 80026c2:	2300      	movs	r3, #0
 80026c4:	67bb      	str	r3, [r7, #120]	@ 0x78
    if (HAL_RCCEx_PeriphCLKConfig(&PeriphClkInitStruct) != HAL_OK)
 80026c6:	f107 0314 	add.w	r3, r7, #20
 80026ca:	4618      	mov	r0, r3
 80026cc:	f002 fc84 	bl	8004fd8 <HAL_RCCEx_PeriphCLKConfig>
 80026d0:	4603      	mov	r3, r0
 80026d2:	2b00      	cmp	r3, #0
 80026d4:	d001      	beq.n	80026da <HAL_I2C_MspInit+0x4e>
    {
      Error_Handler();
 80026d6:	f7ff fab3 	bl	8001c40 <Error_Handler>
    }

    __HAL_RCC_GPIOB_CLK_ENABLE();
 80026da:	4b1a      	ldr	r3, [pc, #104]	@ (8002744 <HAL_I2C_MspInit+0xb8>)
 80026dc:	6b1b      	ldr	r3, [r3, #48]	@ 0x30
 80026de:	4a19      	ldr	r2, [pc, #100]	@ (8002744 <HAL_I2C_MspInit+0xb8>)
 80026e0:	f043 0302 	orr.w	r3, r3, #2
 80026e4:	6313      	str	r3, [r2, #48]	@ 0x30
 80026e6:	4b17      	ldr	r3, [pc, #92]	@ (8002744 <HAL_I2C_MspInit+0xb8>)
 80026e8:	6b1b      	ldr	r3, [r3, #48]	@ 0x30
 80026ea:	f003 0302 	and.w	r3, r3, #2
 80026ee:	613b      	str	r3, [r7, #16]
 80026f0:	693b      	ldr	r3, [r7, #16]
    /**I2C1 GPIO Configuration
    PB8     ------> I2C1_SCL
    PB9     ------> I2C1_SDA
    */
    GPIO_InitStruct.Pin = GPIO_PIN_8|GPIO_PIN_9;
 80026f2:	f44f 7340 	mov.w	r3, #768	@ 0x300
 80026f6:	f8c7 30a4 	str.w	r3, [r7, #164]	@ 0xa4
    GPIO_InitStruct.Mode = GPIO_MODE_AF_OD;
 80026fa:	2312      	movs	r3, #18
 80026fc:	f8c7 30a8 	str.w	r3, [r7, #168]	@ 0xa8
    GPIO_InitStruct.Pull = GPIO_NOPULL;
 8002700:	2300      	movs	r3, #0
 8002702:	f8c7 30ac 	str.w	r3, [r7, #172]	@ 0xac
    GPIO_InitStruct.Speed = GPIO_SPEED_FREQ_VERY_HIGH;
 8002706:	2303      	movs	r3, #3
 8002708:	f8c7 30b0 	str.w	r3, [r7, #176]	@ 0xb0
    GPIO_InitStruct.Alternate = GPIO_AF4_I2C1;
 800270c:	2304      	movs	r3, #4
 800270e:	f8c7 30b4 	str.w	r3, [r7, #180]	@ 0xb4
    HAL_GPIO_Init(GPIOB, &GPIO_InitStruct);
 8002712:	f107 03a4 	add.w	r3, r7, #164	@ 0xa4
 8002716:	4619      	mov	r1, r3
 8002718:	480b      	ldr	r0, [pc, #44]	@ (8002748 <HAL_I2C_MspInit+0xbc>)
 800271a:	f000 ff6d 	bl	80035f8 <HAL_GPIO_Init>

    /* Peripheral clock enable */
    __HAL_RCC_I2C1_CLK_ENABLE();
 800271e:	4b09      	ldr	r3, [pc, #36]	@ (8002744 <HAL_I2C_MspInit+0xb8>)
 8002720:	6c1b      	ldr	r3, [r3, #64]	@ 0x40
 8002722:	4a08      	ldr	r2, [pc, #32]	@ (8002744 <HAL_I2C_MspInit+0xb8>)
 8002724:	f443 1300 	orr.w	r3, r3, #2097152	@ 0x200000
 8002728:	6413      	str	r3, [r2, #64]	@ 0x40
 800272a:	4b06      	ldr	r3, [pc, #24]	@ (8002744 <HAL_I2C_MspInit+0xb8>)
 800272c:	6c1b      	ldr	r3, [r3, #64]	@ 0x40
 800272e:	f403 1300 	and.w	r3, r3, #2097152	@ 0x200000
 8002732:	60fb      	str	r3, [r7, #12]
 8002734:	68fb      	ldr	r3, [r7, #12]

    /* USER CODE END I2C1_MspInit 1 */

  }

}
 8002736:	bf00      	nop
 8002738:	37b8      	adds	r7, #184	@ 0xb8
 800273a:	46bd      	mov	sp, r7
 800273c:	bd80      	pop	{r7, pc}
 800273e:	bf00      	nop
 8002740:	40005400 	.word	0x40005400
 8002744:	40023800 	.word	0x40023800
 8002748:	40020400 	.word	0x40020400

0800274c <HAL_SPI_MspInit>:
  * This function configures the hardware resources used in this example
  * @param hspi: SPI handle pointer
  * @retval None
  */
void HAL_SPI_MspInit(SPI_HandleTypeDef* hspi)
{
 800274c:	b580      	push	{r7, lr}
 800274e:	b08a      	sub	sp, #40	@ 0x28
 8002750:	af00      	add	r7, sp, #0
 8002752:	6078      	str	r0, [r7, #4]
  GPIO_InitTypeDef GPIO_InitStruct = {0};
 8002754:	f107 0314 	add.w	r3, r7, #20
 8002758:	2200      	movs	r2, #0
 800275a:	601a      	str	r2, [r3, #0]
 800275c:	605a      	str	r2, [r3, #4]
 800275e:	609a      	str	r2, [r3, #8]
 8002760:	60da      	str	r2, [r3, #12]
 8002762:	611a      	str	r2, [r3, #16]
  if(hspi->Instance==SPI1)
 8002764:	687b      	ldr	r3, [r7, #4]
 8002766:	681b      	ldr	r3, [r3, #0]
 8002768:	4a17      	ldr	r2, [pc, #92]	@ (80027c8 <HAL_SPI_MspInit+0x7c>)
 800276a:	4293      	cmp	r3, r2
 800276c:	d127      	bne.n	80027be <HAL_SPI_MspInit+0x72>
  {
    /* USER CODE BEGIN SPI1_MspInit 0 */

    /* USER CODE END SPI1_MspInit 0 */
    /* Peripheral clock enable */
    __HAL_RCC_SPI1_CLK_ENABLE();
 800276e:	4b17      	ldr	r3, [pc, #92]	@ (80027cc <HAL_SPI_MspInit+0x80>)
 8002770:	6c5b      	ldr	r3, [r3, #68]	@ 0x44
 8002772:	4a16      	ldr	r2, [pc, #88]	@ (80027cc <HAL_SPI_MspInit+0x80>)
 8002774:	f443 5380 	orr.w	r3, r3, #4096	@ 0x1000
 8002778:	6453      	str	r3, [r2, #68]	@ 0x44
 800277a:	4b14      	ldr	r3, [pc, #80]	@ (80027cc <HAL_SPI_MspInit+0x80>)
 800277c:	6c5b      	ldr	r3, [r3, #68]	@ 0x44
 800277e:	f403 5380 	and.w	r3, r3, #4096	@ 0x1000
 8002782:	613b      	str	r3, [r7, #16]
 8002784:	693b      	ldr	r3, [r7, #16]

    __HAL_RCC_GPIOA_CLK_ENABLE();
 8002786:	4b11      	ldr	r3, [pc, #68]	@ (80027cc <HAL_SPI_MspInit+0x80>)
 8002788:	6b1b      	ldr	r3, [r3, #48]	@ 0x30
 800278a:	4a10      	ldr	r2, [pc, #64]	@ (80027cc <HAL_SPI_MspInit+0x80>)
 800278c:	f043 0301 	orr.w	r3, r3, #1
 8002790:	6313      	str	r3, [r2, #48]	@ 0x30
 8002792:	4b0e      	ldr	r3, [pc, #56]	@ (80027cc <HAL_SPI_MspInit+0x80>)
 8002794:	6b1b      	ldr	r3, [r3, #48]	@ 0x30
 8002796:	f003 0301 	and.w	r3, r3, #1
 800279a:	60fb      	str	r3, [r7, #12]
 800279c:	68fb      	ldr	r3, [r7, #12]
    /**SPI1 GPIO Configuration
    PA5     ------> SPI1_SCK
    PA7     ------> SPI1_MOSI
    */
    GPIO_InitStruct.Pin = SPI_A_SCK_Pin|SPI_A_MISO_Pin;
 800279e:	23a0      	movs	r3, #160	@ 0xa0
 80027a0:	617b      	str	r3, [r7, #20]
    GPIO_InitStruct.Mode = GPIO_MODE_AF_PP;
 80027a2:	2302      	movs	r3, #2
 80027a4:	61bb      	str	r3, [r7, #24]
    GPIO_InitStruct.Pull = GPIO_NOPULL;
 80027a6:	2300      	movs	r3, #0
 80027a8:	61fb      	str	r3, [r7, #28]
    GPIO_InitStruct.Speed = GPIO_SPEED_FREQ_VERY_HIGH;
 80027aa:	2303      	movs	r3, #3
 80027ac:	623b      	str	r3, [r7, #32]
    GPIO_InitStruct.Alternate = GPIO_AF5_SPI1;
 80027ae:	2305      	movs	r3, #5
 80027b0:	627b      	str	r3, [r7, #36]	@ 0x24
    HAL_GPIO_Init(GPIOA, &GPIO_InitStruct);
 80027b2:	f107 0314 	add.w	r3, r7, #20
 80027b6:	4619      	mov	r1, r3
 80027b8:	4805      	ldr	r0, [pc, #20]	@ (80027d0 <HAL_SPI_MspInit+0x84>)
 80027ba:	f000 ff1d 	bl	80035f8 <HAL_GPIO_Init>

    /* USER CODE END SPI1_MspInit 1 */

  }

}
 80027be:	bf00      	nop
 80027c0:	3728      	adds	r7, #40	@ 0x28
 80027c2:	46bd      	mov	sp, r7
 80027c4:	bd80      	pop	{r7, pc}
 80027c6:	bf00      	nop
 80027c8:	40013000 	.word	0x40013000
 80027cc:	40023800 	.word	0x40023800
 80027d0:	40020000 	.word	0x40020000

080027d4 <HAL_TIM_Base_MspInit>:
  * This function configures the hardware resources used in this example
  * @param htim_base: TIM_Base handle pointer
  * @retval None
  */
void HAL_TIM_Base_MspInit(TIM_HandleTypeDef* htim_base)
{
 80027d4:	b580      	push	{r7, lr}
 80027d6:	b084      	sub	sp, #16
 80027d8:	af00      	add	r7, sp, #0
 80027da:	6078      	str	r0, [r7, #4]
  if(htim_base->Instance==TIM1)
 80027dc:	687b      	ldr	r3, [r7, #4]
 80027de:	681b      	ldr	r3, [r3, #0]
 80027e0:	4a16      	ldr	r2, [pc, #88]	@ (800283c <HAL_TIM_Base_MspInit+0x68>)
 80027e2:	4293      	cmp	r3, r2
 80027e4:	d10c      	bne.n	8002800 <HAL_TIM_Base_MspInit+0x2c>
  {
    /* USER CODE BEGIN TIM1_MspInit 0 */

    /* USER CODE END TIM1_MspInit 0 */
    /* Peripheral clock enable */
    __HAL_RCC_TIM1_CLK_ENABLE();
 80027e6:	4b16      	ldr	r3, [pc, #88]	@ (8002840 <HAL_TIM_Base_MspInit+0x6c>)
 80027e8:	6c5b      	ldr	r3, [r3, #68]	@ 0x44
 80027ea:	4a15      	ldr	r2, [pc, #84]	@ (8002840 <HAL_TIM_Base_MspInit+0x6c>)
 80027ec:	f043 0301 	orr.w	r3, r3, #1
 80027f0:	6453      	str	r3, [r2, #68]	@ 0x44
 80027f2:	4b13      	ldr	r3, [pc, #76]	@ (8002840 <HAL_TIM_Base_MspInit+0x6c>)
 80027f4:	6c5b      	ldr	r3, [r3, #68]	@ 0x44
 80027f6:	f003 0301 	and.w	r3, r3, #1
 80027fa:	60fb      	str	r3, [r7, #12]
 80027fc:	68fb      	ldr	r3, [r7, #12]
    /* USER CODE BEGIN TIM2_MspInit 1 */

    /* USER CODE END TIM2_MspInit 1 */
  }

}
 80027fe:	e018      	b.n	8002832 <HAL_TIM_Base_MspInit+0x5e>
  else if(htim_base->Instance==TIM2)
 8002800:	687b      	ldr	r3, [r7, #4]
 8002802:	681b      	ldr	r3, [r3, #0]
 8002804:	f1b3 4f80 	cmp.w	r3, #1073741824	@ 0x40000000
 8002808:	d113      	bne.n	8002832 <HAL_TIM_Base_MspInit+0x5e>
    __HAL_RCC_TIM2_CLK_ENABLE();
 800280a:	4b0d      	ldr	r3, [pc, #52]	@ (8002840 <HAL_TIM_Base_MspInit+0x6c>)
 800280c:	6c1b      	ldr	r3, [r3, #64]	@ 0x40
 800280e:	4a0c      	ldr	r2, [pc, #48]	@ (8002840 <HAL_TIM_Base_MspInit+0x6c>)
 8002810:	f043 0301 	orr.w	r3, r3, #1
 8002814:	6413      	str	r3, [r2, #64]	@ 0x40
 8002816:	4b0a      	ldr	r3, [pc, #40]	@ (8002840 <HAL_TIM_Base_MspInit+0x6c>)
 8002818:	6c1b      	ldr	r3, [r3, #64]	@ 0x40
 800281a:	f003 0301 	and.w	r3, r3, #1
 800281e:	60bb      	str	r3, [r7, #8]
 8002820:	68bb      	ldr	r3, [r7, #8]
    HAL_NVIC_SetPriority(TIM2_IRQn, 0, 0);
 8002822:	2200      	movs	r2, #0
 8002824:	2100      	movs	r1, #0
 8002826:	201c      	movs	r0, #28
 8002828:	f000 fe37 	bl	800349a <HAL_NVIC_SetPriority>
    HAL_NVIC_EnableIRQ(TIM2_IRQn);
 800282c:	201c      	movs	r0, #28
 800282e:	f000 fe50 	bl	80034d2 <HAL_NVIC_EnableIRQ>
}
 8002832:	bf00      	nop
 8002834:	3710      	adds	r7, #16
 8002836:	46bd      	mov	sp, r7
 8002838:	bd80      	pop	{r7, pc}
 800283a:	bf00      	nop
 800283c:	40010000 	.word	0x40010000
 8002840:	40023800 	.word	0x40023800

08002844 <NMI_Handler>:
/******************************************************************************/
/**
  * @brief This function handles Non maskable interrupt.
  */
void NMI_Handler(void)
{
 8002844:	b480      	push	{r7}
 8002846:	af00      	add	r7, sp, #0
  /* USER CODE BEGIN NonMaskableInt_IRQn 0 */

  /* USER CODE END NonMaskableInt_IRQn 0 */
  /* USER CODE BEGIN NonMaskableInt_IRQn 1 */
   while (1)
 8002848:	bf00      	nop
 800284a:	e7fd      	b.n	8002848 <NMI_Handler+0x4>

0800284c <HardFault_Handler>:

/**
  * @brief This function handles Hard fault interrupt.
  */
void HardFault_Handler(void)
{
 800284c:	b480      	push	{r7}
 800284e:	af00      	add	r7, sp, #0
  /* USER CODE BEGIN HardFault_IRQn 0 */

  /* USER CODE END HardFault_IRQn 0 */
  while (1)
 8002850:	bf00      	nop
 8002852:	e7fd      	b.n	8002850 <HardFault_Handler+0x4>

08002854 <MemManage_Handler>:

/**
  * @brief This function handles Memory management fault.
  */
void MemManage_Handler(void)
{
 8002854:	b480      	push	{r7}
 8002856:	af00      	add	r7, sp, #0
  /* USER CODE BEGIN MemoryManagement_IRQn 0 */

  /* USER CODE END MemoryManagement_IRQn 0 */
  while (1)
 8002858:	bf00      	nop
 800285a:	e7fd      	b.n	8002858 <MemManage_Handler+0x4>

0800285c <BusFault_Handler>:

/**
  * @brief This function handles Pre-fetch fault, memory access fault.
  */
void BusFault_Handler(void)
{
 800285c:	b480      	push	{r7}
 800285e:	af00      	add	r7, sp, #0
  /* USER CODE BEGIN BusFault_IRQn 0 */

  /* USER CODE END BusFault_IRQn 0 */
  while (1)
 8002860:	bf00      	nop
 8002862:	e7fd      	b.n	8002860 <BusFault_Handler+0x4>

08002864 <UsageFault_Handler>:

/**
  * @brief This function handles Undefined instruction or illegal state.
  */
void UsageFault_Handler(void)
{
 8002864:	b480      	push	{r7}
 8002866:	af00      	add	r7, sp, #0
  /* USER CODE BEGIN UsageFault_IRQn 0 */

  /* USER CODE END UsageFault_IRQn 0 */
  while (1)
 8002868:	bf00      	nop
 800286a:	e7fd      	b.n	8002868 <UsageFault_Handler+0x4>

0800286c <SVC_Handler>:

/**
  * @brief This function handles System service call via SWI instruction.
  */
void SVC_Handler(void)
{
 800286c:	b480      	push	{r7}
 800286e:	af00      	add	r7, sp, #0

  /* USER CODE END SVCall_IRQn 0 */
  /* USER CODE BEGIN SVCall_IRQn 1 */

  /* USER CODE END SVCall_IRQn 1 */
}
 8002870:	bf00      	nop
 8002872:	46bd      	mov	sp, r7
 8002874:	f85d 7b04 	ldr.w	r7, [sp], #4
 8002878:	4770      	bx	lr

0800287a <DebugMon_Handler>:

/**
  * @brief This function handles Debug monitor.
  */
void DebugMon_Handler(void)
{
 800287a:	b480      	push	{r7}
 800287c:	af00      	add	r7, sp, #0

  /* USER CODE END DebugMonitor_IRQn 0 */
  /* USER CODE BEGIN DebugMonitor_IRQn 1 */

  /* USER CODE END DebugMonitor_IRQn 1 */
}
 800287e:	bf00      	nop
 8002880:	46bd      	mov	sp, r7
 8002882:	f85d 7b04 	ldr.w	r7, [sp], #4
 8002886:	4770      	bx	lr

08002888 <PendSV_Handler>:

/**
  * @brief This function handles Pendable request for system service.
  */
void PendSV_Handler(void)
{
 8002888:	b480      	push	{r7}
 800288a:	af00      	add	r7, sp, #0

  /* USER CODE END PendSV_IRQn 0 */
  /* USER CODE BEGIN PendSV_IRQn 1 */

  /* USER CODE END PendSV_IRQn 1 */
}
 800288c:	bf00      	nop
 800288e:	46bd      	mov	sp, r7
 8002890:	f85d 7b04 	ldr.w	r7, [sp], #4
 8002894:	4770      	bx	lr

08002896 <SysTick_Handler>:

/**
  * @brief This function handles System tick timer.
  */
void SysTick_Handler(void)
{
 8002896:	b580      	push	{r7, lr}
 8002898:	af00      	add	r7, sp, #0
  /* USER CODE BEGIN SysTick_IRQn 0 */

  /* USER CODE END SysTick_IRQn 0 */
  HAL_IncTick();
 800289a:	f000 f8ad 	bl	80029f8 <HAL_IncTick>
  /* USER CODE BEGIN SysTick_IRQn 1 */

  /* USER CODE END SysTick_IRQn 1 */
}
 800289e:	bf00      	nop
 80028a0:	bd80      	pop	{r7, pc}
	...

080028a4 <TIM2_IRQHandler>:

/**
  * @brief This function handles TIM2 global interrupt.
  */
void TIM2_IRQHandler(void)
{
 80028a4:	b580      	push	{r7, lr}
 80028a6:	af00      	add	r7, sp, #0
  /* USER CODE BEGIN TIM2_IRQn 0 */

  /* USER CODE END TIM2_IRQn 0 */
  HAL_TIM_IRQHandler(&htim2);
 80028a8:	4802      	ldr	r0, [pc, #8]	@ (80028b4 <TIM2_IRQHandler+0x10>)
 80028aa:	f003 fca7 	bl	80061fc <HAL_TIM_IRQHandler>
  /* USER CODE BEGIN TIM2_IRQn 1 */

  /* USER CODE END TIM2_IRQn 1 */
}
 80028ae:	bf00      	nop
 80028b0:	bd80      	pop	{r7, pc}
 80028b2:	bf00      	nop
 80028b4:	20000218 	.word	0x20000218

080028b8 <EXTI15_10_IRQHandler>:

/**
  * @brief This function handles EXTI line[15:10] interrupts.
  */
void EXTI15_10_IRQHandler(void)
{
 80028b8:	b580      	push	{r7, lr}
 80028ba:	af00      	add	r7, sp, #0
  /* USER CODE BEGIN EXTI15_10_IRQn 0 */

  /* USER CODE END EXTI15_10_IRQn 0 */
  HAL_GPIO_EXTI_IRQHandler(GPIO_PIN_13);
 80028bc:	f44f 5000 	mov.w	r0, #8192	@ 0x2000
 80028c0:	f001 f892 	bl	80039e8 <HAL_GPIO_EXTI_IRQHandler>
  /* USER CODE BEGIN EXTI15_10_IRQn 1 */
  update_flag = 1;
 80028c4:	4b04      	ldr	r3, [pc, #16]	@ (80028d8 <EXTI15_10_IRQHandler+0x20>)
 80028c6:	2201      	movs	r2, #1
 80028c8:	701a      	strb	r2, [r3, #0]
  HAL_GPIO_TogglePin(Red_LED_GPIO_Port, Red_LED_Pin);
 80028ca:	f44f 4180 	mov.w	r1, #16384	@ 0x4000
 80028ce:	4803      	ldr	r0, [pc, #12]	@ (80028dc <EXTI15_10_IRQHandler+0x24>)
 80028d0:	f001 f86f 	bl	80039b2 <HAL_GPIO_TogglePin>
  /* USER CODE END EXTI15_10_IRQn 1 */
}
 80028d4:	bf00      	nop
 80028d6:	bd80      	pop	{r7, pc}
 80028d8:	20000280 	.word	0x20000280
 80028dc:	40020400 	.word	0x40020400

080028e0 <HAL_TIM_PeriodElapsedCallback>:

/* USER CODE BEGIN 1 */
void HAL_TIM_PeriodElapsedCallback(TIM_HandleTypeDef *htim)
{
 80028e0:	b480      	push	{r7}
 80028e2:	b083      	sub	sp, #12
 80028e4:	af00      	add	r7, sp, #0
 80028e6:	6078      	str	r0, [r7, #4]
    if (htim->Instance == TIM2)
 80028e8:	687b      	ldr	r3, [r7, #4]
 80028ea:	681b      	ldr	r3, [r3, #0]
 80028ec:	f1b3 4f80 	cmp.w	r3, #1073741824	@ 0x40000000
 80028f0:	d102      	bne.n	80028f8 <HAL_TIM_PeriodElapsedCallback+0x18>
    {
        update_flag = 1;
 80028f2:	4b04      	ldr	r3, [pc, #16]	@ (8002904 <HAL_TIM_PeriodElapsedCallback+0x24>)
 80028f4:	2201      	movs	r2, #1
 80028f6:	701a      	strb	r2, [r3, #0]
    }
}
 80028f8:	bf00      	nop
 80028fa:	370c      	adds	r7, #12
 80028fc:	46bd      	mov	sp, r7
 80028fe:	f85d 7b04 	ldr.w	r7, [sp], #4
 8002902:	4770      	bx	lr
 8002904:	20000280 	.word	0x20000280

08002908 <SystemInit>:
  *         SystemFrequency variable.
  * @param  None
  * @retval None
  */
void SystemInit(void)
{
 8002908:	b480      	push	{r7}
 800290a:	af00      	add	r7, sp, #0
  /* FPU settings ------------------------------------------------------------*/
#if (__FPU_PRESENT == 1) && (__FPU_USED == 1)
  SCB->CPACR |= ((3UL << 10*2)|(3UL << 11*2));  /* set CP10 and CP11 Full Access */
 800290c:	4b06      	ldr	r3, [pc, #24]	@ (8002928 <SystemInit+0x20>)
 800290e:	f8d3 3088 	ldr.w	r3, [r3, #136]	@ 0x88
 8002912:	4a05      	ldr	r2, [pc, #20]	@ (8002928 <SystemInit+0x20>)
 8002914:	f443 0370 	orr.w	r3, r3, #15728640	@ 0xf00000
 8002918:	f8c2 3088 	str.w	r3, [r2, #136]	@ 0x88

  /* Configure the Vector Table location -------------------------------------*/
#if defined(USER_VECT_TAB_ADDRESS)
  SCB->VTOR = VECT_TAB_BASE_ADDRESS | VECT_TAB_OFFSET; /* Vector Table Relocation in Internal SRAM */
#endif /* USER_VECT_TAB_ADDRESS */
}
 800291c:	bf00      	nop
 800291e:	46bd      	mov	sp, r7
 8002920:	f85d 7b04 	ldr.w	r7, [sp], #4
 8002924:	4770      	bx	lr
 8002926:	bf00      	nop
 8002928:	e000ed00 	.word	0xe000ed00

0800292c <Reset_Handler>:
 800292c:	f8df d034 	ldr.w	sp, [pc, #52]	@ 8002964 <LoopFillZerobss+0xe>
 8002930:	f7ff ffea 	bl	8002908 <SystemInit>
 8002934:	480c      	ldr	r0, [pc, #48]	@ (8002968 <LoopFillZerobss+0x12>)
 8002936:	490d      	ldr	r1, [pc, #52]	@ (800296c <LoopFillZerobss+0x16>)
 8002938:	4a0d      	ldr	r2, [pc, #52]	@ (8002970 <LoopFillZerobss+0x1a>)
 800293a:	2300      	movs	r3, #0
 800293c:	e002      	b.n	8002944 <LoopCopyDataInit>

0800293e <CopyDataInit>:
 800293e:	58d4      	ldr	r4, [r2, r3]
 8002940:	50c4      	str	r4, [r0, r3]
 8002942:	3304      	adds	r3, #4

08002944 <LoopCopyDataInit>:
 8002944:	18c4      	adds	r4, r0, r3
 8002946:	428c      	cmp	r4, r1
 8002948:	d3f9      	bcc.n	800293e <CopyDataInit>
 800294a:	4a0a      	ldr	r2, [pc, #40]	@ (8002974 <LoopFillZerobss+0x1e>)
 800294c:	4c0a      	ldr	r4, [pc, #40]	@ (8002978 <LoopFillZerobss+0x22>)
 800294e:	2300      	movs	r3, #0
 8002950:	e001      	b.n	8002956 <LoopFillZerobss>

08002952 <FillZerobss>:
 8002952:	6013      	str	r3, [r2, #0]
 8002954:	3204      	adds	r2, #4

08002956 <LoopFillZerobss>:
 8002956:	42a2      	cmp	r2, r4
 8002958:	d3fb      	bcc.n	8002952 <FillZerobss>
 800295a:	f004 f843 	bl	80069e4 <__libc_init_array>
 800295e:	f7fe feb5 	bl	80016cc <main>
 8002962:	4770      	bx	lr
 8002964:	20080000 	.word	0x20080000
 8002968:	20000000 	.word	0x20000000
 800296c:	2000005c 	.word	0x2000005c
 8002970:	08007398 	.word	0x08007398
 8002974:	2000005c 	.word	0x2000005c
 8002978:	200003c0 	.word	0x200003c0

0800297c <ADC_IRQHandler>:
 800297c:	e7fe      	b.n	800297c <ADC_IRQHandler>

0800297e <HAL_Init>:
  *         need to ensure that the SysTick time base is always set to 1 millisecond
  *         to have correct HAL operation.
  * @retval HAL status
  */
HAL_StatusTypeDef HAL_Init(void)
{
 800297e:	b580      	push	{r7, lr}
 8002980:	af00      	add	r7, sp, #0
#if (PREFETCH_ENABLE != 0U)
  __HAL_FLASH_PREFETCH_BUFFER_ENABLE();
#endif /* PREFETCH_ENABLE */

  /* Set Interrupt Group Priority */
  HAL_NVIC_SetPriorityGrouping(NVIC_PRIORITYGROUP_4);
 8002982:	2003      	movs	r0, #3
 8002984:	f000 fd7e 	bl	8003484 <HAL_NVIC_SetPriorityGrouping>

  /* Use systick as time base source and configure 1ms tick (default clock after Reset is HSI) */
  HAL_InitTick(TICK_INT_PRIORITY);
 8002988:	200f      	movs	r0, #15
 800298a:	f000 f805 	bl	8002998 <HAL_InitTick>

  /* Init the low level hardware */
  HAL_MspInit();
 800298e:	f7ff fe19 	bl	80025c4 <HAL_MspInit>

  /* Return function status */
  return HAL_OK;
 8002992:	2300      	movs	r3, #0
}
 8002994:	4618      	mov	r0, r3
 8002996:	bd80      	pop	{r7, pc}

08002998 <HAL_InitTick>:
  *       implementation  in user file.
  * @param TickPriority Tick interrupt priority.
  * @retval HAL status
  */
__weak HAL_StatusTypeDef HAL_InitTick(uint32_t TickPriority)
{
 8002998:	b580      	push	{r7, lr}
 800299a:	b082      	sub	sp, #8
 800299c:	af00      	add	r7, sp, #0
 800299e:	6078      	str	r0, [r7, #4]
  /* Configure the SysTick to have interrupt in 1ms time basis*/
  if (HAL_SYSTICK_Config(SystemCoreClock / (1000U / uwTickFreq)) > 0U)
 80029a0:	4b12      	ldr	r3, [pc, #72]	@ (80029ec <HAL_InitTick+0x54>)
 80029a2:	681a      	ldr	r2, [r3, #0]
 80029a4:	4b12      	ldr	r3, [pc, #72]	@ (80029f0 <HAL_InitTick+0x58>)
 80029a6:	781b      	ldrb	r3, [r3, #0]
 80029a8:	4619      	mov	r1, r3
 80029aa:	f44f 737a 	mov.w	r3, #1000	@ 0x3e8
 80029ae:	fbb3 f3f1 	udiv	r3, r3, r1
 80029b2:	fbb2 f3f3 	udiv	r3, r2, r3
 80029b6:	4618      	mov	r0, r3
 80029b8:	f000 fd99 	bl	80034ee <HAL_SYSTICK_Config>
 80029bc:	4603      	mov	r3, r0
 80029be:	2b00      	cmp	r3, #0
 80029c0:	d001      	beq.n	80029c6 <HAL_InitTick+0x2e>
  {
    return HAL_ERROR;
 80029c2:	2301      	movs	r3, #1
 80029c4:	e00e      	b.n	80029e4 <HAL_InitTick+0x4c>
  }

  /* Configure the SysTick IRQ priority */
  if (TickPriority < (1UL << __NVIC_PRIO_BITS))
 80029c6:	687b      	ldr	r3, [r7, #4]
 80029c8:	2b0f      	cmp	r3, #15
 80029ca:	d80a      	bhi.n	80029e2 <HAL_InitTick+0x4a>
  {
    HAL_NVIC_SetPriority(SysTick_IRQn, TickPriority, 0U);
 80029cc:	2200      	movs	r2, #0
 80029ce:	6879      	ldr	r1, [r7, #4]
 80029d0:	f04f 30ff 	mov.w	r0, #4294967295
 80029d4:	f000 fd61 	bl	800349a <HAL_NVIC_SetPriority>
    uwTickPrio = TickPriority;
 80029d8:	4a06      	ldr	r2, [pc, #24]	@ (80029f4 <HAL_InitTick+0x5c>)
 80029da:	687b      	ldr	r3, [r7, #4]
 80029dc:	6013      	str	r3, [r2, #0]
  {
    return HAL_ERROR;
  }

  /* Return function status */
  return HAL_OK;
 80029de:	2300      	movs	r3, #0
 80029e0:	e000      	b.n	80029e4 <HAL_InitTick+0x4c>
    return HAL_ERROR;
 80029e2:	2301      	movs	r3, #1
}
 80029e4:	4618      	mov	r0, r3
 80029e6:	3708      	adds	r7, #8
 80029e8:	46bd      	mov	sp, r7
 80029ea:	bd80      	pop	{r7, pc}
 80029ec:	20000000 	.word	0x20000000
 80029f0:	20000008 	.word	0x20000008
 80029f4:	20000004 	.word	0x20000004

080029f8 <HAL_IncTick>:
 * @note This function is declared as __weak to be overwritten in case of other 
  *      implementations in user file.
  * @retval None
  */
__weak void HAL_IncTick(void)
{
 80029f8:	b480      	push	{r7}
 80029fa:	af00      	add	r7, sp, #0
  uwTick += uwTickFreq;
 80029fc:	4b06      	ldr	r3, [pc, #24]	@ (8002a18 <HAL_IncTick+0x20>)
 80029fe:	781b      	ldrb	r3, [r3, #0]
 8002a00:	461a      	mov	r2, r3
 8002a02:	4b06      	ldr	r3, [pc, #24]	@ (8002a1c <HAL_IncTick+0x24>)
 8002a04:	681b      	ldr	r3, [r3, #0]
 8002a06:	4413      	add	r3, r2
 8002a08:	4a04      	ldr	r2, [pc, #16]	@ (8002a1c <HAL_IncTick+0x24>)
 8002a0a:	6013      	str	r3, [r2, #0]
}
 8002a0c:	bf00      	nop
 8002a0e:	46bd      	mov	sp, r7
 8002a10:	f85d 7b04 	ldr.w	r7, [sp], #4
 8002a14:	4770      	bx	lr
 8002a16:	bf00      	nop
 8002a18:	20000008 	.word	0x20000008
 8002a1c:	20000284 	.word	0x20000284

08002a20 <HAL_GetTick>:
  * @note This function is declared as __weak to be overwritten in case of other 
  *       implementations in user file.
  * @retval tick value
  */
__weak uint32_t HAL_GetTick(void)
{
 8002a20:	b480      	push	{r7}
 8002a22:	af00      	add	r7, sp, #0
  return uwTick;
 8002a24:	4b03      	ldr	r3, [pc, #12]	@ (8002a34 <HAL_GetTick+0x14>)
 8002a26:	681b      	ldr	r3, [r3, #0]
}
 8002a28:	4618      	mov	r0, r3
 8002a2a:	46bd      	mov	sp, r7
 8002a2c:	f85d 7b04 	ldr.w	r7, [sp], #4
 8002a30:	4770      	bx	lr
 8002a32:	bf00      	nop
 8002a34:	20000284 	.word	0x20000284

08002a38 <HAL_Delay>:
  *       implementations in user file.
  * @param Delay  specifies the delay time length, in milliseconds.
  * @retval None
  */
__weak void HAL_Delay(uint32_t Delay)
{
 8002a38:	b580      	push	{r7, lr}
 8002a3a:	b084      	sub	sp, #16
 8002a3c:	af00      	add	r7, sp, #0
 8002a3e:	6078      	str	r0, [r7, #4]
  uint32_t tickstart = HAL_GetTick();
 8002a40:	f7ff ffee 	bl	8002a20 <HAL_GetTick>
 8002a44:	60b8      	str	r0, [r7, #8]
  uint32_t wait = Delay;
 8002a46:	687b      	ldr	r3, [r7, #4]
 8002a48:	60fb      	str	r3, [r7, #12]

  /* Add a freq to guarantee minimum wait */
  if (wait < HAL_MAX_DELAY)
 8002a4a:	68fb      	ldr	r3, [r7, #12]
 8002a4c:	f1b3 3fff 	cmp.w	r3, #4294967295
 8002a50:	d005      	beq.n	8002a5e <HAL_Delay+0x26>
  {
    wait += (uint32_t)(uwTickFreq);
 8002a52:	4b0a      	ldr	r3, [pc, #40]	@ (8002a7c <HAL_Delay+0x44>)
 8002a54:	781b      	ldrb	r3, [r3, #0]
 8002a56:	461a      	mov	r2, r3
 8002a58:	68fb      	ldr	r3, [r7, #12]
 8002a5a:	4413      	add	r3, r2
 8002a5c:	60fb      	str	r3, [r7, #12]
  }

  while ((HAL_GetTick() - tickstart) < wait)
 8002a5e:	bf00      	nop
 8002a60:	f7ff ffde 	bl	8002a20 <HAL_GetTick>
 8002a64:	4602      	mov	r2, r0
 8002a66:	68bb      	ldr	r3, [r7, #8]
 8002a68:	1ad3      	subs	r3, r2, r3
 8002a6a:	68fa      	ldr	r2, [r7, #12]
 8002a6c:	429a      	cmp	r2, r3
 8002a6e:	d8f7      	bhi.n	8002a60 <HAL_Delay+0x28>
  {
  }
}
 8002a70:	bf00      	nop
 8002a72:	bf00      	nop
 8002a74:	3710      	adds	r7, #16
 8002a76:	46bd      	mov	sp, r7
 8002a78:	bd80      	pop	{r7, pc}
 8002a7a:	bf00      	nop
 8002a7c:	20000008 	.word	0x20000008

08002a80 <HAL_ADC_Init>:
  * @param  hadc pointer to a ADC_HandleTypeDef structure that contains
  *         the configuration information for the specified ADC.  
  * @retval HAL status
  */
HAL_StatusTypeDef HAL_ADC_Init(ADC_HandleTypeDef* hadc)
{
 8002a80:	b580      	push	{r7, lr}
 8002a82:	b084      	sub	sp, #16
 8002a84:	af00      	add	r7, sp, #0
 8002a86:	6078      	str	r0, [r7, #4]
  HAL_StatusTypeDef tmp_hal_status = HAL_OK;
 8002a88:	2300      	movs	r3, #0
 8002a8a:	73fb      	strb	r3, [r7, #15]
  
  /* Check ADC handle */
  if(hadc == NULL)
 8002a8c:	687b      	ldr	r3, [r7, #4]
 8002a8e:	2b00      	cmp	r3, #0
 8002a90:	d101      	bne.n	8002a96 <HAL_ADC_Init+0x16>
  {
    return HAL_ERROR;
 8002a92:	2301      	movs	r3, #1
 8002a94:	e031      	b.n	8002afa <HAL_ADC_Init+0x7a>
  if(hadc->Init.ExternalTrigConv != ADC_SOFTWARE_START)
  {
    assert_param(IS_ADC_EXT_TRIG_EDGE(hadc->Init.ExternalTrigConvEdge));
  }

  if(hadc->State == HAL_ADC_STATE_RESET)
 8002a96:	687b      	ldr	r3, [r7, #4]
 8002a98:	6c1b      	ldr	r3, [r3, #64]	@ 0x40
 8002a9a:	2b00      	cmp	r3, #0
 8002a9c:	d109      	bne.n	8002ab2 <HAL_ADC_Init+0x32>

    /* Init the low level hardware */
    hadc->MspInitCallback(hadc);
#else
    /* Init the low level hardware */
    HAL_ADC_MspInit(hadc);
 8002a9e:	6878      	ldr	r0, [r7, #4]
 8002aa0:	f7ff fdb4 	bl	800260c <HAL_ADC_MspInit>
#endif /* USE_HAL_ADC_REGISTER_CALLBACKS */

    /* Initialize ADC error code */
    ADC_CLEAR_ERRORCODE(hadc);
 8002aa4:	687b      	ldr	r3, [r7, #4]
 8002aa6:	2200      	movs	r2, #0
 8002aa8:	645a      	str	r2, [r3, #68]	@ 0x44
    
    /* Allocate lock resource and initialize it */
    hadc->Lock = HAL_UNLOCKED;
 8002aaa:	687b      	ldr	r3, [r7, #4]
 8002aac:	2200      	movs	r2, #0
 8002aae:	f883 203c 	strb.w	r2, [r3, #60]	@ 0x3c
  }
  
  /* Configuration of ADC parameters if previous preliminary actions are      */ 
  /* correctly completed.                                                     */
  if (HAL_IS_BIT_CLR(hadc->State, HAL_ADC_STATE_ERROR_INTERNAL))
 8002ab2:	687b      	ldr	r3, [r7, #4]
 8002ab4:	6c1b      	ldr	r3, [r3, #64]	@ 0x40
 8002ab6:	f003 0310 	and.w	r3, r3, #16
 8002aba:	2b00      	cmp	r3, #0
 8002abc:	d116      	bne.n	8002aec <HAL_ADC_Init+0x6c>
  {
    /* Set ADC state */
    ADC_STATE_CLR_SET(hadc->State,
 8002abe:	687b      	ldr	r3, [r7, #4]
 8002ac0:	6c1a      	ldr	r2, [r3, #64]	@ 0x40
 8002ac2:	4b10      	ldr	r3, [pc, #64]	@ (8002b04 <HAL_ADC_Init+0x84>)
 8002ac4:	4013      	ands	r3, r2
 8002ac6:	f043 0202 	orr.w	r2, r3, #2
 8002aca:	687b      	ldr	r3, [r7, #4]
 8002acc:	641a      	str	r2, [r3, #64]	@ 0x40
                      HAL_ADC_STATE_REG_BUSY | HAL_ADC_STATE_INJ_BUSY,
                      HAL_ADC_STATE_BUSY_INTERNAL);
    
    /* Set ADC parameters */
    ADC_Init(hadc);
 8002ace:	6878      	ldr	r0, [r7, #4]
 8002ad0:	f000 fb0e 	bl	80030f0 <ADC_Init>
    
    /* Set ADC error code to none */
    ADC_CLEAR_ERRORCODE(hadc);
 8002ad4:	687b      	ldr	r3, [r7, #4]
 8002ad6:	2200      	movs	r2, #0
 8002ad8:	645a      	str	r2, [r3, #68]	@ 0x44
    
    /* Set the ADC state */
    ADC_STATE_CLR_SET(hadc->State,
 8002ada:	687b      	ldr	r3, [r7, #4]
 8002adc:	6c1b      	ldr	r3, [r3, #64]	@ 0x40
 8002ade:	f023 0303 	bic.w	r3, r3, #3
 8002ae2:	f043 0201 	orr.w	r2, r3, #1
 8002ae6:	687b      	ldr	r3, [r7, #4]
 8002ae8:	641a      	str	r2, [r3, #64]	@ 0x40
 8002aea:	e001      	b.n	8002af0 <HAL_ADC_Init+0x70>
                      HAL_ADC_STATE_BUSY_INTERNAL,
                      HAL_ADC_STATE_READY);
  }
  else
  {
    tmp_hal_status = HAL_ERROR;
 8002aec:	2301      	movs	r3, #1
 8002aee:	73fb      	strb	r3, [r7, #15]
  }
  
  /* Release Lock */
  __HAL_UNLOCK(hadc);
 8002af0:	687b      	ldr	r3, [r7, #4]
 8002af2:	2200      	movs	r2, #0
 8002af4:	f883 203c 	strb.w	r2, [r3, #60]	@ 0x3c

  /* Return function status */
  return tmp_hal_status;
 8002af8:	7bfb      	ldrb	r3, [r7, #15]
}
 8002afa:	4618      	mov	r0, r3
 8002afc:	3710      	adds	r7, #16
 8002afe:	46bd      	mov	sp, r7
 8002b00:	bd80      	pop	{r7, pc}
 8002b02:	bf00      	nop
 8002b04:	ffffeefd 	.word	0xffffeefd

08002b08 <HAL_ADC_Start>:
  * @param  hadc pointer to a ADC_HandleTypeDef structure that contains
  *         the configuration information for the specified ADC.
  * @retval HAL status
  */
HAL_StatusTypeDef HAL_ADC_Start(ADC_HandleTypeDef* hadc)
{
 8002b08:	b480      	push	{r7}
 8002b0a:	b085      	sub	sp, #20
 8002b0c:	af00      	add	r7, sp, #0
 8002b0e:	6078      	str	r0, [r7, #4]
  __IO uint32_t counter = 0;
 8002b10:	2300      	movs	r3, #0
 8002b12:	60fb      	str	r3, [r7, #12]
  /* Check the parameters */
  assert_param(IS_FUNCTIONAL_STATE(hadc->Init.ContinuousConvMode));
  assert_param(IS_ADC_EXT_TRIG_EDGE(hadc->Init.ExternalTrigConvEdge)); 
  
  /* Process locked */
  __HAL_LOCK(hadc);
 8002b14:	687b      	ldr	r3, [r7, #4]
 8002b16:	f893 303c 	ldrb.w	r3, [r3, #60]	@ 0x3c
 8002b1a:	2b01      	cmp	r3, #1
 8002b1c:	d101      	bne.n	8002b22 <HAL_ADC_Start+0x1a>
 8002b1e:	2302      	movs	r3, #2
 8002b20:	e0ad      	b.n	8002c7e <HAL_ADC_Start+0x176>
 8002b22:	687b      	ldr	r3, [r7, #4]
 8002b24:	2201      	movs	r2, #1
 8002b26:	f883 203c 	strb.w	r2, [r3, #60]	@ 0x3c
  
  /* Enable the ADC peripheral */
  /* Check if ADC peripheral is disabled in order to enable it and wait during 
  Tstab time the ADC's stabilization */
  if((hadc->Instance->CR2 & ADC_CR2_ADON) != ADC_CR2_ADON)
 8002b2a:	687b      	ldr	r3, [r7, #4]
 8002b2c:	681b      	ldr	r3, [r3, #0]
 8002b2e:	689b      	ldr	r3, [r3, #8]
 8002b30:	f003 0301 	and.w	r3, r3, #1
 8002b34:	2b01      	cmp	r3, #1
 8002b36:	d018      	beq.n	8002b6a <HAL_ADC_Start+0x62>
  {  
    /* Enable the Peripheral */
    __HAL_ADC_ENABLE(hadc);
 8002b38:	687b      	ldr	r3, [r7, #4]
 8002b3a:	681b      	ldr	r3, [r3, #0]
 8002b3c:	689a      	ldr	r2, [r3, #8]
 8002b3e:	687b      	ldr	r3, [r7, #4]
 8002b40:	681b      	ldr	r3, [r3, #0]
 8002b42:	f042 0201 	orr.w	r2, r2, #1
 8002b46:	609a      	str	r2, [r3, #8]
    
    /* Delay for ADC stabilization time */
    /* Compute number of CPU cycles to wait for */
    counter = (ADC_STAB_DELAY_US * (SystemCoreClock / 1000000));
 8002b48:	4b50      	ldr	r3, [pc, #320]	@ (8002c8c <HAL_ADC_Start+0x184>)
 8002b4a:	681b      	ldr	r3, [r3, #0]
 8002b4c:	4a50      	ldr	r2, [pc, #320]	@ (8002c90 <HAL_ADC_Start+0x188>)
 8002b4e:	fba2 2303 	umull	r2, r3, r2, r3
 8002b52:	0c9a      	lsrs	r2, r3, #18
 8002b54:	4613      	mov	r3, r2
 8002b56:	005b      	lsls	r3, r3, #1
 8002b58:	4413      	add	r3, r2
 8002b5a:	60fb      	str	r3, [r7, #12]
    while(counter != 0)
 8002b5c:	e002      	b.n	8002b64 <HAL_ADC_Start+0x5c>
    {
      counter--;
 8002b5e:	68fb      	ldr	r3, [r7, #12]
 8002b60:	3b01      	subs	r3, #1
 8002b62:	60fb      	str	r3, [r7, #12]
    while(counter != 0)
 8002b64:	68fb      	ldr	r3, [r7, #12]
 8002b66:	2b00      	cmp	r3, #0
 8002b68:	d1f9      	bne.n	8002b5e <HAL_ADC_Start+0x56>
    }
  }
  
  /* Start conversion if ADC is effectively enabled */
  if(HAL_IS_BIT_SET(hadc->Instance->CR2, ADC_CR2_ADON))
 8002b6a:	687b      	ldr	r3, [r7, #4]
 8002b6c:	681b      	ldr	r3, [r3, #0]
 8002b6e:	689b      	ldr	r3, [r3, #8]
 8002b70:	f003 0301 	and.w	r3, r3, #1
 8002b74:	2b01      	cmp	r3, #1
 8002b76:	d175      	bne.n	8002c64 <HAL_ADC_Start+0x15c>
  {
    /* Set ADC state                                                          */
    /* - Clear state bitfield related to regular group conversion results     */
    /* - Set state bitfield related to regular group operation                */
    ADC_STATE_CLR_SET(hadc->State,
 8002b78:	687b      	ldr	r3, [r7, #4]
 8002b7a:	6c1a      	ldr	r2, [r3, #64]	@ 0x40
 8002b7c:	4b45      	ldr	r3, [pc, #276]	@ (8002c94 <HAL_ADC_Start+0x18c>)
 8002b7e:	4013      	ands	r3, r2
 8002b80:	f443 7280 	orr.w	r2, r3, #256	@ 0x100
 8002b84:	687b      	ldr	r3, [r7, #4]
 8002b86:	641a      	str	r2, [r3, #64]	@ 0x40
                      HAL_ADC_STATE_READY | HAL_ADC_STATE_REG_EOC | HAL_ADC_STATE_REG_OVR,
                      HAL_ADC_STATE_REG_BUSY);
    
    /* If conversions on group regular are also triggering group injected,    */
    /* update ADC state.                                                      */
    if (READ_BIT(hadc->Instance->CR1, ADC_CR1_JAUTO) != RESET)
 8002b88:	687b      	ldr	r3, [r7, #4]
 8002b8a:	681b      	ldr	r3, [r3, #0]
 8002b8c:	685b      	ldr	r3, [r3, #4]
 8002b8e:	f403 6380 	and.w	r3, r3, #1024	@ 0x400
 8002b92:	2b00      	cmp	r3, #0
 8002b94:	d007      	beq.n	8002ba6 <HAL_ADC_Start+0x9e>
    {
      ADC_STATE_CLR_SET(hadc->State, HAL_ADC_STATE_INJ_EOC, HAL_ADC_STATE_INJ_BUSY);  
 8002b96:	687b      	ldr	r3, [r7, #4]
 8002b98:	6c1b      	ldr	r3, [r3, #64]	@ 0x40
 8002b9a:	f423 5340 	bic.w	r3, r3, #12288	@ 0x3000
 8002b9e:	f443 5280 	orr.w	r2, r3, #4096	@ 0x1000
 8002ba2:	687b      	ldr	r3, [r7, #4]
 8002ba4:	641a      	str	r2, [r3, #64]	@ 0x40
    }
    
    /* State machine update: Check if an injected conversion is ongoing */
    if (HAL_IS_BIT_SET(hadc->State, HAL_ADC_STATE_INJ_BUSY))
 8002ba6:	687b      	ldr	r3, [r7, #4]
 8002ba8:	6c1b      	ldr	r3, [r3, #64]	@ 0x40
 8002baa:	f403 5380 	and.w	r3, r3, #4096	@ 0x1000
 8002bae:	f5b3 5f80 	cmp.w	r3, #4096	@ 0x1000
 8002bb2:	d106      	bne.n	8002bc2 <HAL_ADC_Start+0xba>
    {
      /* Reset ADC error code fields related to conversions on group regular */
      CLEAR_BIT(hadc->ErrorCode, (HAL_ADC_ERROR_OVR | HAL_ADC_ERROR_DMA));         
 8002bb4:	687b      	ldr	r3, [r7, #4]
 8002bb6:	6c5b      	ldr	r3, [r3, #68]	@ 0x44
 8002bb8:	f023 0206 	bic.w	r2, r3, #6
 8002bbc:	687b      	ldr	r3, [r7, #4]
 8002bbe:	645a      	str	r2, [r3, #68]	@ 0x44
 8002bc0:	e002      	b.n	8002bc8 <HAL_ADC_Start+0xc0>
    }
    else
    {
      /* Reset ADC all error code fields */
      ADC_CLEAR_ERRORCODE(hadc);
 8002bc2:	687b      	ldr	r3, [r7, #4]
 8002bc4:	2200      	movs	r2, #0
 8002bc6:	645a      	str	r2, [r3, #68]	@ 0x44
    }
    
    /* Process unlocked */
    /* Unlock before starting ADC conversions: in case of potential           */
    /* interruption, to let the process to ADC IRQ Handler.                   */
    __HAL_UNLOCK(hadc);
 8002bc8:	687b      	ldr	r3, [r7, #4]
 8002bca:	2200      	movs	r2, #0
 8002bcc:	f883 203c 	strb.w	r2, [r3, #60]	@ 0x3c
    
    /* Clear regular group conversion flag and overrun flag */
    /* (To ensure of no unknown state from potential previous ADC operations) */
    __HAL_ADC_CLEAR_FLAG(hadc, ADC_FLAG_EOC | ADC_FLAG_OVR);
 8002bd0:	687b      	ldr	r3, [r7, #4]
 8002bd2:	681b      	ldr	r3, [r3, #0]
 8002bd4:	f06f 0222 	mvn.w	r2, #34	@ 0x22
 8002bd8:	601a      	str	r2, [r3, #0]
    
    /* Check if Multimode enabled */
    if(HAL_IS_BIT_CLR(ADC->CCR, ADC_CCR_MULTI))
 8002bda:	4b2f      	ldr	r3, [pc, #188]	@ (8002c98 <HAL_ADC_Start+0x190>)
 8002bdc:	685b      	ldr	r3, [r3, #4]
 8002bde:	f003 031f 	and.w	r3, r3, #31
 8002be2:	2b00      	cmp	r3, #0
 8002be4:	d10f      	bne.n	8002c06 <HAL_ADC_Start+0xfe>
    {
      /* if no external trigger present enable software conversion of regular channels */
      if((hadc->Instance->CR2 & ADC_CR2_EXTEN) == RESET) 
 8002be6:	687b      	ldr	r3, [r7, #4]
 8002be8:	681b      	ldr	r3, [r3, #0]
 8002bea:	689b      	ldr	r3, [r3, #8]
 8002bec:	f003 5340 	and.w	r3, r3, #805306368	@ 0x30000000
 8002bf0:	2b00      	cmp	r3, #0
 8002bf2:	d143      	bne.n	8002c7c <HAL_ADC_Start+0x174>
      {
        /* Enable the selected ADC software conversion for regular group */
        hadc->Instance->CR2 |= (uint32_t)ADC_CR2_SWSTART;
 8002bf4:	687b      	ldr	r3, [r7, #4]
 8002bf6:	681b      	ldr	r3, [r3, #0]
 8002bf8:	689a      	ldr	r2, [r3, #8]
 8002bfa:	687b      	ldr	r3, [r7, #4]
 8002bfc:	681b      	ldr	r3, [r3, #0]
 8002bfe:	f042 4280 	orr.w	r2, r2, #1073741824	@ 0x40000000
 8002c02:	609a      	str	r2, [r3, #8]
 8002c04:	e03a      	b.n	8002c7c <HAL_ADC_Start+0x174>
      }
    }
    else
    {
      /* if instance of handle correspond to ADC1 and  no external trigger present enable software conversion of regular channels */
      if((hadc->Instance == ADC1) && ((hadc->Instance->CR2 & ADC_CR2_EXTEN) == RESET))
 8002c06:	687b      	ldr	r3, [r7, #4]
 8002c08:	681b      	ldr	r3, [r3, #0]
 8002c0a:	4a24      	ldr	r2, [pc, #144]	@ (8002c9c <HAL_ADC_Start+0x194>)
 8002c0c:	4293      	cmp	r3, r2
 8002c0e:	d10e      	bne.n	8002c2e <HAL_ADC_Start+0x126>
 8002c10:	687b      	ldr	r3, [r7, #4]
 8002c12:	681b      	ldr	r3, [r3, #0]
 8002c14:	689b      	ldr	r3, [r3, #8]
 8002c16:	f003 5340 	and.w	r3, r3, #805306368	@ 0x30000000
 8002c1a:	2b00      	cmp	r3, #0
 8002c1c:	d107      	bne.n	8002c2e <HAL_ADC_Start+0x126>
      {
        /* Enable the selected ADC software conversion for regular group */
          hadc->Instance->CR2 |= (uint32_t)ADC_CR2_SWSTART;
 8002c1e:	687b      	ldr	r3, [r7, #4]
 8002c20:	681b      	ldr	r3, [r3, #0]
 8002c22:	689a      	ldr	r2, [r3, #8]
 8002c24:	687b      	ldr	r3, [r7, #4]
 8002c26:	681b      	ldr	r3, [r3, #0]
 8002c28:	f042 4280 	orr.w	r2, r2, #1073741824	@ 0x40000000
 8002c2c:	609a      	str	r2, [r3, #8]
      }

      /* if dual mode is selected, ADC3 works independently. */
      /* check if the mode selected is not triple */
      if( HAL_IS_BIT_CLR(ADC->CCR, ADC_CCR_MULTI_4) )
 8002c2e:	4b1a      	ldr	r3, [pc, #104]	@ (8002c98 <HAL_ADC_Start+0x190>)
 8002c30:	685b      	ldr	r3, [r3, #4]
 8002c32:	f003 0310 	and.w	r3, r3, #16
 8002c36:	2b00      	cmp	r3, #0
 8002c38:	d120      	bne.n	8002c7c <HAL_ADC_Start+0x174>
      {
        /* if instance of handle correspond to ADC3 and no external trigger present enable software conversion of regular channels */
        if((hadc->Instance == ADC3) && ((hadc->Instance->CR2 & ADC_CR2_EXTEN) == RESET))
 8002c3a:	687b      	ldr	r3, [r7, #4]
 8002c3c:	681b      	ldr	r3, [r3, #0]
 8002c3e:	4a18      	ldr	r2, [pc, #96]	@ (8002ca0 <HAL_ADC_Start+0x198>)
 8002c40:	4293      	cmp	r3, r2
 8002c42:	d11b      	bne.n	8002c7c <HAL_ADC_Start+0x174>
 8002c44:	687b      	ldr	r3, [r7, #4]
 8002c46:	681b      	ldr	r3, [r3, #0]
 8002c48:	689b      	ldr	r3, [r3, #8]
 8002c4a:	f003 5340 	and.w	r3, r3, #805306368	@ 0x30000000
 8002c4e:	2b00      	cmp	r3, #0
 8002c50:	d114      	bne.n	8002c7c <HAL_ADC_Start+0x174>
        {
          /* Enable the selected ADC software conversion for regular group */
          hadc->Instance->CR2 |= (uint32_t)ADC_CR2_SWSTART;
 8002c52:	687b      	ldr	r3, [r7, #4]
 8002c54:	681b      	ldr	r3, [r3, #0]
 8002c56:	689a      	ldr	r2, [r3, #8]
 8002c58:	687b      	ldr	r3, [r7, #4]
 8002c5a:	681b      	ldr	r3, [r3, #0]
 8002c5c:	f042 4280 	orr.w	r2, r2, #1073741824	@ 0x40000000
 8002c60:	609a      	str	r2, [r3, #8]
 8002c62:	e00b      	b.n	8002c7c <HAL_ADC_Start+0x174>
    }
  }
  else
  {
    /* Update ADC state machine to error */
    SET_BIT(hadc->State, HAL_ADC_STATE_ERROR_INTERNAL);
 8002c64:	687b      	ldr	r3, [r7, #4]
 8002c66:	6c1b      	ldr	r3, [r3, #64]	@ 0x40
 8002c68:	f043 0210 	orr.w	r2, r3, #16
 8002c6c:	687b      	ldr	r3, [r7, #4]
 8002c6e:	641a      	str	r2, [r3, #64]	@ 0x40
    
    /* Set ADC error code to ADC IP internal error */
    SET_BIT(hadc->ErrorCode, HAL_ADC_ERROR_INTERNAL);
 8002c70:	687b      	ldr	r3, [r7, #4]
 8002c72:	6c5b      	ldr	r3, [r3, #68]	@ 0x44
 8002c74:	f043 0201 	orr.w	r2, r3, #1
 8002c78:	687b      	ldr	r3, [r7, #4]
 8002c7a:	645a      	str	r2, [r3, #68]	@ 0x44
  }
  
  /* Return function status */
  return HAL_OK;
 8002c7c:	2300      	movs	r3, #0
}
 8002c7e:	4618      	mov	r0, r3
 8002c80:	3714      	adds	r7, #20
 8002c82:	46bd      	mov	sp, r7
 8002c84:	f85d 7b04 	ldr.w	r7, [sp], #4
 8002c88:	4770      	bx	lr
 8002c8a:	bf00      	nop
 8002c8c:	20000000 	.word	0x20000000
 8002c90:	431bde83 	.word	0x431bde83
 8002c94:	fffff8fe 	.word	0xfffff8fe
 8002c98:	40012300 	.word	0x40012300
 8002c9c:	40012000 	.word	0x40012000
 8002ca0:	40012200 	.word	0x40012200

08002ca4 <HAL_ADC_Stop>:
  *         the configuration information for the specified ADC.
  *
  * @retval HAL status.
  */
HAL_StatusTypeDef HAL_ADC_Stop(ADC_HandleTypeDef* hadc)
{
 8002ca4:	b480      	push	{r7}
 8002ca6:	b083      	sub	sp, #12
 8002ca8:	af00      	add	r7, sp, #0
 8002caa:	6078      	str	r0, [r7, #4]
  /* Check the parameters */
  assert_param(IS_ADC_ALL_INSTANCE(hadc->Instance));
  
  /* Process locked */
  __HAL_LOCK(hadc);
 8002cac:	687b      	ldr	r3, [r7, #4]
 8002cae:	f893 303c 	ldrb.w	r3, [r3, #60]	@ 0x3c
 8002cb2:	2b01      	cmp	r3, #1
 8002cb4:	d101      	bne.n	8002cba <HAL_ADC_Stop+0x16>
 8002cb6:	2302      	movs	r3, #2
 8002cb8:	e01f      	b.n	8002cfa <HAL_ADC_Stop+0x56>
 8002cba:	687b      	ldr	r3, [r7, #4]
 8002cbc:	2201      	movs	r2, #1
 8002cbe:	f883 203c 	strb.w	r2, [r3, #60]	@ 0x3c
  
  /* Stop potential conversion on going, on regular and injected groups */
  /* Disable ADC peripheral */
  __HAL_ADC_DISABLE(hadc);
 8002cc2:	687b      	ldr	r3, [r7, #4]
 8002cc4:	681b      	ldr	r3, [r3, #0]
 8002cc6:	689a      	ldr	r2, [r3, #8]
 8002cc8:	687b      	ldr	r3, [r7, #4]
 8002cca:	681b      	ldr	r3, [r3, #0]
 8002ccc:	f022 0201 	bic.w	r2, r2, #1
 8002cd0:	609a      	str	r2, [r3, #8]
  
  /* Check if ADC is effectively disabled */
  if(HAL_IS_BIT_CLR(hadc->Instance->CR2, ADC_CR2_ADON))
 8002cd2:	687b      	ldr	r3, [r7, #4]
 8002cd4:	681b      	ldr	r3, [r3, #0]
 8002cd6:	689b      	ldr	r3, [r3, #8]
 8002cd8:	f003 0301 	and.w	r3, r3, #1
 8002cdc:	2b00      	cmp	r3, #0
 8002cde:	d107      	bne.n	8002cf0 <HAL_ADC_Stop+0x4c>
  {
    /* Set ADC state */
    ADC_STATE_CLR_SET(hadc->State,
 8002ce0:	687b      	ldr	r3, [r7, #4]
 8002ce2:	6c1a      	ldr	r2, [r3, #64]	@ 0x40
 8002ce4:	4b08      	ldr	r3, [pc, #32]	@ (8002d08 <HAL_ADC_Stop+0x64>)
 8002ce6:	4013      	ands	r3, r2
 8002ce8:	f043 0201 	orr.w	r2, r3, #1
 8002cec:	687b      	ldr	r3, [r7, #4]
 8002cee:	641a      	str	r2, [r3, #64]	@ 0x40
                      HAL_ADC_STATE_REG_BUSY | HAL_ADC_STATE_INJ_BUSY,
                      HAL_ADC_STATE_READY);
  }
  
  /* Process unlocked */
  __HAL_UNLOCK(hadc);
 8002cf0:	687b      	ldr	r3, [r7, #4]
 8002cf2:	2200      	movs	r2, #0
 8002cf4:	f883 203c 	strb.w	r2, [r3, #60]	@ 0x3c
  
  /* Return function status */
  return HAL_OK;
 8002cf8:	2300      	movs	r3, #0
}
 8002cfa:	4618      	mov	r0, r3
 8002cfc:	370c      	adds	r7, #12
 8002cfe:	46bd      	mov	sp, r7
 8002d00:	f85d 7b04 	ldr.w	r7, [sp], #4
 8002d04:	4770      	bx	lr
 8002d06:	bf00      	nop
 8002d08:	ffffeefe 	.word	0xffffeefe

08002d0c <HAL_ADC_PollForConversion>:
  *         the configuration information for the specified ADC.
  * @param  Timeout Timeout value in millisecond.  
  * @retval HAL status
  */
HAL_StatusTypeDef HAL_ADC_PollForConversion(ADC_HandleTypeDef* hadc, uint32_t Timeout)
{
 8002d0c:	b580      	push	{r7, lr}
 8002d0e:	b084      	sub	sp, #16
 8002d10:	af00      	add	r7, sp, #0
 8002d12:	6078      	str	r0, [r7, #4]
 8002d14:	6039      	str	r1, [r7, #0]
  uint32_t tickstart = 0;
 8002d16:	2300      	movs	r3, #0
 8002d18:	60fb      	str	r3, [r7, #12]
  /* each conversion:                                                       */
  /* Particular case is ADC configured in DMA mode and ADC sequencer with   */
  /* several ranks and polling for end of each conversion.                  */
  /* For code simplicity sake, this particular case is generalized to       */
  /* ADC configured in DMA mode and polling for end of each conversion.     */
  if (HAL_IS_BIT_SET(hadc->Instance->CR2, ADC_CR2_EOCS) &&
 8002d1a:	687b      	ldr	r3, [r7, #4]
 8002d1c:	681b      	ldr	r3, [r3, #0]
 8002d1e:	689b      	ldr	r3, [r3, #8]
 8002d20:	f403 6380 	and.w	r3, r3, #1024	@ 0x400
 8002d24:	f5b3 6f80 	cmp.w	r3, #1024	@ 0x400
 8002d28:	d113      	bne.n	8002d52 <HAL_ADC_PollForConversion+0x46>
      HAL_IS_BIT_SET(hadc->Instance->CR2, ADC_CR2_DMA)    )
 8002d2a:	687b      	ldr	r3, [r7, #4]
 8002d2c:	681b      	ldr	r3, [r3, #0]
 8002d2e:	689b      	ldr	r3, [r3, #8]
 8002d30:	f403 7380 	and.w	r3, r3, #256	@ 0x100
  if (HAL_IS_BIT_SET(hadc->Instance->CR2, ADC_CR2_EOCS) &&
 8002d34:	f5b3 7f80 	cmp.w	r3, #256	@ 0x100
 8002d38:	d10b      	bne.n	8002d52 <HAL_ADC_PollForConversion+0x46>
  {
    /* Update ADC state machine to error */
    SET_BIT(hadc->State, HAL_ADC_STATE_ERROR_CONFIG);
 8002d3a:	687b      	ldr	r3, [r7, #4]
 8002d3c:	6c1b      	ldr	r3, [r3, #64]	@ 0x40
 8002d3e:	f043 0220 	orr.w	r2, r3, #32
 8002d42:	687b      	ldr	r3, [r7, #4]
 8002d44:	641a      	str	r2, [r3, #64]	@ 0x40
    
    /* Process unlocked */
    __HAL_UNLOCK(hadc);
 8002d46:	687b      	ldr	r3, [r7, #4]
 8002d48:	2200      	movs	r2, #0
 8002d4a:	f883 203c 	strb.w	r2, [r3, #60]	@ 0x3c
    
    return HAL_ERROR;
 8002d4e:	2301      	movs	r3, #1
 8002d50:	e063      	b.n	8002e1a <HAL_ADC_PollForConversion+0x10e>
  }
 
  /* Get tick */ 
  tickstart = HAL_GetTick();
 8002d52:	f7ff fe65 	bl	8002a20 <HAL_GetTick>
 8002d56:	60f8      	str	r0, [r7, #12]

  /* Check End of conversion flag */
  while(!(__HAL_ADC_GET_FLAG(hadc, ADC_FLAG_EOC)))
 8002d58:	e021      	b.n	8002d9e <HAL_ADC_PollForConversion+0x92>
  {
    /* Check if timeout is disabled (set to infinite wait) */
    if(Timeout != HAL_MAX_DELAY)
 8002d5a:	683b      	ldr	r3, [r7, #0]
 8002d5c:	f1b3 3fff 	cmp.w	r3, #4294967295
 8002d60:	d01d      	beq.n	8002d9e <HAL_ADC_PollForConversion+0x92>
    {
      if((Timeout == 0) || ((HAL_GetTick() - tickstart ) > Timeout))
 8002d62:	683b      	ldr	r3, [r7, #0]
 8002d64:	2b00      	cmp	r3, #0
 8002d66:	d007      	beq.n	8002d78 <HAL_ADC_PollForConversion+0x6c>
 8002d68:	f7ff fe5a 	bl	8002a20 <HAL_GetTick>
 8002d6c:	4602      	mov	r2, r0
 8002d6e:	68fb      	ldr	r3, [r7, #12]
 8002d70:	1ad3      	subs	r3, r2, r3
 8002d72:	683a      	ldr	r2, [r7, #0]
 8002d74:	429a      	cmp	r2, r3
 8002d76:	d212      	bcs.n	8002d9e <HAL_ADC_PollForConversion+0x92>
      {
        /* New check to avoid false timeout detection in case of preemption */
        if(!(__HAL_ADC_GET_FLAG(hadc, ADC_FLAG_EOC)))
 8002d78:	687b      	ldr	r3, [r7, #4]
 8002d7a:	681b      	ldr	r3, [r3, #0]
 8002d7c:	681b      	ldr	r3, [r3, #0]
 8002d7e:	f003 0302 	and.w	r3, r3, #2
 8002d82:	2b02      	cmp	r3, #2
 8002d84:	d00b      	beq.n	8002d9e <HAL_ADC_PollForConversion+0x92>
        {
          /* Update ADC state machine to timeout */
          SET_BIT(hadc->State, HAL_ADC_STATE_TIMEOUT);
 8002d86:	687b      	ldr	r3, [r7, #4]
 8002d88:	6c1b      	ldr	r3, [r3, #64]	@ 0x40
 8002d8a:	f043 0204 	orr.w	r2, r3, #4
 8002d8e:	687b      	ldr	r3, [r7, #4]
 8002d90:	641a      	str	r2, [r3, #64]	@ 0x40
          
          /* Process unlocked */
          __HAL_UNLOCK(hadc);
 8002d92:	687b      	ldr	r3, [r7, #4]
 8002d94:	2200      	movs	r2, #0
 8002d96:	f883 203c 	strb.w	r2, [r3, #60]	@ 0x3c
          
          return HAL_TIMEOUT;
 8002d9a:	2303      	movs	r3, #3
 8002d9c:	e03d      	b.n	8002e1a <HAL_ADC_PollForConversion+0x10e>
  while(!(__HAL_ADC_GET_FLAG(hadc, ADC_FLAG_EOC)))
 8002d9e:	687b      	ldr	r3, [r7, #4]
 8002da0:	681b      	ldr	r3, [r3, #0]
 8002da2:	681b      	ldr	r3, [r3, #0]
 8002da4:	f003 0302 	and.w	r3, r3, #2
 8002da8:	2b02      	cmp	r3, #2
 8002daa:	d1d6      	bne.n	8002d5a <HAL_ADC_PollForConversion+0x4e>
      }
    }
  }
  
  /* Clear regular group conversion flag */
  __HAL_ADC_CLEAR_FLAG(hadc, ADC_FLAG_STRT | ADC_FLAG_EOC);
 8002dac:	687b      	ldr	r3, [r7, #4]
 8002dae:	681b      	ldr	r3, [r3, #0]
 8002db0:	f06f 0212 	mvn.w	r2, #18
 8002db4:	601a      	str	r2, [r3, #0]
  
  /* Update ADC state machine */
  SET_BIT(hadc->State, HAL_ADC_STATE_REG_EOC);
 8002db6:	687b      	ldr	r3, [r7, #4]
 8002db8:	6c1b      	ldr	r3, [r3, #64]	@ 0x40
 8002dba:	f443 7200 	orr.w	r2, r3, #512	@ 0x200
 8002dbe:	687b      	ldr	r3, [r7, #4]
 8002dc0:	641a      	str	r2, [r3, #64]	@ 0x40
  /* by external trigger, continuous mode or scan sequence on going.          */
  /* Note: On STM32F7, there is no independent flag of end of sequence.       */
  /*       The test of scan sequence on going is done either with scan        */
  /*       sequence disabled or with end of conversion flag set to            */
  /*       of end of sequence.                                                */
  if(ADC_IS_SOFTWARE_START_REGULAR(hadc)                   &&
 8002dc2:	687b      	ldr	r3, [r7, #4]
 8002dc4:	681b      	ldr	r3, [r3, #0]
 8002dc6:	689b      	ldr	r3, [r3, #8]
 8002dc8:	f003 5340 	and.w	r3, r3, #805306368	@ 0x30000000
 8002dcc:	2b00      	cmp	r3, #0
 8002dce:	d123      	bne.n	8002e18 <HAL_ADC_PollForConversion+0x10c>
     (hadc->Init.ContinuousConvMode == DISABLE)            &&
 8002dd0:	687b      	ldr	r3, [r7, #4]
 8002dd2:	699b      	ldr	r3, [r3, #24]
  if(ADC_IS_SOFTWARE_START_REGULAR(hadc)                   &&
 8002dd4:	2b00      	cmp	r3, #0
 8002dd6:	d11f      	bne.n	8002e18 <HAL_ADC_PollForConversion+0x10c>
     (HAL_IS_BIT_CLR(hadc->Instance->SQR1, ADC_SQR1_L) ||
 8002dd8:	687b      	ldr	r3, [r7, #4]
 8002dda:	681b      	ldr	r3, [r3, #0]
 8002ddc:	6adb      	ldr	r3, [r3, #44]	@ 0x2c
 8002dde:	f403 0370 	and.w	r3, r3, #15728640	@ 0xf00000
     (hadc->Init.ContinuousConvMode == DISABLE)            &&
 8002de2:	2b00      	cmp	r3, #0
 8002de4:	d006      	beq.n	8002df4 <HAL_ADC_PollForConversion+0xe8>
      HAL_IS_BIT_CLR(hadc->Instance->CR2, ADC_CR2_EOCS)  )   )
 8002de6:	687b      	ldr	r3, [r7, #4]
 8002de8:	681b      	ldr	r3, [r3, #0]
 8002dea:	689b      	ldr	r3, [r3, #8]
 8002dec:	f403 6380 	and.w	r3, r3, #1024	@ 0x400
     (HAL_IS_BIT_CLR(hadc->Instance->SQR1, ADC_SQR1_L) ||
 8002df0:	2b00      	cmp	r3, #0
 8002df2:	d111      	bne.n	8002e18 <HAL_ADC_PollForConversion+0x10c>
  {
    /* Set ADC state */
    CLEAR_BIT(hadc->State, HAL_ADC_STATE_REG_BUSY);   
 8002df4:	687b      	ldr	r3, [r7, #4]
 8002df6:	6c1b      	ldr	r3, [r3, #64]	@ 0x40
 8002df8:	f423 7280 	bic.w	r2, r3, #256	@ 0x100
 8002dfc:	687b      	ldr	r3, [r7, #4]
 8002dfe:	641a      	str	r2, [r3, #64]	@ 0x40
    
    if (HAL_IS_BIT_CLR(hadc->State, HAL_ADC_STATE_INJ_BUSY))
 8002e00:	687b      	ldr	r3, [r7, #4]
 8002e02:	6c1b      	ldr	r3, [r3, #64]	@ 0x40
 8002e04:	f403 5380 	and.w	r3, r3, #4096	@ 0x1000
 8002e08:	2b00      	cmp	r3, #0
 8002e0a:	d105      	bne.n	8002e18 <HAL_ADC_PollForConversion+0x10c>
    { 
      SET_BIT(hadc->State, HAL_ADC_STATE_READY);
 8002e0c:	687b      	ldr	r3, [r7, #4]
 8002e0e:	6c1b      	ldr	r3, [r3, #64]	@ 0x40
 8002e10:	f043 0201 	orr.w	r2, r3, #1
 8002e14:	687b      	ldr	r3, [r7, #4]
 8002e16:	641a      	str	r2, [r3, #64]	@ 0x40
    }
  }
  
  /* Return ADC state */
  return HAL_OK;
 8002e18:	2300      	movs	r3, #0
}
 8002e1a:	4618      	mov	r0, r3
 8002e1c:	3710      	adds	r7, #16
 8002e1e:	46bd      	mov	sp, r7
 8002e20:	bd80      	pop	{r7, pc}

08002e22 <HAL_ADC_GetValue>:
  * @param  hadc pointer to a ADC_HandleTypeDef structure that contains
  *         the configuration information for the specified ADC.
  * @retval Converted value
  */
uint32_t HAL_ADC_GetValue(ADC_HandleTypeDef* hadc)
{       
 8002e22:	b480      	push	{r7}
 8002e24:	b083      	sub	sp, #12
 8002e26:	af00      	add	r7, sp, #0
 8002e28:	6078      	str	r0, [r7, #4]
  /* Return the selected ADC converted value */ 
  return hadc->Instance->DR;
 8002e2a:	687b      	ldr	r3, [r7, #4]
 8002e2c:	681b      	ldr	r3, [r3, #0]
 8002e2e:	6cdb      	ldr	r3, [r3, #76]	@ 0x4c
}
 8002e30:	4618      	mov	r0, r3
 8002e32:	370c      	adds	r7, #12
 8002e34:	46bd      	mov	sp, r7
 8002e36:	f85d 7b04 	ldr.w	r7, [sp], #4
 8002e3a:	4770      	bx	lr

08002e3c <HAL_ADC_ConfigChannel>:
  *         the configuration information for the specified ADC.
  * @param  sConfig ADC configuration structure. 
  * @retval HAL status
  */
HAL_StatusTypeDef HAL_ADC_ConfigChannel(ADC_HandleTypeDef* hadc, ADC_ChannelConfTypeDef* sConfig)
{
 8002e3c:	b480      	push	{r7}
 8002e3e:	b085      	sub	sp, #20
 8002e40:	af00      	add	r7, sp, #0
 8002e42:	6078      	str	r0, [r7, #4]
 8002e44:	6039      	str	r1, [r7, #0]
  __IO uint32_t counter = 0;
 8002e46:	2300      	movs	r3, #0
 8002e48:	60fb      	str	r3, [r7, #12]
  assert_param(IS_ADC_CHANNEL(sConfig->Channel));
  assert_param(IS_ADC_REGULAR_RANK(sConfig->Rank));
  assert_param(IS_ADC_SAMPLE_TIME(sConfig->SamplingTime));
  
  /* Process locked */
  __HAL_LOCK(hadc);
 8002e4a:	687b      	ldr	r3, [r7, #4]
 8002e4c:	f893 303c 	ldrb.w	r3, [r3, #60]	@ 0x3c
 8002e50:	2b01      	cmp	r3, #1
 8002e52:	d101      	bne.n	8002e58 <HAL_ADC_ConfigChannel+0x1c>
 8002e54:	2302      	movs	r3, #2
 8002e56:	e13a      	b.n	80030ce <HAL_ADC_ConfigChannel+0x292>
 8002e58:	687b      	ldr	r3, [r7, #4]
 8002e5a:	2201      	movs	r2, #1
 8002e5c:	f883 203c 	strb.w	r2, [r3, #60]	@ 0x3c
  
  /* if ADC_Channel_10 ... ADC_Channel_18 is selected */
  if ((sConfig->Channel > ADC_CHANNEL_9) && (sConfig->Channel != ADC_INTERNAL_NONE))
 8002e60:	683b      	ldr	r3, [r7, #0]
 8002e62:	681b      	ldr	r3, [r3, #0]
 8002e64:	2b09      	cmp	r3, #9
 8002e66:	d93a      	bls.n	8002ede <HAL_ADC_ConfigChannel+0xa2>
 8002e68:	683b      	ldr	r3, [r7, #0]
 8002e6a:	681b      	ldr	r3, [r3, #0]
 8002e6c:	f1b3 4f00 	cmp.w	r3, #2147483648	@ 0x80000000
 8002e70:	d035      	beq.n	8002ede <HAL_ADC_ConfigChannel+0xa2>
  {
    /* Clear the old sample time */
    hadc->Instance->SMPR1 &= ~ADC_SMPR1(ADC_SMPR1_SMP10, sConfig->Channel);
 8002e72:	687b      	ldr	r3, [r7, #4]
 8002e74:	681b      	ldr	r3, [r3, #0]
 8002e76:	68d9      	ldr	r1, [r3, #12]
 8002e78:	683b      	ldr	r3, [r7, #0]
 8002e7a:	681b      	ldr	r3, [r3, #0]
 8002e7c:	b29b      	uxth	r3, r3
 8002e7e:	461a      	mov	r2, r3
 8002e80:	4613      	mov	r3, r2
 8002e82:	005b      	lsls	r3, r3, #1
 8002e84:	4413      	add	r3, r2
 8002e86:	3b1e      	subs	r3, #30
 8002e88:	2207      	movs	r2, #7
 8002e8a:	fa02 f303 	lsl.w	r3, r2, r3
 8002e8e:	43da      	mvns	r2, r3
 8002e90:	687b      	ldr	r3, [r7, #4]
 8002e92:	681b      	ldr	r3, [r3, #0]
 8002e94:	400a      	ands	r2, r1
 8002e96:	60da      	str	r2, [r3, #12]

    if (sConfig->Channel == ADC_CHANNEL_TEMPSENSOR)
 8002e98:	683b      	ldr	r3, [r7, #0]
 8002e9a:	681b      	ldr	r3, [r3, #0]
 8002e9c:	4a8f      	ldr	r2, [pc, #572]	@ (80030dc <HAL_ADC_ConfigChannel+0x2a0>)
 8002e9e:	4293      	cmp	r3, r2
 8002ea0:	d10a      	bne.n	8002eb8 <HAL_ADC_ConfigChannel+0x7c>
    {
      /* Set the new sample time */
      hadc->Instance->SMPR1 |= ADC_SMPR1(sConfig->SamplingTime, ADC_CHANNEL_18);
 8002ea2:	687b      	ldr	r3, [r7, #4]
 8002ea4:	681b      	ldr	r3, [r3, #0]
 8002ea6:	68d9      	ldr	r1, [r3, #12]
 8002ea8:	683b      	ldr	r3, [r7, #0]
 8002eaa:	689b      	ldr	r3, [r3, #8]
 8002eac:	061a      	lsls	r2, r3, #24
 8002eae:	687b      	ldr	r3, [r7, #4]
 8002eb0:	681b      	ldr	r3, [r3, #0]
 8002eb2:	430a      	orrs	r2, r1
 8002eb4:	60da      	str	r2, [r3, #12]
    if (sConfig->Channel == ADC_CHANNEL_TEMPSENSOR)
 8002eb6:	e039      	b.n	8002f2c <HAL_ADC_ConfigChannel+0xf0>
    }
    else
    {
      /* Set the new sample time */
      hadc->Instance->SMPR1 |= ADC_SMPR1(sConfig->SamplingTime, sConfig->Channel);
 8002eb8:	687b      	ldr	r3, [r7, #4]
 8002eba:	681b      	ldr	r3, [r3, #0]
 8002ebc:	68d9      	ldr	r1, [r3, #12]
 8002ebe:	683b      	ldr	r3, [r7, #0]
 8002ec0:	689a      	ldr	r2, [r3, #8]
 8002ec2:	683b      	ldr	r3, [r7, #0]
 8002ec4:	681b      	ldr	r3, [r3, #0]
 8002ec6:	b29b      	uxth	r3, r3
 8002ec8:	4618      	mov	r0, r3
 8002eca:	4603      	mov	r3, r0
 8002ecc:	005b      	lsls	r3, r3, #1
 8002ece:	4403      	add	r3, r0
 8002ed0:	3b1e      	subs	r3, #30
 8002ed2:	409a      	lsls	r2, r3
 8002ed4:	687b      	ldr	r3, [r7, #4]
 8002ed6:	681b      	ldr	r3, [r3, #0]
 8002ed8:	430a      	orrs	r2, r1
 8002eda:	60da      	str	r2, [r3, #12]
    if (sConfig->Channel == ADC_CHANNEL_TEMPSENSOR)
 8002edc:	e026      	b.n	8002f2c <HAL_ADC_ConfigChannel+0xf0>
    }
  }
  else /* ADC_Channel include in ADC_Channel_[0..9] */
  {
    /* Clear the old sample time */
    hadc->Instance->SMPR2 &= ~ADC_SMPR2(ADC_SMPR2_SMP0, sConfig->Channel);
 8002ede:	687b      	ldr	r3, [r7, #4]
 8002ee0:	681b      	ldr	r3, [r3, #0]
 8002ee2:	6919      	ldr	r1, [r3, #16]
 8002ee4:	683b      	ldr	r3, [r7, #0]
 8002ee6:	681b      	ldr	r3, [r3, #0]
 8002ee8:	b29b      	uxth	r3, r3
 8002eea:	461a      	mov	r2, r3
 8002eec:	4613      	mov	r3, r2
 8002eee:	005b      	lsls	r3, r3, #1
 8002ef0:	4413      	add	r3, r2
 8002ef2:	f003 031f 	and.w	r3, r3, #31
 8002ef6:	2207      	movs	r2, #7
 8002ef8:	fa02 f303 	lsl.w	r3, r2, r3
 8002efc:	43da      	mvns	r2, r3
 8002efe:	687b      	ldr	r3, [r7, #4]
 8002f00:	681b      	ldr	r3, [r3, #0]
 8002f02:	400a      	ands	r2, r1
 8002f04:	611a      	str	r2, [r3, #16]
    
    /* Set the new sample time */
    hadc->Instance->SMPR2 |= ADC_SMPR2(sConfig->SamplingTime, sConfig->Channel);
 8002f06:	687b      	ldr	r3, [r7, #4]
 8002f08:	681b      	ldr	r3, [r3, #0]
 8002f0a:	6919      	ldr	r1, [r3, #16]
 8002f0c:	683b      	ldr	r3, [r7, #0]
 8002f0e:	689a      	ldr	r2, [r3, #8]
 8002f10:	683b      	ldr	r3, [r7, #0]
 8002f12:	681b      	ldr	r3, [r3, #0]
 8002f14:	b29b      	uxth	r3, r3
 8002f16:	4618      	mov	r0, r3
 8002f18:	4603      	mov	r3, r0
 8002f1a:	005b      	lsls	r3, r3, #1
 8002f1c:	4403      	add	r3, r0
 8002f1e:	f003 031f 	and.w	r3, r3, #31
 8002f22:	409a      	lsls	r2, r3
 8002f24:	687b      	ldr	r3, [r7, #4]
 8002f26:	681b      	ldr	r3, [r3, #0]
 8002f28:	430a      	orrs	r2, r1
 8002f2a:	611a      	str	r2, [r3, #16]
  }
  
  /* For Rank 1 to 6 */
  if (sConfig->Rank < 7)
 8002f2c:	683b      	ldr	r3, [r7, #0]
 8002f2e:	685b      	ldr	r3, [r3, #4]
 8002f30:	2b06      	cmp	r3, #6
 8002f32:	d824      	bhi.n	8002f7e <HAL_ADC_ConfigChannel+0x142>
  {
    /* Clear the old SQx bits for the selected rank */
    hadc->Instance->SQR3 &= ~ADC_SQR3_RK(ADC_SQR3_SQ1, sConfig->Rank);
 8002f34:	687b      	ldr	r3, [r7, #4]
 8002f36:	681b      	ldr	r3, [r3, #0]
 8002f38:	6b59      	ldr	r1, [r3, #52]	@ 0x34
 8002f3a:	683b      	ldr	r3, [r7, #0]
 8002f3c:	685a      	ldr	r2, [r3, #4]
 8002f3e:	4613      	mov	r3, r2
 8002f40:	009b      	lsls	r3, r3, #2
 8002f42:	4413      	add	r3, r2
 8002f44:	3b05      	subs	r3, #5
 8002f46:	221f      	movs	r2, #31
 8002f48:	fa02 f303 	lsl.w	r3, r2, r3
 8002f4c:	43da      	mvns	r2, r3
 8002f4e:	687b      	ldr	r3, [r7, #4]
 8002f50:	681b      	ldr	r3, [r3, #0]
 8002f52:	400a      	ands	r2, r1
 8002f54:	635a      	str	r2, [r3, #52]	@ 0x34
    
    /* Set the SQx bits for the selected rank */
    hadc->Instance->SQR3 |= ADC_SQR3_RK(sConfig->Channel, sConfig->Rank);
 8002f56:	687b      	ldr	r3, [r7, #4]
 8002f58:	681b      	ldr	r3, [r3, #0]
 8002f5a:	6b59      	ldr	r1, [r3, #52]	@ 0x34
 8002f5c:	683b      	ldr	r3, [r7, #0]
 8002f5e:	681b      	ldr	r3, [r3, #0]
 8002f60:	b29b      	uxth	r3, r3
 8002f62:	4618      	mov	r0, r3
 8002f64:	683b      	ldr	r3, [r7, #0]
 8002f66:	685a      	ldr	r2, [r3, #4]
 8002f68:	4613      	mov	r3, r2
 8002f6a:	009b      	lsls	r3, r3, #2
 8002f6c:	4413      	add	r3, r2
 8002f6e:	3b05      	subs	r3, #5
 8002f70:	fa00 f203 	lsl.w	r2, r0, r3
 8002f74:	687b      	ldr	r3, [r7, #4]
 8002f76:	681b      	ldr	r3, [r3, #0]
 8002f78:	430a      	orrs	r2, r1
 8002f7a:	635a      	str	r2, [r3, #52]	@ 0x34
 8002f7c:	e04c      	b.n	8003018 <HAL_ADC_ConfigChannel+0x1dc>
  }
  /* For Rank 7 to 12 */
  else if (sConfig->Rank < 13)
 8002f7e:	683b      	ldr	r3, [r7, #0]
 8002f80:	685b      	ldr	r3, [r3, #4]
 8002f82:	2b0c      	cmp	r3, #12
 8002f84:	d824      	bhi.n	8002fd0 <HAL_ADC_ConfigChannel+0x194>
  {
    /* Clear the old SQx bits for the selected rank */
    hadc->Instance->SQR2 &= ~ADC_SQR2_RK(ADC_SQR2_SQ7, sConfig->Rank);
 8002f86:	687b      	ldr	r3, [r7, #4]
 8002f88:	681b      	ldr	r3, [r3, #0]
 8002f8a:	6b19      	ldr	r1, [r3, #48]	@ 0x30
 8002f8c:	683b      	ldr	r3, [r7, #0]
 8002f8e:	685a      	ldr	r2, [r3, #4]
 8002f90:	4613      	mov	r3, r2
 8002f92:	009b      	lsls	r3, r3, #2
 8002f94:	4413      	add	r3, r2
 8002f96:	3b23      	subs	r3, #35	@ 0x23
 8002f98:	221f      	movs	r2, #31
 8002f9a:	fa02 f303 	lsl.w	r3, r2, r3
 8002f9e:	43da      	mvns	r2, r3
 8002fa0:	687b      	ldr	r3, [r7, #4]
 8002fa2:	681b      	ldr	r3, [r3, #0]
 8002fa4:	400a      	ands	r2, r1
 8002fa6:	631a      	str	r2, [r3, #48]	@ 0x30
    
    /* Set the SQx bits for the selected rank */
    hadc->Instance->SQR2 |= ADC_SQR2_RK(sConfig->Channel, sConfig->Rank);
 8002fa8:	687b      	ldr	r3, [r7, #4]
 8002faa:	681b      	ldr	r3, [r3, #0]
 8002fac:	6b19      	ldr	r1, [r3, #48]	@ 0x30
 8002fae:	683b      	ldr	r3, [r7, #0]
 8002fb0:	681b      	ldr	r3, [r3, #0]
 8002fb2:	b29b      	uxth	r3, r3
 8002fb4:	4618      	mov	r0, r3
 8002fb6:	683b      	ldr	r3, [r7, #0]
 8002fb8:	685a      	ldr	r2, [r3, #4]
 8002fba:	4613      	mov	r3, r2
 8002fbc:	009b      	lsls	r3, r3, #2
 8002fbe:	4413      	add	r3, r2
 8002fc0:	3b23      	subs	r3, #35	@ 0x23
 8002fc2:	fa00 f203 	lsl.w	r2, r0, r3
 8002fc6:	687b      	ldr	r3, [r7, #4]
 8002fc8:	681b      	ldr	r3, [r3, #0]
 8002fca:	430a      	orrs	r2, r1
 8002fcc:	631a      	str	r2, [r3, #48]	@ 0x30
 8002fce:	e023      	b.n	8003018 <HAL_ADC_ConfigChannel+0x1dc>
  }
  /* For Rank 13 to 16 */
  else
  {
    /* Clear the old SQx bits for the selected rank */
    hadc->Instance->SQR1 &= ~ADC_SQR1_RK(ADC_SQR1_SQ13, sConfig->Rank);
 8002fd0:	687b      	ldr	r3, [r7, #4]
 8002fd2:	681b      	ldr	r3, [r3, #0]
 8002fd4:	6ad9      	ldr	r1, [r3, #44]	@ 0x2c
 8002fd6:	683b      	ldr	r3, [r7, #0]
 8002fd8:	685a      	ldr	r2, [r3, #4]
 8002fda:	4613      	mov	r3, r2
 8002fdc:	009b      	lsls	r3, r3, #2
 8002fde:	4413      	add	r3, r2
 8002fe0:	3b41      	subs	r3, #65	@ 0x41
 8002fe2:	221f      	movs	r2, #31
 8002fe4:	fa02 f303 	lsl.w	r3, r2, r3
 8002fe8:	43da      	mvns	r2, r3
 8002fea:	687b      	ldr	r3, [r7, #4]
 8002fec:	681b      	ldr	r3, [r3, #0]
 8002fee:	400a      	ands	r2, r1
 8002ff0:	62da      	str	r2, [r3, #44]	@ 0x2c
    
    /* Set the SQx bits for the selected rank */
    hadc->Instance->SQR1 |= ADC_SQR1_RK(sConfig->Channel, sConfig->Rank);
 8002ff2:	687b      	ldr	r3, [r7, #4]
 8002ff4:	681b      	ldr	r3, [r3, #0]
 8002ff6:	6ad9      	ldr	r1, [r3, #44]	@ 0x2c
 8002ff8:	683b      	ldr	r3, [r7, #0]
 8002ffa:	681b      	ldr	r3, [r3, #0]
 8002ffc:	b29b      	uxth	r3, r3
 8002ffe:	4618      	mov	r0, r3
 8003000:	683b      	ldr	r3, [r7, #0]
 8003002:	685a      	ldr	r2, [r3, #4]
 8003004:	4613      	mov	r3, r2
 8003006:	009b      	lsls	r3, r3, #2
 8003008:	4413      	add	r3, r2
 800300a:	3b41      	subs	r3, #65	@ 0x41
 800300c:	fa00 f203 	lsl.w	r2, r0, r3
 8003010:	687b      	ldr	r3, [r7, #4]
 8003012:	681b      	ldr	r3, [r3, #0]
 8003014:	430a      	orrs	r2, r1
 8003016:	62da      	str	r2, [r3, #44]	@ 0x2c
  }
  
  /* if no internal channel selected */
  if ((hadc->Instance == ADC1) && (sConfig->Channel == ADC_INTERNAL_NONE))
 8003018:	687b      	ldr	r3, [r7, #4]
 800301a:	681b      	ldr	r3, [r3, #0]
 800301c:	4a30      	ldr	r2, [pc, #192]	@ (80030e0 <HAL_ADC_ConfigChannel+0x2a4>)
 800301e:	4293      	cmp	r3, r2
 8003020:	d10a      	bne.n	8003038 <HAL_ADC_ConfigChannel+0x1fc>
 8003022:	683b      	ldr	r3, [r7, #0]
 8003024:	681b      	ldr	r3, [r3, #0]
 8003026:	f1b3 4f00 	cmp.w	r3, #2147483648	@ 0x80000000
 800302a:	d105      	bne.n	8003038 <HAL_ADC_ConfigChannel+0x1fc>
  {
    /* Disable the VBAT & TSVREFE channel*/
    ADC->CCR &= ~(ADC_CCR_VBATE | ADC_CCR_TSVREFE);
 800302c:	4b2d      	ldr	r3, [pc, #180]	@ (80030e4 <HAL_ADC_ConfigChannel+0x2a8>)
 800302e:	685b      	ldr	r3, [r3, #4]
 8003030:	4a2c      	ldr	r2, [pc, #176]	@ (80030e4 <HAL_ADC_ConfigChannel+0x2a8>)
 8003032:	f423 0340 	bic.w	r3, r3, #12582912	@ 0xc00000
 8003036:	6053      	str	r3, [r2, #4]
  }

  /* if ADC1 Channel_18 is selected enable VBAT Channel */
  if ((hadc->Instance == ADC1) && (sConfig->Channel == ADC_CHANNEL_VBAT))
 8003038:	687b      	ldr	r3, [r7, #4]
 800303a:	681b      	ldr	r3, [r3, #0]
 800303c:	4a28      	ldr	r2, [pc, #160]	@ (80030e0 <HAL_ADC_ConfigChannel+0x2a4>)
 800303e:	4293      	cmp	r3, r2
 8003040:	d10f      	bne.n	8003062 <HAL_ADC_ConfigChannel+0x226>
 8003042:	683b      	ldr	r3, [r7, #0]
 8003044:	681b      	ldr	r3, [r3, #0]
 8003046:	2b12      	cmp	r3, #18
 8003048:	d10b      	bne.n	8003062 <HAL_ADC_ConfigChannel+0x226>
  {
    /* Disable the TEMPSENSOR channel as it is multiplixed with the VBAT channel */
    ADC->CCR &= ~ADC_CCR_TSVREFE;
 800304a:	4b26      	ldr	r3, [pc, #152]	@ (80030e4 <HAL_ADC_ConfigChannel+0x2a8>)
 800304c:	685b      	ldr	r3, [r3, #4]
 800304e:	4a25      	ldr	r2, [pc, #148]	@ (80030e4 <HAL_ADC_ConfigChannel+0x2a8>)
 8003050:	f423 0300 	bic.w	r3, r3, #8388608	@ 0x800000
 8003054:	6053      	str	r3, [r2, #4]

    /* Enable the VBAT channel*/
    ADC->CCR |= ADC_CCR_VBATE;
 8003056:	4b23      	ldr	r3, [pc, #140]	@ (80030e4 <HAL_ADC_ConfigChannel+0x2a8>)
 8003058:	685b      	ldr	r3, [r3, #4]
 800305a:	4a22      	ldr	r2, [pc, #136]	@ (80030e4 <HAL_ADC_ConfigChannel+0x2a8>)
 800305c:	f443 0380 	orr.w	r3, r3, #4194304	@ 0x400000
 8003060:	6053      	str	r3, [r2, #4]
  }
  
  /* if ADC1 Channel_18 or Channel_17 is selected enable TSVREFE Channel(Temperature sensor and VREFINT) */
  if ((hadc->Instance == ADC1) && ((sConfig->Channel == ADC_CHANNEL_TEMPSENSOR) || (sConfig->Channel == ADC_CHANNEL_VREFINT)))
 8003062:	687b      	ldr	r3, [r7, #4]
 8003064:	681b      	ldr	r3, [r3, #0]
 8003066:	4a1e      	ldr	r2, [pc, #120]	@ (80030e0 <HAL_ADC_ConfigChannel+0x2a4>)
 8003068:	4293      	cmp	r3, r2
 800306a:	d12b      	bne.n	80030c4 <HAL_ADC_ConfigChannel+0x288>
 800306c:	683b      	ldr	r3, [r7, #0]
 800306e:	681b      	ldr	r3, [r3, #0]
 8003070:	4a1a      	ldr	r2, [pc, #104]	@ (80030dc <HAL_ADC_ConfigChannel+0x2a0>)
 8003072:	4293      	cmp	r3, r2
 8003074:	d003      	beq.n	800307e <HAL_ADC_ConfigChannel+0x242>
 8003076:	683b      	ldr	r3, [r7, #0]
 8003078:	681b      	ldr	r3, [r3, #0]
 800307a:	2b11      	cmp	r3, #17
 800307c:	d122      	bne.n	80030c4 <HAL_ADC_ConfigChannel+0x288>
  {
    /* Disable the VBAT channel as it is multiplixed with TEMPSENSOR channel */
    ADC->CCR &= ~ADC_CCR_VBATE;
 800307e:	4b19      	ldr	r3, [pc, #100]	@ (80030e4 <HAL_ADC_ConfigChannel+0x2a8>)
 8003080:	685b      	ldr	r3, [r3, #4]
 8003082:	4a18      	ldr	r2, [pc, #96]	@ (80030e4 <HAL_ADC_ConfigChannel+0x2a8>)
 8003084:	f423 0380 	bic.w	r3, r3, #4194304	@ 0x400000
 8003088:	6053      	str	r3, [r2, #4]

    /* Enable the TSVREFE channel*/
    ADC->CCR |= ADC_CCR_TSVREFE;
 800308a:	4b16      	ldr	r3, [pc, #88]	@ (80030e4 <HAL_ADC_ConfigChannel+0x2a8>)
 800308c:	685b      	ldr	r3, [r3, #4]
 800308e:	4a15      	ldr	r2, [pc, #84]	@ (80030e4 <HAL_ADC_ConfigChannel+0x2a8>)
 8003090:	f443 0300 	orr.w	r3, r3, #8388608	@ 0x800000
 8003094:	6053      	str	r3, [r2, #4]

    if(sConfig->Channel == ADC_CHANNEL_TEMPSENSOR)
 8003096:	683b      	ldr	r3, [r7, #0]
 8003098:	681b      	ldr	r3, [r3, #0]
 800309a:	4a10      	ldr	r2, [pc, #64]	@ (80030dc <HAL_ADC_ConfigChannel+0x2a0>)
 800309c:	4293      	cmp	r3, r2
 800309e:	d111      	bne.n	80030c4 <HAL_ADC_ConfigChannel+0x288>
    {
      /* Delay for temperature sensor stabilization time */
      /* Compute number of CPU cycles to wait for */
      counter = (ADC_TEMPSENSOR_DELAY_US * (SystemCoreClock / 1000000));
 80030a0:	4b11      	ldr	r3, [pc, #68]	@ (80030e8 <HAL_ADC_ConfigChannel+0x2ac>)
 80030a2:	681b      	ldr	r3, [r3, #0]
 80030a4:	4a11      	ldr	r2, [pc, #68]	@ (80030ec <HAL_ADC_ConfigChannel+0x2b0>)
 80030a6:	fba2 2303 	umull	r2, r3, r2, r3
 80030aa:	0c9a      	lsrs	r2, r3, #18
 80030ac:	4613      	mov	r3, r2
 80030ae:	009b      	lsls	r3, r3, #2
 80030b0:	4413      	add	r3, r2
 80030b2:	005b      	lsls	r3, r3, #1
 80030b4:	60fb      	str	r3, [r7, #12]
      while(counter != 0)
 80030b6:	e002      	b.n	80030be <HAL_ADC_ConfigChannel+0x282>
      {
        counter--;
 80030b8:	68fb      	ldr	r3, [r7, #12]
 80030ba:	3b01      	subs	r3, #1
 80030bc:	60fb      	str	r3, [r7, #12]
      while(counter != 0)
 80030be:	68fb      	ldr	r3, [r7, #12]
 80030c0:	2b00      	cmp	r3, #0
 80030c2:	d1f9      	bne.n	80030b8 <HAL_ADC_ConfigChannel+0x27c>
      }
    }
  }
  
  /* Process unlocked */
  __HAL_UNLOCK(hadc);
 80030c4:	687b      	ldr	r3, [r7, #4]
 80030c6:	2200      	movs	r2, #0
 80030c8:	f883 203c 	strb.w	r2, [r3, #60]	@ 0x3c
  
  /* Return function status */
  return HAL_OK;
 80030cc:	2300      	movs	r3, #0
}
 80030ce:	4618      	mov	r0, r3
 80030d0:	3714      	adds	r7, #20
 80030d2:	46bd      	mov	sp, r7
 80030d4:	f85d 7b04 	ldr.w	r7, [sp], #4
 80030d8:	4770      	bx	lr
 80030da:	bf00      	nop
 80030dc:	10000012 	.word	0x10000012
 80030e0:	40012000 	.word	0x40012000
 80030e4:	40012300 	.word	0x40012300
 80030e8:	20000000 	.word	0x20000000
 80030ec:	431bde83 	.word	0x431bde83

080030f0 <ADC_Init>:
  * @param  hadc pointer to a ADC_HandleTypeDef structure that contains
  *         the configuration information for the specified ADC.  
  * @retval None
  */
static void ADC_Init(ADC_HandleTypeDef* hadc)
{
 80030f0:	b480      	push	{r7}
 80030f2:	b083      	sub	sp, #12
 80030f4:	af00      	add	r7, sp, #0
 80030f6:	6078      	str	r0, [r7, #4]
  /* Set ADC parameters */
  /* Set the ADC clock prescaler */
  ADC->CCR &= ~(ADC_CCR_ADCPRE);
 80030f8:	4b78      	ldr	r3, [pc, #480]	@ (80032dc <ADC_Init+0x1ec>)
 80030fa:	685b      	ldr	r3, [r3, #4]
 80030fc:	4a77      	ldr	r2, [pc, #476]	@ (80032dc <ADC_Init+0x1ec>)
 80030fe:	f423 3340 	bic.w	r3, r3, #196608	@ 0x30000
 8003102:	6053      	str	r3, [r2, #4]
  ADC->CCR |=  hadc->Init.ClockPrescaler;
 8003104:	4b75      	ldr	r3, [pc, #468]	@ (80032dc <ADC_Init+0x1ec>)
 8003106:	685a      	ldr	r2, [r3, #4]
 8003108:	687b      	ldr	r3, [r7, #4]
 800310a:	685b      	ldr	r3, [r3, #4]
 800310c:	4973      	ldr	r1, [pc, #460]	@ (80032dc <ADC_Init+0x1ec>)
 800310e:	4313      	orrs	r3, r2
 8003110:	604b      	str	r3, [r1, #4]
  
  /* Set ADC scan mode */
  hadc->Instance->CR1 &= ~(ADC_CR1_SCAN);
 8003112:	687b      	ldr	r3, [r7, #4]
 8003114:	681b      	ldr	r3, [r3, #0]
 8003116:	685a      	ldr	r2, [r3, #4]
 8003118:	687b      	ldr	r3, [r7, #4]
 800311a:	681b      	ldr	r3, [r3, #0]
 800311c:	f422 7280 	bic.w	r2, r2, #256	@ 0x100
 8003120:	605a      	str	r2, [r3, #4]
  hadc->Instance->CR1 |=  ADC_CR1_SCANCONV(hadc->Init.ScanConvMode);
 8003122:	687b      	ldr	r3, [r7, #4]
 8003124:	681b      	ldr	r3, [r3, #0]
 8003126:	6859      	ldr	r1, [r3, #4]
 8003128:	687b      	ldr	r3, [r7, #4]
 800312a:	691b      	ldr	r3, [r3, #16]
 800312c:	021a      	lsls	r2, r3, #8
 800312e:	687b      	ldr	r3, [r7, #4]
 8003130:	681b      	ldr	r3, [r3, #0]
 8003132:	430a      	orrs	r2, r1
 8003134:	605a      	str	r2, [r3, #4]
  
  /* Set ADC resolution */
  hadc->Instance->CR1 &= ~(ADC_CR1_RES);
 8003136:	687b      	ldr	r3, [r7, #4]
 8003138:	681b      	ldr	r3, [r3, #0]
 800313a:	685a      	ldr	r2, [r3, #4]
 800313c:	687b      	ldr	r3, [r7, #4]
 800313e:	681b      	ldr	r3, [r3, #0]
 8003140:	f022 7240 	bic.w	r2, r2, #50331648	@ 0x3000000
 8003144:	605a      	str	r2, [r3, #4]
  hadc->Instance->CR1 |=  hadc->Init.Resolution;
 8003146:	687b      	ldr	r3, [r7, #4]
 8003148:	681b      	ldr	r3, [r3, #0]
 800314a:	6859      	ldr	r1, [r3, #4]
 800314c:	687b      	ldr	r3, [r7, #4]
 800314e:	689a      	ldr	r2, [r3, #8]
 8003150:	687b      	ldr	r3, [r7, #4]
 8003152:	681b      	ldr	r3, [r3, #0]
 8003154:	430a      	orrs	r2, r1
 8003156:	605a      	str	r2, [r3, #4]
  
  /* Set ADC data alignment */
  hadc->Instance->CR2 &= ~(ADC_CR2_ALIGN);
 8003158:	687b      	ldr	r3, [r7, #4]
 800315a:	681b      	ldr	r3, [r3, #0]
 800315c:	689a      	ldr	r2, [r3, #8]
 800315e:	687b      	ldr	r3, [r7, #4]
 8003160:	681b      	ldr	r3, [r3, #0]
 8003162:	f422 6200 	bic.w	r2, r2, #2048	@ 0x800
 8003166:	609a      	str	r2, [r3, #8]
  hadc->Instance->CR2 |= hadc->Init.DataAlign;
 8003168:	687b      	ldr	r3, [r7, #4]
 800316a:	681b      	ldr	r3, [r3, #0]
 800316c:	6899      	ldr	r1, [r3, #8]
 800316e:	687b      	ldr	r3, [r7, #4]
 8003170:	68da      	ldr	r2, [r3, #12]
 8003172:	687b      	ldr	r3, [r7, #4]
 8003174:	681b      	ldr	r3, [r3, #0]
 8003176:	430a      	orrs	r2, r1
 8003178:	609a      	str	r2, [r3, #8]
  /* Enable external trigger if trigger selection is different of software  */
  /* start.                                                                 */
  /* Note: This configuration keeps the hardware feature of parameter       */
  /*       ExternalTrigConvEdge "trigger edge none" equivalent to           */
  /*       software start.                                                  */
  if(hadc->Init.ExternalTrigConv != ADC_SOFTWARE_START)
 800317a:	687b      	ldr	r3, [r7, #4]
 800317c:	6a9b      	ldr	r3, [r3, #40]	@ 0x28
 800317e:	4a58      	ldr	r2, [pc, #352]	@ (80032e0 <ADC_Init+0x1f0>)
 8003180:	4293      	cmp	r3, r2
 8003182:	d022      	beq.n	80031ca <ADC_Init+0xda>
  {
    /* Select external trigger to start conversion */
    hadc->Instance->CR2 &= ~(ADC_CR2_EXTSEL);
 8003184:	687b      	ldr	r3, [r7, #4]
 8003186:	681b      	ldr	r3, [r3, #0]
 8003188:	689a      	ldr	r2, [r3, #8]
 800318a:	687b      	ldr	r3, [r7, #4]
 800318c:	681b      	ldr	r3, [r3, #0]
 800318e:	f022 6270 	bic.w	r2, r2, #251658240	@ 0xf000000
 8003192:	609a      	str	r2, [r3, #8]
    hadc->Instance->CR2 |= hadc->Init.ExternalTrigConv;
 8003194:	687b      	ldr	r3, [r7, #4]
 8003196:	681b      	ldr	r3, [r3, #0]
 8003198:	6899      	ldr	r1, [r3, #8]
 800319a:	687b      	ldr	r3, [r7, #4]
 800319c:	6a9a      	ldr	r2, [r3, #40]	@ 0x28
 800319e:	687b      	ldr	r3, [r7, #4]
 80031a0:	681b      	ldr	r3, [r3, #0]
 80031a2:	430a      	orrs	r2, r1
 80031a4:	609a      	str	r2, [r3, #8]
    
    /* Select external trigger polarity */
    hadc->Instance->CR2 &= ~(ADC_CR2_EXTEN);
 80031a6:	687b      	ldr	r3, [r7, #4]
 80031a8:	681b      	ldr	r3, [r3, #0]
 80031aa:	689a      	ldr	r2, [r3, #8]
 80031ac:	687b      	ldr	r3, [r7, #4]
 80031ae:	681b      	ldr	r3, [r3, #0]
 80031b0:	f022 5240 	bic.w	r2, r2, #805306368	@ 0x30000000
 80031b4:	609a      	str	r2, [r3, #8]
    hadc->Instance->CR2 |= hadc->Init.ExternalTrigConvEdge;
 80031b6:	687b      	ldr	r3, [r7, #4]
 80031b8:	681b      	ldr	r3, [r3, #0]
 80031ba:	6899      	ldr	r1, [r3, #8]
 80031bc:	687b      	ldr	r3, [r7, #4]
 80031be:	6ada      	ldr	r2, [r3, #44]	@ 0x2c
 80031c0:	687b      	ldr	r3, [r7, #4]
 80031c2:	681b      	ldr	r3, [r3, #0]
 80031c4:	430a      	orrs	r2, r1
 80031c6:	609a      	str	r2, [r3, #8]
 80031c8:	e00f      	b.n	80031ea <ADC_Init+0xfa>
  }
  else
  {
    /* Reset the external trigger */
    hadc->Instance->CR2 &= ~(ADC_CR2_EXTSEL);
 80031ca:	687b      	ldr	r3, [r7, #4]
 80031cc:	681b      	ldr	r3, [r3, #0]
 80031ce:	689a      	ldr	r2, [r3, #8]
 80031d0:	687b      	ldr	r3, [r7, #4]
 80031d2:	681b      	ldr	r3, [r3, #0]
 80031d4:	f022 6270 	bic.w	r2, r2, #251658240	@ 0xf000000
 80031d8:	609a      	str	r2, [r3, #8]
    hadc->Instance->CR2 &= ~(ADC_CR2_EXTEN);
 80031da:	687b      	ldr	r3, [r7, #4]
 80031dc:	681b      	ldr	r3, [r3, #0]
 80031de:	689a      	ldr	r2, [r3, #8]
 80031e0:	687b      	ldr	r3, [r7, #4]
 80031e2:	681b      	ldr	r3, [r3, #0]
 80031e4:	f022 5240 	bic.w	r2, r2, #805306368	@ 0x30000000
 80031e8:	609a      	str	r2, [r3, #8]
  }
  
  /* Enable or disable ADC continuous conversion mode */
  hadc->Instance->CR2 &= ~(ADC_CR2_CONT);
 80031ea:	687b      	ldr	r3, [r7, #4]
 80031ec:	681b      	ldr	r3, [r3, #0]
 80031ee:	689a      	ldr	r2, [r3, #8]
 80031f0:	687b      	ldr	r3, [r7, #4]
 80031f2:	681b      	ldr	r3, [r3, #0]
 80031f4:	f022 0202 	bic.w	r2, r2, #2
 80031f8:	609a      	str	r2, [r3, #8]
  hadc->Instance->CR2 |= ADC_CR2_CONTINUOUS((uint32_t)hadc->Init.ContinuousConvMode);
 80031fa:	687b      	ldr	r3, [r7, #4]
 80031fc:	681b      	ldr	r3, [r3, #0]
 80031fe:	6899      	ldr	r1, [r3, #8]
 8003200:	687b      	ldr	r3, [r7, #4]
 8003202:	699b      	ldr	r3, [r3, #24]
 8003204:	005a      	lsls	r2, r3, #1
 8003206:	687b      	ldr	r3, [r7, #4]
 8003208:	681b      	ldr	r3, [r3, #0]
 800320a:	430a      	orrs	r2, r1
 800320c:	609a      	str	r2, [r3, #8]
  
  if(hadc->Init.DiscontinuousConvMode != DISABLE)
 800320e:	687b      	ldr	r3, [r7, #4]
 8003210:	f893 3020 	ldrb.w	r3, [r3, #32]
 8003214:	2b00      	cmp	r3, #0
 8003216:	d01b      	beq.n	8003250 <ADC_Init+0x160>
  {
    assert_param(IS_ADC_REGULAR_DISC_NUMBER(hadc->Init.NbrOfDiscConversion));
  
    /* Enable the selected ADC regular discontinuous mode */
    hadc->Instance->CR1 |= (uint32_t)ADC_CR1_DISCEN;
 8003218:	687b      	ldr	r3, [r7, #4]
 800321a:	681b      	ldr	r3, [r3, #0]
 800321c:	685a      	ldr	r2, [r3, #4]
 800321e:	687b      	ldr	r3, [r7, #4]
 8003220:	681b      	ldr	r3, [r3, #0]
 8003222:	f442 6200 	orr.w	r2, r2, #2048	@ 0x800
 8003226:	605a      	str	r2, [r3, #4]
    
    /* Set the number of channels to be converted in discontinuous mode */
    hadc->Instance->CR1 &= ~(ADC_CR1_DISCNUM);
 8003228:	687b      	ldr	r3, [r7, #4]
 800322a:	681b      	ldr	r3, [r3, #0]
 800322c:	685a      	ldr	r2, [r3, #4]
 800322e:	687b      	ldr	r3, [r7, #4]
 8003230:	681b      	ldr	r3, [r3, #0]
 8003232:	f422 4260 	bic.w	r2, r2, #57344	@ 0xe000
 8003236:	605a      	str	r2, [r3, #4]
    hadc->Instance->CR1 |=  ADC_CR1_DISCONTINUOUS(hadc->Init.NbrOfDiscConversion);
 8003238:	687b      	ldr	r3, [r7, #4]
 800323a:	681b      	ldr	r3, [r3, #0]
 800323c:	6859      	ldr	r1, [r3, #4]
 800323e:	687b      	ldr	r3, [r7, #4]
 8003240:	6a5b      	ldr	r3, [r3, #36]	@ 0x24
 8003242:	3b01      	subs	r3, #1
 8003244:	035a      	lsls	r2, r3, #13
 8003246:	687b      	ldr	r3, [r7, #4]
 8003248:	681b      	ldr	r3, [r3, #0]
 800324a:	430a      	orrs	r2, r1
 800324c:	605a      	str	r2, [r3, #4]
 800324e:	e007      	b.n	8003260 <ADC_Init+0x170>
  }
  else
  {
    /* Disable the selected ADC regular discontinuous mode */
    hadc->Instance->CR1 &= ~(ADC_CR1_DISCEN);
 8003250:	687b      	ldr	r3, [r7, #4]
 8003252:	681b      	ldr	r3, [r3, #0]
 8003254:	685a      	ldr	r2, [r3, #4]
 8003256:	687b      	ldr	r3, [r7, #4]
 8003258:	681b      	ldr	r3, [r3, #0]
 800325a:	f422 6200 	bic.w	r2, r2, #2048	@ 0x800
 800325e:	605a      	str	r2, [r3, #4]
  }
  
  /* Set ADC number of conversion */
  hadc->Instance->SQR1 &= ~(ADC_SQR1_L);
 8003260:	687b      	ldr	r3, [r7, #4]
 8003262:	681b      	ldr	r3, [r3, #0]
 8003264:	6ada      	ldr	r2, [r3, #44]	@ 0x2c
 8003266:	687b      	ldr	r3, [r7, #4]
 8003268:	681b      	ldr	r3, [r3, #0]
 800326a:	f422 0270 	bic.w	r2, r2, #15728640	@ 0xf00000
 800326e:	62da      	str	r2, [r3, #44]	@ 0x2c
  hadc->Instance->SQR1 |=  ADC_SQR1(hadc->Init.NbrOfConversion);
 8003270:	687b      	ldr	r3, [r7, #4]
 8003272:	681b      	ldr	r3, [r3, #0]
 8003274:	6ad9      	ldr	r1, [r3, #44]	@ 0x2c
 8003276:	687b      	ldr	r3, [r7, #4]
 8003278:	69db      	ldr	r3, [r3, #28]
 800327a:	3b01      	subs	r3, #1
 800327c:	051a      	lsls	r2, r3, #20
 800327e:	687b      	ldr	r3, [r7, #4]
 8003280:	681b      	ldr	r3, [r3, #0]
 8003282:	430a      	orrs	r2, r1
 8003284:	62da      	str	r2, [r3, #44]	@ 0x2c
  
  /* Enable or disable ADC DMA continuous request */
  hadc->Instance->CR2 &= ~(ADC_CR2_DDS);
 8003286:	687b      	ldr	r3, [r7, #4]
 8003288:	681b      	ldr	r3, [r3, #0]
 800328a:	689a      	ldr	r2, [r3, #8]
 800328c:	687b      	ldr	r3, [r7, #4]
 800328e:	681b      	ldr	r3, [r3, #0]
 8003290:	f422 7200 	bic.w	r2, r2, #512	@ 0x200
 8003294:	609a      	str	r2, [r3, #8]
  hadc->Instance->CR2 |= ADC_CR2_DMAContReq((uint32_t)hadc->Init.DMAContinuousRequests);
 8003296:	687b      	ldr	r3, [r7, #4]
 8003298:	681b      	ldr	r3, [r3, #0]
 800329a:	6899      	ldr	r1, [r3, #8]
 800329c:	687b      	ldr	r3, [r7, #4]
 800329e:	f893 3030 	ldrb.w	r3, [r3, #48]	@ 0x30
 80032a2:	025a      	lsls	r2, r3, #9
 80032a4:	687b      	ldr	r3, [r7, #4]
 80032a6:	681b      	ldr	r3, [r3, #0]
 80032a8:	430a      	orrs	r2, r1
 80032aa:	609a      	str	r2, [r3, #8]
  
  /* Enable or disable ADC end of conversion selection */
  hadc->Instance->CR2 &= ~(ADC_CR2_EOCS);
 80032ac:	687b      	ldr	r3, [r7, #4]
 80032ae:	681b      	ldr	r3, [r3, #0]
 80032b0:	689a      	ldr	r2, [r3, #8]
 80032b2:	687b      	ldr	r3, [r7, #4]
 80032b4:	681b      	ldr	r3, [r3, #0]
 80032b6:	f422 6280 	bic.w	r2, r2, #1024	@ 0x400
 80032ba:	609a      	str	r2, [r3, #8]
  hadc->Instance->CR2 |= ADC_CR2_EOCSelection(hadc->Init.EOCSelection);
 80032bc:	687b      	ldr	r3, [r7, #4]
 80032be:	681b      	ldr	r3, [r3, #0]
 80032c0:	6899      	ldr	r1, [r3, #8]
 80032c2:	687b      	ldr	r3, [r7, #4]
 80032c4:	695b      	ldr	r3, [r3, #20]
 80032c6:	029a      	lsls	r2, r3, #10
 80032c8:	687b      	ldr	r3, [r7, #4]
 80032ca:	681b      	ldr	r3, [r3, #0]
 80032cc:	430a      	orrs	r2, r1
 80032ce:	609a      	str	r2, [r3, #8]
}
 80032d0:	bf00      	nop
 80032d2:	370c      	adds	r7, #12
 80032d4:	46bd      	mov	sp, r7
 80032d6:	f85d 7b04 	ldr.w	r7, [sp], #4
 80032da:	4770      	bx	lr
 80032dc:	40012300 	.word	0x40012300
 80032e0:	0f000001 	.word	0x0f000001

080032e4 <__NVIC_SetPriorityGrouping>:
           In case of a conflict between priority grouping and available
           priority bits (__NVIC_PRIO_BITS), the smallest possible priority group is set.
  \param [in]      PriorityGroup  Priority grouping field.
 */
__STATIC_INLINE void __NVIC_SetPriorityGrouping(uint32_t PriorityGroup)
{
 80032e4:	b480      	push	{r7}
 80032e6:	b085      	sub	sp, #20
 80032e8:	af00      	add	r7, sp, #0
 80032ea:	6078      	str	r0, [r7, #4]
  uint32_t reg_value;
  uint32_t PriorityGroupTmp = (PriorityGroup & (uint32_t)0x07UL);             /* only values 0..7 are used          */
 80032ec:	687b      	ldr	r3, [r7, #4]
 80032ee:	f003 0307 	and.w	r3, r3, #7
 80032f2:	60fb      	str	r3, [r7, #12]

  reg_value  =  SCB->AIRCR;                                                   /* read old register configuration    */
 80032f4:	4b0b      	ldr	r3, [pc, #44]	@ (8003324 <__NVIC_SetPriorityGrouping+0x40>)
 80032f6:	68db      	ldr	r3, [r3, #12]
 80032f8:	60bb      	str	r3, [r7, #8]
  reg_value &= ~((uint32_t)(SCB_AIRCR_VECTKEY_Msk | SCB_AIRCR_PRIGROUP_Msk)); /* clear bits to change               */
 80032fa:	68ba      	ldr	r2, [r7, #8]
 80032fc:	f64f 03ff 	movw	r3, #63743	@ 0xf8ff
 8003300:	4013      	ands	r3, r2
 8003302:	60bb      	str	r3, [r7, #8]
  reg_value  =  (reg_value                                   |
                ((uint32_t)0x5FAUL << SCB_AIRCR_VECTKEY_Pos) |
                (PriorityGroupTmp << SCB_AIRCR_PRIGROUP_Pos)  );              /* Insert write key and priority group */
 8003304:	68fb      	ldr	r3, [r7, #12]
 8003306:	021a      	lsls	r2, r3, #8
                ((uint32_t)0x5FAUL << SCB_AIRCR_VECTKEY_Pos) |
 8003308:	68bb      	ldr	r3, [r7, #8]
 800330a:	431a      	orrs	r2, r3
  reg_value  =  (reg_value                                   |
 800330c:	4b06      	ldr	r3, [pc, #24]	@ (8003328 <__NVIC_SetPriorityGrouping+0x44>)
 800330e:	4313      	orrs	r3, r2
 8003310:	60bb      	str	r3, [r7, #8]
  SCB->AIRCR =  reg_value;
 8003312:	4a04      	ldr	r2, [pc, #16]	@ (8003324 <__NVIC_SetPriorityGrouping+0x40>)
 8003314:	68bb      	ldr	r3, [r7, #8]
 8003316:	60d3      	str	r3, [r2, #12]
}
 8003318:	bf00      	nop
 800331a:	3714      	adds	r7, #20
 800331c:	46bd      	mov	sp, r7
 800331e:	f85d 7b04 	ldr.w	r7, [sp], #4
 8003322:	4770      	bx	lr
 8003324:	e000ed00 	.word	0xe000ed00
 8003328:	05fa0000 	.word	0x05fa0000

0800332c <__NVIC_GetPriorityGrouping>:
  \brief   Get Priority Grouping
  \details Reads the priority grouping field from the NVIC Interrupt Controller.
  \return                Priority grouping field (SCB->AIRCR [10:8] PRIGROUP field).
 */
__STATIC_INLINE uint32_t __NVIC_GetPriorityGrouping(void)
{
 800332c:	b480      	push	{r7}
 800332e:	af00      	add	r7, sp, #0
  return ((uint32_t)((SCB->AIRCR & SCB_AIRCR_PRIGROUP_Msk) >> SCB_AIRCR_PRIGROUP_Pos));
 8003330:	4b04      	ldr	r3, [pc, #16]	@ (8003344 <__NVIC_GetPriorityGrouping+0x18>)
 8003332:	68db      	ldr	r3, [r3, #12]
 8003334:	0a1b      	lsrs	r3, r3, #8
 8003336:	f003 0307 	and.w	r3, r3, #7
}
 800333a:	4618      	mov	r0, r3
 800333c:	46bd      	mov	sp, r7
 800333e:	f85d 7b04 	ldr.w	r7, [sp], #4
 8003342:	4770      	bx	lr
 8003344:	e000ed00 	.word	0xe000ed00

08003348 <__NVIC_EnableIRQ>:
  \details Enables a device specific interrupt in the NVIC interrupt controller.
  \param [in]      IRQn  Device specific interrupt number.
  \note    IRQn must not be negative.
 */
__STATIC_INLINE void __NVIC_EnableIRQ(IRQn_Type IRQn)
{
 8003348:	b480      	push	{r7}
 800334a:	b083      	sub	sp, #12
 800334c:	af00      	add	r7, sp, #0
 800334e:	4603      	mov	r3, r0
 8003350:	71fb      	strb	r3, [r7, #7]
  if ((int32_t)(IRQn) >= 0)
 8003352:	f997 3007 	ldrsb.w	r3, [r7, #7]
 8003356:	2b00      	cmp	r3, #0
 8003358:	db0b      	blt.n	8003372 <__NVIC_EnableIRQ+0x2a>
  {
    NVIC->ISER[(((uint32_t)IRQn) >> 5UL)] = (uint32_t)(1UL << (((uint32_t)IRQn) & 0x1FUL));
 800335a:	79fb      	ldrb	r3, [r7, #7]
 800335c:	f003 021f 	and.w	r2, r3, #31
 8003360:	4907      	ldr	r1, [pc, #28]	@ (8003380 <__NVIC_EnableIRQ+0x38>)
 8003362:	f997 3007 	ldrsb.w	r3, [r7, #7]
 8003366:	095b      	lsrs	r3, r3, #5
 8003368:	2001      	movs	r0, #1
 800336a:	fa00 f202 	lsl.w	r2, r0, r2
 800336e:	f841 2023 	str.w	r2, [r1, r3, lsl #2]
  }
}
 8003372:	bf00      	nop
 8003374:	370c      	adds	r7, #12
 8003376:	46bd      	mov	sp, r7
 8003378:	f85d 7b04 	ldr.w	r7, [sp], #4
 800337c:	4770      	bx	lr
 800337e:	bf00      	nop
 8003380:	e000e100 	.word	0xe000e100

08003384 <__NVIC_SetPriority>:
  \param [in]      IRQn  Interrupt number.
  \param [in]  priority  Priority to set.
  \note    The priority cannot be set for every processor exception.
 */
__STATIC_INLINE void __NVIC_SetPriority(IRQn_Type IRQn, uint32_t priority)
{
 8003384:	b480      	push	{r7}
 8003386:	b083      	sub	sp, #12
 8003388:	af00      	add	r7, sp, #0
 800338a:	4603      	mov	r3, r0
 800338c:	6039      	str	r1, [r7, #0]
 800338e:	71fb      	strb	r3, [r7, #7]
  if ((int32_t)(IRQn) >= 0)
 8003390:	f997 3007 	ldrsb.w	r3, [r7, #7]
 8003394:	2b00      	cmp	r3, #0
 8003396:	db0a      	blt.n	80033ae <__NVIC_SetPriority+0x2a>
  {
    NVIC->IP[((uint32_t)IRQn)]                = (uint8_t)((priority << (8U - __NVIC_PRIO_BITS)) & (uint32_t)0xFFUL);
 8003398:	683b      	ldr	r3, [r7, #0]
 800339a:	b2da      	uxtb	r2, r3
 800339c:	490c      	ldr	r1, [pc, #48]	@ (80033d0 <__NVIC_SetPriority+0x4c>)
 800339e:	f997 3007 	ldrsb.w	r3, [r7, #7]
 80033a2:	0112      	lsls	r2, r2, #4
 80033a4:	b2d2      	uxtb	r2, r2
 80033a6:	440b      	add	r3, r1
 80033a8:	f883 2300 	strb.w	r2, [r3, #768]	@ 0x300
  }
  else
  {
    SCB->SHPR[(((uint32_t)IRQn) & 0xFUL)-4UL] = (uint8_t)((priority << (8U - __NVIC_PRIO_BITS)) & (uint32_t)0xFFUL);
  }
}
 80033ac:	e00a      	b.n	80033c4 <__NVIC_SetPriority+0x40>
    SCB->SHPR[(((uint32_t)IRQn) & 0xFUL)-4UL] = (uint8_t)((priority << (8U - __NVIC_PRIO_BITS)) & (uint32_t)0xFFUL);
 80033ae:	683b      	ldr	r3, [r7, #0]
 80033b0:	b2da      	uxtb	r2, r3
 80033b2:	4908      	ldr	r1, [pc, #32]	@ (80033d4 <__NVIC_SetPriority+0x50>)
 80033b4:	79fb      	ldrb	r3, [r7, #7]
 80033b6:	f003 030f 	and.w	r3, r3, #15
 80033ba:	3b04      	subs	r3, #4
 80033bc:	0112      	lsls	r2, r2, #4
 80033be:	b2d2      	uxtb	r2, r2
 80033c0:	440b      	add	r3, r1
 80033c2:	761a      	strb	r2, [r3, #24]
}
 80033c4:	bf00      	nop
 80033c6:	370c      	adds	r7, #12
 80033c8:	46bd      	mov	sp, r7
 80033ca:	f85d 7b04 	ldr.w	r7, [sp], #4
 80033ce:	4770      	bx	lr
 80033d0:	e000e100 	.word	0xe000e100
 80033d4:	e000ed00 	.word	0xe000ed00

080033d8 <NVIC_EncodePriority>:
  \param [in]   PreemptPriority  Preemptive priority value (starting from 0).
  \param [in]       SubPriority  Subpriority value (starting from 0).
  \return                        Encoded priority. Value can be used in the function \ref NVIC_SetPriority().
 */
__STATIC_INLINE uint32_t NVIC_EncodePriority (uint32_t PriorityGroup, uint32_t PreemptPriority, uint32_t SubPriority)
{
 80033d8:	b480      	push	{r7}
 80033da:	b089      	sub	sp, #36	@ 0x24
 80033dc:	af00      	add	r7, sp, #0
 80033de:	60f8      	str	r0, [r7, #12]
 80033e0:	60b9      	str	r1, [r7, #8]
 80033e2:	607a      	str	r2, [r7, #4]
  uint32_t PriorityGroupTmp = (PriorityGroup & (uint32_t)0x07UL);   /* only values 0..7 are used          */
 80033e4:	68fb      	ldr	r3, [r7, #12]
 80033e6:	f003 0307 	and.w	r3, r3, #7
 80033ea:	61fb      	str	r3, [r7, #28]
  uint32_t PreemptPriorityBits;
  uint32_t SubPriorityBits;

  PreemptPriorityBits = ((7UL - PriorityGroupTmp) > (uint32_t)(__NVIC_PRIO_BITS)) ? (uint32_t)(__NVIC_PRIO_BITS) : (uint32_t)(7UL - PriorityGroupTmp);
 80033ec:	69fb      	ldr	r3, [r7, #28]
 80033ee:	f1c3 0307 	rsb	r3, r3, #7
 80033f2:	2b04      	cmp	r3, #4
 80033f4:	bf28      	it	cs
 80033f6:	2304      	movcs	r3, #4
 80033f8:	61bb      	str	r3, [r7, #24]
  SubPriorityBits     = ((PriorityGroupTmp + (uint32_t)(__NVIC_PRIO_BITS)) < (uint32_t)7UL) ? (uint32_t)0UL : (uint32_t)((PriorityGroupTmp - 7UL) + (uint32_t)(__NVIC_PRIO_BITS));
 80033fa:	69fb      	ldr	r3, [r7, #28]
 80033fc:	3304      	adds	r3, #4
 80033fe:	2b06      	cmp	r3, #6
 8003400:	d902      	bls.n	8003408 <NVIC_EncodePriority+0x30>
 8003402:	69fb      	ldr	r3, [r7, #28]
 8003404:	3b03      	subs	r3, #3
 8003406:	e000      	b.n	800340a <NVIC_EncodePriority+0x32>
 8003408:	2300      	movs	r3, #0
 800340a:	617b      	str	r3, [r7, #20]

  return (
           ((PreemptPriority & (uint32_t)((1UL << (PreemptPriorityBits)) - 1UL)) << SubPriorityBits) |
 800340c:	f04f 32ff 	mov.w	r2, #4294967295
 8003410:	69bb      	ldr	r3, [r7, #24]
 8003412:	fa02 f303 	lsl.w	r3, r2, r3
 8003416:	43da      	mvns	r2, r3
 8003418:	68bb      	ldr	r3, [r7, #8]
 800341a:	401a      	ands	r2, r3
 800341c:	697b      	ldr	r3, [r7, #20]
 800341e:	409a      	lsls	r2, r3
           ((SubPriority     & (uint32_t)((1UL << (SubPriorityBits    )) - 1UL)))
 8003420:	f04f 31ff 	mov.w	r1, #4294967295
 8003424:	697b      	ldr	r3, [r7, #20]
 8003426:	fa01 f303 	lsl.w	r3, r1, r3
 800342a:	43d9      	mvns	r1, r3
 800342c:	687b      	ldr	r3, [r7, #4]
 800342e:	400b      	ands	r3, r1
           ((PreemptPriority & (uint32_t)((1UL << (PreemptPriorityBits)) - 1UL)) << SubPriorityBits) |
 8003430:	4313      	orrs	r3, r2
         );
}
 8003432:	4618      	mov	r0, r3
 8003434:	3724      	adds	r7, #36	@ 0x24
 8003436:	46bd      	mov	sp, r7
 8003438:	f85d 7b04 	ldr.w	r7, [sp], #4
 800343c:	4770      	bx	lr
	...

08003440 <SysTick_Config>:
  \note    When the variable <b>__Vendor_SysTickConfig</b> is set to 1, then the
           function <b>SysTick_Config</b> is not included. In this case, the file <b><i>device</i>.h</b>
           must contain a vendor-specific implementation of this function.
 */
__STATIC_INLINE uint32_t SysTick_Config(uint32_t ticks)
{
 8003440:	b580      	push	{r7, lr}
 8003442:	b082      	sub	sp, #8
 8003444:	af00      	add	r7, sp, #0
 8003446:	6078      	str	r0, [r7, #4]
  if ((ticks - 1UL) > SysTick_LOAD_RELOAD_Msk)
 8003448:	687b      	ldr	r3, [r7, #4]
 800344a:	3b01      	subs	r3, #1
 800344c:	f1b3 7f80 	cmp.w	r3, #16777216	@ 0x1000000
 8003450:	d301      	bcc.n	8003456 <SysTick_Config+0x16>
  {
    return (1UL);                                                   /* Reload value impossible */
 8003452:	2301      	movs	r3, #1
 8003454:	e00f      	b.n	8003476 <SysTick_Config+0x36>
  }

  SysTick->LOAD  = (uint32_t)(ticks - 1UL);                         /* set reload register */
 8003456:	4a0a      	ldr	r2, [pc, #40]	@ (8003480 <SysTick_Config+0x40>)
 8003458:	687b      	ldr	r3, [r7, #4]
 800345a:	3b01      	subs	r3, #1
 800345c:	6053      	str	r3, [r2, #4]
  NVIC_SetPriority (SysTick_IRQn, (1UL << __NVIC_PRIO_BITS) - 1UL); /* set Priority for Systick Interrupt */
 800345e:	210f      	movs	r1, #15
 8003460:	f04f 30ff 	mov.w	r0, #4294967295
 8003464:	f7ff ff8e 	bl	8003384 <__NVIC_SetPriority>
  SysTick->VAL   = 0UL;                                             /* Load the SysTick Counter Value */
 8003468:	4b05      	ldr	r3, [pc, #20]	@ (8003480 <SysTick_Config+0x40>)
 800346a:	2200      	movs	r2, #0
 800346c:	609a      	str	r2, [r3, #8]
  SysTick->CTRL  = SysTick_CTRL_CLKSOURCE_Msk |
 800346e:	4b04      	ldr	r3, [pc, #16]	@ (8003480 <SysTick_Config+0x40>)
 8003470:	2207      	movs	r2, #7
 8003472:	601a      	str	r2, [r3, #0]
                   SysTick_CTRL_TICKINT_Msk   |
                   SysTick_CTRL_ENABLE_Msk;                         /* Enable SysTick IRQ and SysTick Timer */
  return (0UL);                                                     /* Function successful */
 8003474:	2300      	movs	r3, #0
}
 8003476:	4618      	mov	r0, r3
 8003478:	3708      	adds	r7, #8
 800347a:	46bd      	mov	sp, r7
 800347c:	bd80      	pop	{r7, pc}
 800347e:	bf00      	nop
 8003480:	e000e010 	.word	0xe000e010

08003484 <HAL_NVIC_SetPriorityGrouping>:
  * @note   When the NVIC_PriorityGroup_0 is selected, IRQ preemption is no more possible. 
  *         The pending IRQ priority will be managed only by the subpriority. 
  * @retval None
  */
void HAL_NVIC_SetPriorityGrouping(uint32_t PriorityGroup)
{
 8003484:	b580      	push	{r7, lr}
 8003486:	b082      	sub	sp, #8
 8003488:	af00      	add	r7, sp, #0
 800348a:	6078      	str	r0, [r7, #4]
  /* Check the parameters */
  assert_param(IS_NVIC_PRIORITY_GROUP(PriorityGroup));
  
  /* Set the PRIGROUP[10:8] bits according to the PriorityGroup parameter value */
  NVIC_SetPriorityGrouping(PriorityGroup);
 800348c:	6878      	ldr	r0, [r7, #4]
 800348e:	f7ff ff29 	bl	80032e4 <__NVIC_SetPriorityGrouping>
}
 8003492:	bf00      	nop
 8003494:	3708      	adds	r7, #8
 8003496:	46bd      	mov	sp, r7
 8003498:	bd80      	pop	{r7, pc}

0800349a <HAL_NVIC_SetPriority>:
  *         This parameter can be a value between 0 and 15
  *         A lower priority value indicates a higher priority.          
  * @retval None
  */
void HAL_NVIC_SetPriority(IRQn_Type IRQn, uint32_t PreemptPriority, uint32_t SubPriority)
{ 
 800349a:	b580      	push	{r7, lr}
 800349c:	b086      	sub	sp, #24
 800349e:	af00      	add	r7, sp, #0
 80034a0:	4603      	mov	r3, r0
 80034a2:	60b9      	str	r1, [r7, #8]
 80034a4:	607a      	str	r2, [r7, #4]
 80034a6:	73fb      	strb	r3, [r7, #15]
  uint32_t prioritygroup = 0x00;
 80034a8:	2300      	movs	r3, #0
 80034aa:	617b      	str	r3, [r7, #20]
  
  /* Check the parameters */
  assert_param(IS_NVIC_SUB_PRIORITY(SubPriority));
  assert_param(IS_NVIC_PREEMPTION_PRIORITY(PreemptPriority));
  
  prioritygroup = NVIC_GetPriorityGrouping();
 80034ac:	f7ff ff3e 	bl	800332c <__NVIC_GetPriorityGrouping>
 80034b0:	6178      	str	r0, [r7, #20]
  
  NVIC_SetPriority(IRQn, NVIC_EncodePriority(prioritygroup, PreemptPriority, SubPriority));
 80034b2:	687a      	ldr	r2, [r7, #4]
 80034b4:	68b9      	ldr	r1, [r7, #8]
 80034b6:	6978      	ldr	r0, [r7, #20]
 80034b8:	f7ff ff8e 	bl	80033d8 <NVIC_EncodePriority>
 80034bc:	4602      	mov	r2, r0
 80034be:	f997 300f 	ldrsb.w	r3, [r7, #15]
 80034c2:	4611      	mov	r1, r2
 80034c4:	4618      	mov	r0, r3
 80034c6:	f7ff ff5d 	bl	8003384 <__NVIC_SetPriority>
}
 80034ca:	bf00      	nop
 80034cc:	3718      	adds	r7, #24
 80034ce:	46bd      	mov	sp, r7
 80034d0:	bd80      	pop	{r7, pc}

080034d2 <HAL_NVIC_EnableIRQ>:
  *         This parameter can be an enumerator of IRQn_Type enumeration
  *         (For the complete STM32 Devices IRQ Channels list, please refer to the appropriate CMSIS device file (stm32f7xxxx.h))
  * @retval None
  */
void HAL_NVIC_EnableIRQ(IRQn_Type IRQn)
{
 80034d2:	b580      	push	{r7, lr}
 80034d4:	b082      	sub	sp, #8
 80034d6:	af00      	add	r7, sp, #0
 80034d8:	4603      	mov	r3, r0
 80034da:	71fb      	strb	r3, [r7, #7]
  /* Check the parameters */
  assert_param(IS_NVIC_DEVICE_IRQ(IRQn));
  
  /* Enable interrupt */
  NVIC_EnableIRQ(IRQn);
 80034dc:	f997 3007 	ldrsb.w	r3, [r7, #7]
 80034e0:	4618      	mov	r0, r3
 80034e2:	f7ff ff31 	bl	8003348 <__NVIC_EnableIRQ>
}
 80034e6:	bf00      	nop
 80034e8:	3708      	adds	r7, #8
 80034ea:	46bd      	mov	sp, r7
 80034ec:	bd80      	pop	{r7, pc}

080034ee <HAL_SYSTICK_Config>:
  * @param  TicksNumb Specifies the ticks Number of ticks between two interrupts.
  * @retval status:  - 0  Function succeeded.
  *                  - 1  Function failed.
  */
uint32_t HAL_SYSTICK_Config(uint32_t TicksNumb)
{
 80034ee:	b580      	push	{r7, lr}
 80034f0:	b082      	sub	sp, #8
 80034f2:	af00      	add	r7, sp, #0
 80034f4:	6078      	str	r0, [r7, #4]
   return SysTick_Config(TicksNumb);
 80034f6:	6878      	ldr	r0, [r7, #4]
 80034f8:	f7ff ffa2 	bl	8003440 <SysTick_Config>
 80034fc:	4603      	mov	r3, r0
}
 80034fe:	4618      	mov	r0, r3
 8003500:	3708      	adds	r7, #8
 8003502:	46bd      	mov	sp, r7
 8003504:	bd80      	pop	{r7, pc}
	...

08003508 <HAL_MPU_Disable>:
/**
  * @brief  Disables the MPU
  * @retval None
  */
void HAL_MPU_Disable(void)
{
 8003508:	b480      	push	{r7}
 800350a:	af00      	add	r7, sp, #0
  \details Ensures the apparent order of the explicit memory operations before
           and after the instruction, without ensuring their completion.
 */
__STATIC_FORCEINLINE void __DMB(void)
{
  __ASM volatile ("dmb 0xF":::"memory");
 800350c:	f3bf 8f5f 	dmb	sy
}
 8003510:	bf00      	nop
  /* Make sure outstanding transfers are done */
  __DMB();

  /* Disable fault exceptions */
  SCB->SHCSR &= ~SCB_SHCSR_MEMFAULTENA_Msk;
 8003512:	4b07      	ldr	r3, [pc, #28]	@ (8003530 <HAL_MPU_Disable+0x28>)
 8003514:	6a5b      	ldr	r3, [r3, #36]	@ 0x24
 8003516:	4a06      	ldr	r2, [pc, #24]	@ (8003530 <HAL_MPU_Disable+0x28>)
 8003518:	f423 3380 	bic.w	r3, r3, #65536	@ 0x10000
 800351c:	6253      	str	r3, [r2, #36]	@ 0x24
  
  /* Disable the MPU and clear the control register*/
  MPU->CTRL = 0;
 800351e:	4b05      	ldr	r3, [pc, #20]	@ (8003534 <HAL_MPU_Disable+0x2c>)
 8003520:	2200      	movs	r2, #0
 8003522:	605a      	str	r2, [r3, #4]
}
 8003524:	bf00      	nop
 8003526:	46bd      	mov	sp, r7
 8003528:	f85d 7b04 	ldr.w	r7, [sp], #4
 800352c:	4770      	bx	lr
 800352e:	bf00      	nop
 8003530:	e000ed00 	.word	0xe000ed00
 8003534:	e000ed90 	.word	0xe000ed90

08003538 <HAL_MPU_Enable>:
  *            @arg MPU_PRIVILEGED_DEFAULT
  *            @arg MPU_HFNMI_PRIVDEF
  * @retval None
  */
void HAL_MPU_Enable(uint32_t MPU_Control)
{
 8003538:	b480      	push	{r7}
 800353a:	b083      	sub	sp, #12
 800353c:	af00      	add	r7, sp, #0
 800353e:	6078      	str	r0, [r7, #4]
  /* Enable the MPU */
  MPU->CTRL = MPU_Control | MPU_CTRL_ENABLE_Msk;
 8003540:	4a0b      	ldr	r2, [pc, #44]	@ (8003570 <HAL_MPU_Enable+0x38>)
 8003542:	687b      	ldr	r3, [r7, #4]
 8003544:	f043 0301 	orr.w	r3, r3, #1
 8003548:	6053      	str	r3, [r2, #4]
  
  /* Enable fault exceptions */
  SCB->SHCSR |= SCB_SHCSR_MEMFAULTENA_Msk;
 800354a:	4b0a      	ldr	r3, [pc, #40]	@ (8003574 <HAL_MPU_Enable+0x3c>)
 800354c:	6a5b      	ldr	r3, [r3, #36]	@ 0x24
 800354e:	4a09      	ldr	r2, [pc, #36]	@ (8003574 <HAL_MPU_Enable+0x3c>)
 8003550:	f443 3380 	orr.w	r3, r3, #65536	@ 0x10000
 8003554:	6253      	str	r3, [r2, #36]	@ 0x24
  __ASM volatile ("dsb 0xF":::"memory");
 8003556:	f3bf 8f4f 	dsb	sy
}
 800355a:	bf00      	nop
  __ASM volatile ("isb 0xF":::"memory");
 800355c:	f3bf 8f6f 	isb	sy
}
 8003560:	bf00      	nop
  
  /* Ensure MPU setting take effects */
  __DSB();
  __ISB();
}
 8003562:	bf00      	nop
 8003564:	370c      	adds	r7, #12
 8003566:	46bd      	mov	sp, r7
 8003568:	f85d 7b04 	ldr.w	r7, [sp], #4
 800356c:	4770      	bx	lr
 800356e:	bf00      	nop
 8003570:	e000ed90 	.word	0xe000ed90
 8003574:	e000ed00 	.word	0xe000ed00

08003578 <HAL_MPU_ConfigRegion>:
  * @param MPU_Init Pointer to a MPU_Region_InitTypeDef structure that contains
  *                the initialization and configuration information.
  * @retval None
  */
void HAL_MPU_ConfigRegion(MPU_Region_InitTypeDef *MPU_Init)
{
 8003578:	b480      	push	{r7}
 800357a:	b083      	sub	sp, #12
 800357c:	af00      	add	r7, sp, #0
 800357e:	6078      	str	r0, [r7, #4]
  assert_param(IS_MPU_ACCESS_BUFFERABLE(MPU_Init->IsBufferable));
  assert_param(IS_MPU_SUB_REGION_DISABLE(MPU_Init->SubRegionDisable));
  assert_param(IS_MPU_REGION_SIZE(MPU_Init->Size));

  /* Set the Region number */
  MPU->RNR = MPU_Init->Number;
 8003580:	687b      	ldr	r3, [r7, #4]
 8003582:	785a      	ldrb	r2, [r3, #1]
 8003584:	4b1b      	ldr	r3, [pc, #108]	@ (80035f4 <HAL_MPU_ConfigRegion+0x7c>)
 8003586:	609a      	str	r2, [r3, #8]

  /* Disable the Region */
  CLEAR_BIT(MPU->RASR, MPU_RASR_ENABLE_Msk);
 8003588:	4b1a      	ldr	r3, [pc, #104]	@ (80035f4 <HAL_MPU_ConfigRegion+0x7c>)
 800358a:	691b      	ldr	r3, [r3, #16]
 800358c:	4a19      	ldr	r2, [pc, #100]	@ (80035f4 <HAL_MPU_ConfigRegion+0x7c>)
 800358e:	f023 0301 	bic.w	r3, r3, #1
 8003592:	6113      	str	r3, [r2, #16]

  /* Apply configuration */
  MPU->RBAR = MPU_Init->BaseAddress;
 8003594:	4a17      	ldr	r2, [pc, #92]	@ (80035f4 <HAL_MPU_ConfigRegion+0x7c>)
 8003596:	687b      	ldr	r3, [r7, #4]
 8003598:	685b      	ldr	r3, [r3, #4]
 800359a:	60d3      	str	r3, [r2, #12]
  MPU->RASR = ((uint32_t)MPU_Init->DisableExec             << MPU_RASR_XN_Pos)   |
 800359c:	687b      	ldr	r3, [r7, #4]
 800359e:	7b1b      	ldrb	r3, [r3, #12]
 80035a0:	071a      	lsls	r2, r3, #28
              ((uint32_t)MPU_Init->AccessPermission        << MPU_RASR_AP_Pos)   |
 80035a2:	687b      	ldr	r3, [r7, #4]
 80035a4:	7adb      	ldrb	r3, [r3, #11]
 80035a6:	061b      	lsls	r3, r3, #24
  MPU->RASR = ((uint32_t)MPU_Init->DisableExec             << MPU_RASR_XN_Pos)   |
 80035a8:	431a      	orrs	r2, r3
              ((uint32_t)MPU_Init->TypeExtField            << MPU_RASR_TEX_Pos)  |
 80035aa:	687b      	ldr	r3, [r7, #4]
 80035ac:	7a9b      	ldrb	r3, [r3, #10]
 80035ae:	04db      	lsls	r3, r3, #19
              ((uint32_t)MPU_Init->AccessPermission        << MPU_RASR_AP_Pos)   |
 80035b0:	431a      	orrs	r2, r3
              ((uint32_t)MPU_Init->IsShareable             << MPU_RASR_S_Pos)    |
 80035b2:	687b      	ldr	r3, [r7, #4]
 80035b4:	7b5b      	ldrb	r3, [r3, #13]
 80035b6:	049b      	lsls	r3, r3, #18
              ((uint32_t)MPU_Init->TypeExtField            << MPU_RASR_TEX_Pos)  |
 80035b8:	431a      	orrs	r2, r3
              ((uint32_t)MPU_Init->IsCacheable             << MPU_RASR_C_Pos)    |
 80035ba:	687b      	ldr	r3, [r7, #4]
 80035bc:	7b9b      	ldrb	r3, [r3, #14]
 80035be:	045b      	lsls	r3, r3, #17
              ((uint32_t)MPU_Init->IsShareable             << MPU_RASR_S_Pos)    |
 80035c0:	431a      	orrs	r2, r3
              ((uint32_t)MPU_Init->IsBufferable            << MPU_RASR_B_Pos)    |
 80035c2:	687b      	ldr	r3, [r7, #4]
 80035c4:	7bdb      	ldrb	r3, [r3, #15]
 80035c6:	041b      	lsls	r3, r3, #16
              ((uint32_t)MPU_Init->IsCacheable             << MPU_RASR_C_Pos)    |
 80035c8:	431a      	orrs	r2, r3
              ((uint32_t)MPU_Init->SubRegionDisable        << MPU_RASR_SRD_Pos)  |
 80035ca:	687b      	ldr	r3, [r7, #4]
 80035cc:	7a5b      	ldrb	r3, [r3, #9]
 80035ce:	021b      	lsls	r3, r3, #8
              ((uint32_t)MPU_Init->IsBufferable            << MPU_RASR_B_Pos)    |
 80035d0:	431a      	orrs	r2, r3
              ((uint32_t)MPU_Init->Size                    << MPU_RASR_SIZE_Pos) |
 80035d2:	687b      	ldr	r3, [r7, #4]
 80035d4:	7a1b      	ldrb	r3, [r3, #8]
 80035d6:	005b      	lsls	r3, r3, #1
              ((uint32_t)MPU_Init->SubRegionDisable        << MPU_RASR_SRD_Pos)  |
 80035d8:	4313      	orrs	r3, r2
              ((uint32_t)MPU_Init->Enable                  << MPU_RASR_ENABLE_Pos);
 80035da:	687a      	ldr	r2, [r7, #4]
 80035dc:	7812      	ldrb	r2, [r2, #0]
 80035de:	4611      	mov	r1, r2
  MPU->RASR = ((uint32_t)MPU_Init->DisableExec             << MPU_RASR_XN_Pos)   |
 80035e0:	4a04      	ldr	r2, [pc, #16]	@ (80035f4 <HAL_MPU_ConfigRegion+0x7c>)
              ((uint32_t)MPU_Init->Size                    << MPU_RASR_SIZE_Pos) |
 80035e2:	430b      	orrs	r3, r1
  MPU->RASR = ((uint32_t)MPU_Init->DisableExec             << MPU_RASR_XN_Pos)   |
 80035e4:	6113      	str	r3, [r2, #16]
}
 80035e6:	bf00      	nop
 80035e8:	370c      	adds	r7, #12
 80035ea:	46bd      	mov	sp, r7
 80035ec:	f85d 7b04 	ldr.w	r7, [sp], #4
 80035f0:	4770      	bx	lr
 80035f2:	bf00      	nop
 80035f4:	e000ed90 	.word	0xe000ed90

080035f8 <HAL_GPIO_Init>:
  * @param  GPIO_Init pointer to a GPIO_InitTypeDef structure that contains
  *         the configuration information for the specified GPIO peripheral.
  * @retval None
  */
void HAL_GPIO_Init(GPIO_TypeDef  *GPIOx, GPIO_InitTypeDef *GPIO_Init)
{
 80035f8:	b480      	push	{r7}
 80035fa:	b089      	sub	sp, #36	@ 0x24
 80035fc:	af00      	add	r7, sp, #0
 80035fe:	6078      	str	r0, [r7, #4]
 8003600:	6039      	str	r1, [r7, #0]
  uint32_t position = 0x00;
 8003602:	2300      	movs	r3, #0
 8003604:	61fb      	str	r3, [r7, #28]
  uint32_t ioposition = 0x00;
 8003606:	2300      	movs	r3, #0
 8003608:	617b      	str	r3, [r7, #20]
  uint32_t iocurrent = 0x00;
 800360a:	2300      	movs	r3, #0
 800360c:	613b      	str	r3, [r7, #16]
  uint32_t temp = 0x00;
 800360e:	2300      	movs	r3, #0
 8003610:	61bb      	str	r3, [r7, #24]
  assert_param(IS_GPIO_ALL_INSTANCE(GPIOx));
  assert_param(IS_GPIO_PIN(GPIO_Init->Pin));
  assert_param(IS_GPIO_MODE(GPIO_Init->Mode));

  /* Configure the port pins */
  for (position = 0; position < GPIO_NUMBER; position++)
 8003612:	2300      	movs	r3, #0
 8003614:	61fb      	str	r3, [r7, #28]
 8003616:	e175      	b.n	8003904 <HAL_GPIO_Init+0x30c>
  {
    /* Get the IO position */
    ioposition = ((uint32_t)0x01) << position;
 8003618:	2201      	movs	r2, #1
 800361a:	69fb      	ldr	r3, [r7, #28]
 800361c:	fa02 f303 	lsl.w	r3, r2, r3
 8003620:	617b      	str	r3, [r7, #20]
    /* Get the current IO position */
    iocurrent = (uint32_t)(GPIO_Init->Pin) & ioposition;
 8003622:	683b      	ldr	r3, [r7, #0]
 8003624:	681b      	ldr	r3, [r3, #0]
 8003626:	697a      	ldr	r2, [r7, #20]
 8003628:	4013      	ands	r3, r2
 800362a:	613b      	str	r3, [r7, #16]

    if (iocurrent == ioposition)
 800362c:	693a      	ldr	r2, [r7, #16]
 800362e:	697b      	ldr	r3, [r7, #20]
 8003630:	429a      	cmp	r2, r3
 8003632:	f040 8164 	bne.w	80038fe <HAL_GPIO_Init+0x306>
    {
      /*--------------------- GPIO Mode Configuration ------------------------*/
      /* In case of Output or Alternate function mode selection */
      if (((GPIO_Init->Mode & GPIO_MODE) == MODE_OUTPUT) || ((GPIO_Init->Mode & GPIO_MODE) == MODE_AF))
 8003636:	683b      	ldr	r3, [r7, #0]
 8003638:	685b      	ldr	r3, [r3, #4]
 800363a:	f003 0303 	and.w	r3, r3, #3
 800363e:	2b01      	cmp	r3, #1
 8003640:	d005      	beq.n	800364e <HAL_GPIO_Init+0x56>
 8003642:	683b      	ldr	r3, [r7, #0]
 8003644:	685b      	ldr	r3, [r3, #4]
 8003646:	f003 0303 	and.w	r3, r3, #3
 800364a:	2b02      	cmp	r3, #2
 800364c:	d130      	bne.n	80036b0 <HAL_GPIO_Init+0xb8>
      {
        /* Check the Speed parameter */
        assert_param(IS_GPIO_SPEED(GPIO_Init->Speed));
        /* Configure the IO Speed */
        temp = GPIOx->OSPEEDR;
 800364e:	687b      	ldr	r3, [r7, #4]
 8003650:	689b      	ldr	r3, [r3, #8]
 8003652:	61bb      	str	r3, [r7, #24]
        temp &= ~(GPIO_OSPEEDER_OSPEEDR0 << (position * 2));
 8003654:	69fb      	ldr	r3, [r7, #28]
 8003656:	005b      	lsls	r3, r3, #1
 8003658:	2203      	movs	r2, #3
 800365a:	fa02 f303 	lsl.w	r3, r2, r3
 800365e:	43db      	mvns	r3, r3
 8003660:	69ba      	ldr	r2, [r7, #24]
 8003662:	4013      	ands	r3, r2
 8003664:	61bb      	str	r3, [r7, #24]
        temp |= (GPIO_Init->Speed << (position * 2));
 8003666:	683b      	ldr	r3, [r7, #0]
 8003668:	68da      	ldr	r2, [r3, #12]
 800366a:	69fb      	ldr	r3, [r7, #28]
 800366c:	005b      	lsls	r3, r3, #1
 800366e:	fa02 f303 	lsl.w	r3, r2, r3
 8003672:	69ba      	ldr	r2, [r7, #24]
 8003674:	4313      	orrs	r3, r2
 8003676:	61bb      	str	r3, [r7, #24]
        GPIOx->OSPEEDR = temp;
 8003678:	687b      	ldr	r3, [r7, #4]
 800367a:	69ba      	ldr	r2, [r7, #24]
 800367c:	609a      	str	r2, [r3, #8]

        /* Configure the IO Output Type */
        temp = GPIOx->OTYPER;
 800367e:	687b      	ldr	r3, [r7, #4]
 8003680:	685b      	ldr	r3, [r3, #4]
 8003682:	61bb      	str	r3, [r7, #24]
        temp &= ~(GPIO_OTYPER_OT_0 << position) ;
 8003684:	2201      	movs	r2, #1
 8003686:	69fb      	ldr	r3, [r7, #28]
 8003688:	fa02 f303 	lsl.w	r3, r2, r3
 800368c:	43db      	mvns	r3, r3
 800368e:	69ba      	ldr	r2, [r7, #24]
 8003690:	4013      	ands	r3, r2
 8003692:	61bb      	str	r3, [r7, #24]
        temp |= (((GPIO_Init->Mode & OUTPUT_TYPE) >> OUTPUT_TYPE_Pos) << position);
 8003694:	683b      	ldr	r3, [r7, #0]
 8003696:	685b      	ldr	r3, [r3, #4]
 8003698:	091b      	lsrs	r3, r3, #4
 800369a:	f003 0201 	and.w	r2, r3, #1
 800369e:	69fb      	ldr	r3, [r7, #28]
 80036a0:	fa02 f303 	lsl.w	r3, r2, r3
 80036a4:	69ba      	ldr	r2, [r7, #24]
 80036a6:	4313      	orrs	r3, r2
 80036a8:	61bb      	str	r3, [r7, #24]
        GPIOx->OTYPER = temp;
 80036aa:	687b      	ldr	r3, [r7, #4]
 80036ac:	69ba      	ldr	r2, [r7, #24]
 80036ae:	605a      	str	r2, [r3, #4]
      }

      if ((GPIO_Init->Mode & GPIO_MODE) != MODE_ANALOG)
 80036b0:	683b      	ldr	r3, [r7, #0]
 80036b2:	685b      	ldr	r3, [r3, #4]
 80036b4:	f003 0303 	and.w	r3, r3, #3
 80036b8:	2b03      	cmp	r3, #3
 80036ba:	d017      	beq.n	80036ec <HAL_GPIO_Init+0xf4>
      {
        /* Check the Pull parameter */
        assert_param(IS_GPIO_PULL(GPIO_Init->Pull));

        /* Activate the Pull-up or Pull down resistor for the current IO */
        temp = GPIOx->PUPDR;
 80036bc:	687b      	ldr	r3, [r7, #4]
 80036be:	68db      	ldr	r3, [r3, #12]
 80036c0:	61bb      	str	r3, [r7, #24]
        temp &= ~(GPIO_PUPDR_PUPDR0 << (position * 2));
 80036c2:	69fb      	ldr	r3, [r7, #28]
 80036c4:	005b      	lsls	r3, r3, #1
 80036c6:	2203      	movs	r2, #3
 80036c8:	fa02 f303 	lsl.w	r3, r2, r3
 80036cc:	43db      	mvns	r3, r3
 80036ce:	69ba      	ldr	r2, [r7, #24]
 80036d0:	4013      	ands	r3, r2
 80036d2:	61bb      	str	r3, [r7, #24]
        temp |= ((GPIO_Init->Pull) << (position * 2));
 80036d4:	683b      	ldr	r3, [r7, #0]
 80036d6:	689a      	ldr	r2, [r3, #8]
 80036d8:	69fb      	ldr	r3, [r7, #28]
 80036da:	005b      	lsls	r3, r3, #1
 80036dc:	fa02 f303 	lsl.w	r3, r2, r3
 80036e0:	69ba      	ldr	r2, [r7, #24]
 80036e2:	4313      	orrs	r3, r2
 80036e4:	61bb      	str	r3, [r7, #24]
        GPIOx->PUPDR = temp;
 80036e6:	687b      	ldr	r3, [r7, #4]
 80036e8:	69ba      	ldr	r2, [r7, #24]
 80036ea:	60da      	str	r2, [r3, #12]
      }

      /* In case of Alternate function mode selection */
      if ((GPIO_Init->Mode & GPIO_MODE) == MODE_AF)
 80036ec:	683b      	ldr	r3, [r7, #0]
 80036ee:	685b      	ldr	r3, [r3, #4]
 80036f0:	f003 0303 	and.w	r3, r3, #3
 80036f4:	2b02      	cmp	r3, #2
 80036f6:	d123      	bne.n	8003740 <HAL_GPIO_Init+0x148>
      {
        /* Check the Alternate function parameter */
        assert_param(IS_GPIO_AF(GPIO_Init->Alternate));

        /* Configure Alternate function mapped with the current IO */
        temp = GPIOx->AFR[position >> 3];
 80036f8:	69fb      	ldr	r3, [r7, #28]
 80036fa:	08da      	lsrs	r2, r3, #3
 80036fc:	687b      	ldr	r3, [r7, #4]
 80036fe:	3208      	adds	r2, #8
 8003700:	f853 3022 	ldr.w	r3, [r3, r2, lsl #2]
 8003704:	61bb      	str	r3, [r7, #24]
        temp &= ~((uint32_t)0xF << ((uint32_t)(position & (uint32_t)0x07) * 4)) ;
 8003706:	69fb      	ldr	r3, [r7, #28]
 8003708:	f003 0307 	and.w	r3, r3, #7
 800370c:	009b      	lsls	r3, r3, #2
 800370e:	220f      	movs	r2, #15
 8003710:	fa02 f303 	lsl.w	r3, r2, r3
 8003714:	43db      	mvns	r3, r3
 8003716:	69ba      	ldr	r2, [r7, #24]
 8003718:	4013      	ands	r3, r2
 800371a:	61bb      	str	r3, [r7, #24]
        temp |= ((uint32_t)(GPIO_Init->Alternate) << (((uint32_t)position & (uint32_t)0x07) * 4));
 800371c:	683b      	ldr	r3, [r7, #0]
 800371e:	691a      	ldr	r2, [r3, #16]
 8003720:	69fb      	ldr	r3, [r7, #28]
 8003722:	f003 0307 	and.w	r3, r3, #7
 8003726:	009b      	lsls	r3, r3, #2
 8003728:	fa02 f303 	lsl.w	r3, r2, r3
 800372c:	69ba      	ldr	r2, [r7, #24]
 800372e:	4313      	orrs	r3, r2
 8003730:	61bb      	str	r3, [r7, #24]
        GPIOx->AFR[position >> 3] = temp;
 8003732:	69fb      	ldr	r3, [r7, #28]
 8003734:	08da      	lsrs	r2, r3, #3
 8003736:	687b      	ldr	r3, [r7, #4]
 8003738:	3208      	adds	r2, #8
 800373a:	69b9      	ldr	r1, [r7, #24]
 800373c:	f843 1022 	str.w	r1, [r3, r2, lsl #2]
      }

      /* Configure IO Direction mode (Input, Output, Alternate or Analog) */
      temp = GPIOx->MODER;
 8003740:	687b      	ldr	r3, [r7, #4]
 8003742:	681b      	ldr	r3, [r3, #0]
 8003744:	61bb      	str	r3, [r7, #24]
      temp &= ~(GPIO_MODER_MODER0 << (position * 2));
 8003746:	69fb      	ldr	r3, [r7, #28]
 8003748:	005b      	lsls	r3, r3, #1
 800374a:	2203      	movs	r2, #3
 800374c:	fa02 f303 	lsl.w	r3, r2, r3
 8003750:	43db      	mvns	r3, r3
 8003752:	69ba      	ldr	r2, [r7, #24]
 8003754:	4013      	ands	r3, r2
 8003756:	61bb      	str	r3, [r7, #24]
      temp |= ((GPIO_Init->Mode & GPIO_MODE) << (position * 2));
 8003758:	683b      	ldr	r3, [r7, #0]
 800375a:	685b      	ldr	r3, [r3, #4]
 800375c:	f003 0203 	and.w	r2, r3, #3
 8003760:	69fb      	ldr	r3, [r7, #28]
 8003762:	005b      	lsls	r3, r3, #1
 8003764:	fa02 f303 	lsl.w	r3, r2, r3
 8003768:	69ba      	ldr	r2, [r7, #24]
 800376a:	4313      	orrs	r3, r2
 800376c:	61bb      	str	r3, [r7, #24]
      GPIOx->MODER = temp;
 800376e:	687b      	ldr	r3, [r7, #4]
 8003770:	69ba      	ldr	r2, [r7, #24]
 8003772:	601a      	str	r2, [r3, #0]

      /*--------------------- EXTI Mode Configuration ------------------------*/
      /* Configure the External Interrupt or event for the current IO */
      if ((GPIO_Init->Mode & EXTI_MODE) != 0x00u)
 8003774:	683b      	ldr	r3, [r7, #0]
 8003776:	685b      	ldr	r3, [r3, #4]
 8003778:	f403 3340 	and.w	r3, r3, #196608	@ 0x30000
 800377c:	2b00      	cmp	r3, #0
 800377e:	f000 80be 	beq.w	80038fe <HAL_GPIO_Init+0x306>
      {
        /* Enable SYSCFG Clock */
        __HAL_RCC_SYSCFG_CLK_ENABLE();
 8003782:	4b66      	ldr	r3, [pc, #408]	@ (800391c <HAL_GPIO_Init+0x324>)
 8003784:	6c5b      	ldr	r3, [r3, #68]	@ 0x44
 8003786:	4a65      	ldr	r2, [pc, #404]	@ (800391c <HAL_GPIO_Init+0x324>)
 8003788:	f443 4380 	orr.w	r3, r3, #16384	@ 0x4000
 800378c:	6453      	str	r3, [r2, #68]	@ 0x44
 800378e:	4b63      	ldr	r3, [pc, #396]	@ (800391c <HAL_GPIO_Init+0x324>)
 8003790:	6c5b      	ldr	r3, [r3, #68]	@ 0x44
 8003792:	f403 4380 	and.w	r3, r3, #16384	@ 0x4000
 8003796:	60fb      	str	r3, [r7, #12]
 8003798:	68fb      	ldr	r3, [r7, #12]

        temp = SYSCFG->EXTICR[position >> 2];
 800379a:	4a61      	ldr	r2, [pc, #388]	@ (8003920 <HAL_GPIO_Init+0x328>)
 800379c:	69fb      	ldr	r3, [r7, #28]
 800379e:	089b      	lsrs	r3, r3, #2
 80037a0:	3302      	adds	r3, #2
 80037a2:	f852 3023 	ldr.w	r3, [r2, r3, lsl #2]
 80037a6:	61bb      	str	r3, [r7, #24]
        temp &= ~(((uint32_t)0x0F) << (4 * (position & 0x03)));
 80037a8:	69fb      	ldr	r3, [r7, #28]
 80037aa:	f003 0303 	and.w	r3, r3, #3
 80037ae:	009b      	lsls	r3, r3, #2
 80037b0:	220f      	movs	r2, #15
 80037b2:	fa02 f303 	lsl.w	r3, r2, r3
 80037b6:	43db      	mvns	r3, r3
 80037b8:	69ba      	ldr	r2, [r7, #24]
 80037ba:	4013      	ands	r3, r2
 80037bc:	61bb      	str	r3, [r7, #24]
        temp |= ((uint32_t)(GPIO_GET_INDEX(GPIOx)) << (4 * (position & 0x03)));
 80037be:	687b      	ldr	r3, [r7, #4]
 80037c0:	4a58      	ldr	r2, [pc, #352]	@ (8003924 <HAL_GPIO_Init+0x32c>)
 80037c2:	4293      	cmp	r3, r2
 80037c4:	d037      	beq.n	8003836 <HAL_GPIO_Init+0x23e>
 80037c6:	687b      	ldr	r3, [r7, #4]
 80037c8:	4a57      	ldr	r2, [pc, #348]	@ (8003928 <HAL_GPIO_Init+0x330>)
 80037ca:	4293      	cmp	r3, r2
 80037cc:	d031      	beq.n	8003832 <HAL_GPIO_Init+0x23a>
 80037ce:	687b      	ldr	r3, [r7, #4]
 80037d0:	4a56      	ldr	r2, [pc, #344]	@ (800392c <HAL_GPIO_Init+0x334>)
 80037d2:	4293      	cmp	r3, r2
 80037d4:	d02b      	beq.n	800382e <HAL_GPIO_Init+0x236>
 80037d6:	687b      	ldr	r3, [r7, #4]
 80037d8:	4a55      	ldr	r2, [pc, #340]	@ (8003930 <HAL_GPIO_Init+0x338>)
 80037da:	4293      	cmp	r3, r2
 80037dc:	d025      	beq.n	800382a <HAL_GPIO_Init+0x232>
 80037de:	687b      	ldr	r3, [r7, #4]
 80037e0:	4a54      	ldr	r2, [pc, #336]	@ (8003934 <HAL_GPIO_Init+0x33c>)
 80037e2:	4293      	cmp	r3, r2
 80037e4:	d01f      	beq.n	8003826 <HAL_GPIO_Init+0x22e>
 80037e6:	687b      	ldr	r3, [r7, #4]
 80037e8:	4a53      	ldr	r2, [pc, #332]	@ (8003938 <HAL_GPIO_Init+0x340>)
 80037ea:	4293      	cmp	r3, r2
 80037ec:	d019      	beq.n	8003822 <HAL_GPIO_Init+0x22a>
 80037ee:	687b      	ldr	r3, [r7, #4]
 80037f0:	4a52      	ldr	r2, [pc, #328]	@ (800393c <HAL_GPIO_Init+0x344>)
 80037f2:	4293      	cmp	r3, r2
 80037f4:	d013      	beq.n	800381e <HAL_GPIO_Init+0x226>
 80037f6:	687b      	ldr	r3, [r7, #4]
 80037f8:	4a51      	ldr	r2, [pc, #324]	@ (8003940 <HAL_GPIO_Init+0x348>)
 80037fa:	4293      	cmp	r3, r2
 80037fc:	d00d      	beq.n	800381a <HAL_GPIO_Init+0x222>
 80037fe:	687b      	ldr	r3, [r7, #4]
 8003800:	4a50      	ldr	r2, [pc, #320]	@ (8003944 <HAL_GPIO_Init+0x34c>)
 8003802:	4293      	cmp	r3, r2
 8003804:	d007      	beq.n	8003816 <HAL_GPIO_Init+0x21e>
 8003806:	687b      	ldr	r3, [r7, #4]
 8003808:	4a4f      	ldr	r2, [pc, #316]	@ (8003948 <HAL_GPIO_Init+0x350>)
 800380a:	4293      	cmp	r3, r2
 800380c:	d101      	bne.n	8003812 <HAL_GPIO_Init+0x21a>
 800380e:	2309      	movs	r3, #9
 8003810:	e012      	b.n	8003838 <HAL_GPIO_Init+0x240>
 8003812:	230a      	movs	r3, #10
 8003814:	e010      	b.n	8003838 <HAL_GPIO_Init+0x240>
 8003816:	2308      	movs	r3, #8
 8003818:	e00e      	b.n	8003838 <HAL_GPIO_Init+0x240>
 800381a:	2307      	movs	r3, #7
 800381c:	e00c      	b.n	8003838 <HAL_GPIO_Init+0x240>
 800381e:	2306      	movs	r3, #6
 8003820:	e00a      	b.n	8003838 <HAL_GPIO_Init+0x240>
 8003822:	2305      	movs	r3, #5
 8003824:	e008      	b.n	8003838 <HAL_GPIO_Init+0x240>
 8003826:	2304      	movs	r3, #4
 8003828:	e006      	b.n	8003838 <HAL_GPIO_Init+0x240>
 800382a:	2303      	movs	r3, #3
 800382c:	e004      	b.n	8003838 <HAL_GPIO_Init+0x240>
 800382e:	2302      	movs	r3, #2
 8003830:	e002      	b.n	8003838 <HAL_GPIO_Init+0x240>
 8003832:	2301      	movs	r3, #1
 8003834:	e000      	b.n	8003838 <HAL_GPIO_Init+0x240>
 8003836:	2300      	movs	r3, #0
 8003838:	69fa      	ldr	r2, [r7, #28]
 800383a:	f002 0203 	and.w	r2, r2, #3
 800383e:	0092      	lsls	r2, r2, #2
 8003840:	4093      	lsls	r3, r2
 8003842:	69ba      	ldr	r2, [r7, #24]
 8003844:	4313      	orrs	r3, r2
 8003846:	61bb      	str	r3, [r7, #24]
        SYSCFG->EXTICR[position >> 2] = temp;
 8003848:	4935      	ldr	r1, [pc, #212]	@ (8003920 <HAL_GPIO_Init+0x328>)
 800384a:	69fb      	ldr	r3, [r7, #28]
 800384c:	089b      	lsrs	r3, r3, #2
 800384e:	3302      	adds	r3, #2
 8003850:	69ba      	ldr	r2, [r7, #24]
 8003852:	f841 2023 	str.w	r2, [r1, r3, lsl #2]

        /* Clear Rising Falling edge configuration */
        temp = EXTI->RTSR;
 8003856:	4b3d      	ldr	r3, [pc, #244]	@ (800394c <HAL_GPIO_Init+0x354>)
 8003858:	689b      	ldr	r3, [r3, #8]
 800385a:	61bb      	str	r3, [r7, #24]
        temp &= ~((uint32_t)iocurrent);
 800385c:	693b      	ldr	r3, [r7, #16]
 800385e:	43db      	mvns	r3, r3
 8003860:	69ba      	ldr	r2, [r7, #24]
 8003862:	4013      	ands	r3, r2
 8003864:	61bb      	str	r3, [r7, #24]
        if ((GPIO_Init->Mode & TRIGGER_RISING) != 0x00u)
 8003866:	683b      	ldr	r3, [r7, #0]
 8003868:	685b      	ldr	r3, [r3, #4]
 800386a:	f403 1380 	and.w	r3, r3, #1048576	@ 0x100000
 800386e:	2b00      	cmp	r3, #0
 8003870:	d003      	beq.n	800387a <HAL_GPIO_Init+0x282>
        {
          temp |= iocurrent;
 8003872:	69ba      	ldr	r2, [r7, #24]
 8003874:	693b      	ldr	r3, [r7, #16]
 8003876:	4313      	orrs	r3, r2
 8003878:	61bb      	str	r3, [r7, #24]
        }
        EXTI->RTSR = temp;
 800387a:	4a34      	ldr	r2, [pc, #208]	@ (800394c <HAL_GPIO_Init+0x354>)
 800387c:	69bb      	ldr	r3, [r7, #24]
 800387e:	6093      	str	r3, [r2, #8]

        temp = EXTI->FTSR;
 8003880:	4b32      	ldr	r3, [pc, #200]	@ (800394c <HAL_GPIO_Init+0x354>)
 8003882:	68db      	ldr	r3, [r3, #12]
 8003884:	61bb      	str	r3, [r7, #24]
        temp &= ~((uint32_t)iocurrent);
 8003886:	693b      	ldr	r3, [r7, #16]
 8003888:	43db      	mvns	r3, r3
 800388a:	69ba      	ldr	r2, [r7, #24]
 800388c:	4013      	ands	r3, r2
 800388e:	61bb      	str	r3, [r7, #24]
        if ((GPIO_Init->Mode & TRIGGER_FALLING) != 0x00u)
 8003890:	683b      	ldr	r3, [r7, #0]
 8003892:	685b      	ldr	r3, [r3, #4]
 8003894:	f403 1300 	and.w	r3, r3, #2097152	@ 0x200000
 8003898:	2b00      	cmp	r3, #0
 800389a:	d003      	beq.n	80038a4 <HAL_GPIO_Init+0x2ac>
        {
          temp |= iocurrent;
 800389c:	69ba      	ldr	r2, [r7, #24]
 800389e:	693b      	ldr	r3, [r7, #16]
 80038a0:	4313      	orrs	r3, r2
 80038a2:	61bb      	str	r3, [r7, #24]
        }
        EXTI->FTSR = temp;
 80038a4:	4a29      	ldr	r2, [pc, #164]	@ (800394c <HAL_GPIO_Init+0x354>)
 80038a6:	69bb      	ldr	r3, [r7, #24]
 80038a8:	60d3      	str	r3, [r2, #12]

        temp = EXTI->EMR;
 80038aa:	4b28      	ldr	r3, [pc, #160]	@ (800394c <HAL_GPIO_Init+0x354>)
 80038ac:	685b      	ldr	r3, [r3, #4]
 80038ae:	61bb      	str	r3, [r7, #24]
        temp &= ~((uint32_t)iocurrent);
 80038b0:	693b      	ldr	r3, [r7, #16]
 80038b2:	43db      	mvns	r3, r3
 80038b4:	69ba      	ldr	r2, [r7, #24]
 80038b6:	4013      	ands	r3, r2
 80038b8:	61bb      	str	r3, [r7, #24]
        if ((GPIO_Init->Mode & EXTI_EVT) != 0x00u)
 80038ba:	683b      	ldr	r3, [r7, #0]
 80038bc:	685b      	ldr	r3, [r3, #4]
 80038be:	f403 3300 	and.w	r3, r3, #131072	@ 0x20000
 80038c2:	2b00      	cmp	r3, #0
 80038c4:	d003      	beq.n	80038ce <HAL_GPIO_Init+0x2d6>
        {
          temp |= iocurrent;
 80038c6:	69ba      	ldr	r2, [r7, #24]
 80038c8:	693b      	ldr	r3, [r7, #16]
 80038ca:	4313      	orrs	r3, r2
 80038cc:	61bb      	str	r3, [r7, #24]
        }
        EXTI->EMR = temp;
 80038ce:	4a1f      	ldr	r2, [pc, #124]	@ (800394c <HAL_GPIO_Init+0x354>)
 80038d0:	69bb      	ldr	r3, [r7, #24]
 80038d2:	6053      	str	r3, [r2, #4]

        /* Clear EXTI line configuration */
        temp = EXTI->IMR;
 80038d4:	4b1d      	ldr	r3, [pc, #116]	@ (800394c <HAL_GPIO_Init+0x354>)
 80038d6:	681b      	ldr	r3, [r3, #0]
 80038d8:	61bb      	str	r3, [r7, #24]
        temp &= ~((uint32_t)iocurrent);
 80038da:	693b      	ldr	r3, [r7, #16]
 80038dc:	43db      	mvns	r3, r3
 80038de:	69ba      	ldr	r2, [r7, #24]
 80038e0:	4013      	ands	r3, r2
 80038e2:	61bb      	str	r3, [r7, #24]
        if ((GPIO_Init->Mode & EXTI_IT) != 0x00u)
 80038e4:	683b      	ldr	r3, [r7, #0]
 80038e6:	685b      	ldr	r3, [r3, #4]
 80038e8:	f403 3380 	and.w	r3, r3, #65536	@ 0x10000
 80038ec:	2b00      	cmp	r3, #0
 80038ee:	d003      	beq.n	80038f8 <HAL_GPIO_Init+0x300>
        {
          temp |= iocurrent;
 80038f0:	69ba      	ldr	r2, [r7, #24]
 80038f2:	693b      	ldr	r3, [r7, #16]
 80038f4:	4313      	orrs	r3, r2
 80038f6:	61bb      	str	r3, [r7, #24]
        }
        EXTI->IMR = temp;
 80038f8:	4a14      	ldr	r2, [pc, #80]	@ (800394c <HAL_GPIO_Init+0x354>)
 80038fa:	69bb      	ldr	r3, [r7, #24]
 80038fc:	6013      	str	r3, [r2, #0]
  for (position = 0; position < GPIO_NUMBER; position++)
 80038fe:	69fb      	ldr	r3, [r7, #28]
 8003900:	3301      	adds	r3, #1
 8003902:	61fb      	str	r3, [r7, #28]
 8003904:	69fb      	ldr	r3, [r7, #28]
 8003906:	2b0f      	cmp	r3, #15
 8003908:	f67f ae86 	bls.w	8003618 <HAL_GPIO_Init+0x20>
      }
    }
  }
}
 800390c:	bf00      	nop
 800390e:	bf00      	nop
 8003910:	3724      	adds	r7, #36	@ 0x24
 8003912:	46bd      	mov	sp, r7
 8003914:	f85d 7b04 	ldr.w	r7, [sp], #4
 8003918:	4770      	bx	lr
 800391a:	bf00      	nop
 800391c:	40023800 	.word	0x40023800
 8003920:	40013800 	.word	0x40013800
 8003924:	40020000 	.word	0x40020000
 8003928:	40020400 	.word	0x40020400
 800392c:	40020800 	.word	0x40020800
 8003930:	40020c00 	.word	0x40020c00
 8003934:	40021000 	.word	0x40021000
 8003938:	40021400 	.word	0x40021400
 800393c:	40021800 	.word	0x40021800
 8003940:	40021c00 	.word	0x40021c00
 8003944:	40022000 	.word	0x40022000
 8003948:	40022400 	.word	0x40022400
 800394c:	40013c00 	.word	0x40013c00

08003950 <HAL_GPIO_ReadPin>:
  * @param  GPIO_Pin specifies the port bit to read.
  *         This parameter can be any combination of GPIO_PIN_x where x can be (0..15).
  * @retval The input port pin value.
  */
GPIO_PinState HAL_GPIO_ReadPin(GPIO_TypeDef *GPIOx, uint16_t GPIO_Pin)
{
 8003950:	b480      	push	{r7}
 8003952:	b085      	sub	sp, #20
 8003954:	af00      	add	r7, sp, #0
 8003956:	6078      	str	r0, [r7, #4]
 8003958:	460b      	mov	r3, r1
 800395a:	807b      	strh	r3, [r7, #2]
  GPIO_PinState bitstatus;

  /* Check the parameters */
  assert_param(IS_GPIO_PIN(GPIO_Pin));

  if ((GPIOx->IDR & GPIO_Pin) != (uint32_t)GPIO_PIN_RESET)
 800395c:	687b      	ldr	r3, [r7, #4]
 800395e:	691a      	ldr	r2, [r3, #16]
 8003960:	887b      	ldrh	r3, [r7, #2]
 8003962:	4013      	ands	r3, r2
 8003964:	2b00      	cmp	r3, #0
 8003966:	d002      	beq.n	800396e <HAL_GPIO_ReadPin+0x1e>
  {
    bitstatus = GPIO_PIN_SET;
 8003968:	2301      	movs	r3, #1
 800396a:	73fb      	strb	r3, [r7, #15]
 800396c:	e001      	b.n	8003972 <HAL_GPIO_ReadPin+0x22>
  }
  else
  {
    bitstatus = GPIO_PIN_RESET;
 800396e:	2300      	movs	r3, #0
 8003970:	73fb      	strb	r3, [r7, #15]
  }
  return bitstatus;
 8003972:	7bfb      	ldrb	r3, [r7, #15]
}
 8003974:	4618      	mov	r0, r3
 8003976:	3714      	adds	r7, #20
 8003978:	46bd      	mov	sp, r7
 800397a:	f85d 7b04 	ldr.w	r7, [sp], #4
 800397e:	4770      	bx	lr

08003980 <HAL_GPIO_WritePin>:
  *            @arg GPIO_PIN_RESET: to clear the port pin
  *            @arg GPIO_PIN_SET: to set the port pin
  * @retval None
  */
void HAL_GPIO_WritePin(GPIO_TypeDef *GPIOx, uint16_t GPIO_Pin, GPIO_PinState PinState)
{
 8003980:	b480      	push	{r7}
 8003982:	b083      	sub	sp, #12
 8003984:	af00      	add	r7, sp, #0
 8003986:	6078      	str	r0, [r7, #4]
 8003988:	460b      	mov	r3, r1
 800398a:	807b      	strh	r3, [r7, #2]
 800398c:	4613      	mov	r3, r2
 800398e:	707b      	strb	r3, [r7, #1]
  /* Check the parameters */
  assert_param(IS_GPIO_PIN(GPIO_Pin));
  assert_param(IS_GPIO_PIN_ACTION(PinState));

  if (PinState != GPIO_PIN_RESET)
 8003990:	787b      	ldrb	r3, [r7, #1]
 8003992:	2b00      	cmp	r3, #0
 8003994:	d003      	beq.n	800399e <HAL_GPIO_WritePin+0x1e>
  {
    GPIOx->BSRR = GPIO_Pin;
 8003996:	887a      	ldrh	r2, [r7, #2]
 8003998:	687b      	ldr	r3, [r7, #4]
 800399a:	619a      	str	r2, [r3, #24]
  }
  else
  {
    GPIOx->BSRR = (uint32_t)GPIO_Pin << 16;
  }
}
 800399c:	e003      	b.n	80039a6 <HAL_GPIO_WritePin+0x26>
    GPIOx->BSRR = (uint32_t)GPIO_Pin << 16;
 800399e:	887b      	ldrh	r3, [r7, #2]
 80039a0:	041a      	lsls	r2, r3, #16
 80039a2:	687b      	ldr	r3, [r7, #4]
 80039a4:	619a      	str	r2, [r3, #24]
}
 80039a6:	bf00      	nop
 80039a8:	370c      	adds	r7, #12
 80039aa:	46bd      	mov	sp, r7
 80039ac:	f85d 7b04 	ldr.w	r7, [sp], #4
 80039b0:	4770      	bx	lr

080039b2 <HAL_GPIO_TogglePin>:
  * @param  GPIO_Pin Specifies the pins to be toggled.
  *         This parameter can be any combination of GPIO_PIN_x where x can be (0..15).
  * @retval None
  */
void HAL_GPIO_TogglePin(GPIO_TypeDef *GPIOx, uint16_t GPIO_Pin)
{
 80039b2:	b480      	push	{r7}
 80039b4:	b085      	sub	sp, #20
 80039b6:	af00      	add	r7, sp, #0
 80039b8:	6078      	str	r0, [r7, #4]
 80039ba:	460b      	mov	r3, r1
 80039bc:	807b      	strh	r3, [r7, #2]

  /* Check the parameters */
  assert_param(IS_GPIO_PIN(GPIO_Pin));

  /* get current Output Data Register value */
  odr = GPIOx->ODR;
 80039be:	687b      	ldr	r3, [r7, #4]
 80039c0:	695b      	ldr	r3, [r3, #20]
 80039c2:	60fb      	str	r3, [r7, #12]

  /* Set selected pins that were at low level, and reset ones that were high */
  GPIOx->BSRR = ((odr & GPIO_Pin) << GPIO_NUMBER) | (~odr & GPIO_Pin);
 80039c4:	887a      	ldrh	r2, [r7, #2]
 80039c6:	68fb      	ldr	r3, [r7, #12]
 80039c8:	4013      	ands	r3, r2
 80039ca:	041a      	lsls	r2, r3, #16
 80039cc:	68fb      	ldr	r3, [r7, #12]
 80039ce:	43d9      	mvns	r1, r3
 80039d0:	887b      	ldrh	r3, [r7, #2]
 80039d2:	400b      	ands	r3, r1
 80039d4:	431a      	orrs	r2, r3
 80039d6:	687b      	ldr	r3, [r7, #4]
 80039d8:	619a      	str	r2, [r3, #24]
}
 80039da:	bf00      	nop
 80039dc:	3714      	adds	r7, #20
 80039de:	46bd      	mov	sp, r7
 80039e0:	f85d 7b04 	ldr.w	r7, [sp], #4
 80039e4:	4770      	bx	lr
	...

080039e8 <HAL_GPIO_EXTI_IRQHandler>:
  * @brief  This function handles EXTI interrupt request.
  * @param  GPIO_Pin Specifies the pins connected EXTI line
  * @retval None
  */
void HAL_GPIO_EXTI_IRQHandler(uint16_t GPIO_Pin)
{
 80039e8:	b580      	push	{r7, lr}
 80039ea:	b082      	sub	sp, #8
 80039ec:	af00      	add	r7, sp, #0
 80039ee:	4603      	mov	r3, r0
 80039f0:	80fb      	strh	r3, [r7, #6]
  /* EXTI line interrupt detected */
  if (__HAL_GPIO_EXTI_GET_IT(GPIO_Pin) != RESET)
 80039f2:	4b08      	ldr	r3, [pc, #32]	@ (8003a14 <HAL_GPIO_EXTI_IRQHandler+0x2c>)
 80039f4:	695a      	ldr	r2, [r3, #20]
 80039f6:	88fb      	ldrh	r3, [r7, #6]
 80039f8:	4013      	ands	r3, r2
 80039fa:	2b00      	cmp	r3, #0
 80039fc:	d006      	beq.n	8003a0c <HAL_GPIO_EXTI_IRQHandler+0x24>
  {
    __HAL_GPIO_EXTI_CLEAR_IT(GPIO_Pin);
 80039fe:	4a05      	ldr	r2, [pc, #20]	@ (8003a14 <HAL_GPIO_EXTI_IRQHandler+0x2c>)
 8003a00:	88fb      	ldrh	r3, [r7, #6]
 8003a02:	6153      	str	r3, [r2, #20]
    HAL_GPIO_EXTI_Callback(GPIO_Pin);
 8003a04:	88fb      	ldrh	r3, [r7, #6]
 8003a06:	4618      	mov	r0, r3
 8003a08:	f000 f806 	bl	8003a18 <HAL_GPIO_EXTI_Callback>
  }
}
 8003a0c:	bf00      	nop
 8003a0e:	3708      	adds	r7, #8
 8003a10:	46bd      	mov	sp, r7
 8003a12:	bd80      	pop	{r7, pc}
 8003a14:	40013c00 	.word	0x40013c00

08003a18 <HAL_GPIO_EXTI_Callback>:
  * @brief  EXTI line detection callbacks.
  * @param  GPIO_Pin Specifies the pins connected EXTI line
  * @retval None
  */
__weak void HAL_GPIO_EXTI_Callback(uint16_t GPIO_Pin)
{
 8003a18:	b480      	push	{r7}
 8003a1a:	b083      	sub	sp, #12
 8003a1c:	af00      	add	r7, sp, #0
 8003a1e:	4603      	mov	r3, r0
 8003a20:	80fb      	strh	r3, [r7, #6]
  UNUSED(GPIO_Pin);

  /* NOTE: This function Should not be modified, when the callback is needed,
           the HAL_GPIO_EXTI_Callback could be implemented in the user file
   */
}
 8003a22:	bf00      	nop
 8003a24:	370c      	adds	r7, #12
 8003a26:	46bd      	mov	sp, r7
 8003a28:	f85d 7b04 	ldr.w	r7, [sp], #4
 8003a2c:	4770      	bx	lr
	...

08003a30 <HAL_I2C_Init>:
  * @param  hi2c Pointer to a I2C_HandleTypeDef structure that contains
  *                the configuration information for the specified I2C.
  * @retval HAL status
  */
HAL_StatusTypeDef HAL_I2C_Init(I2C_HandleTypeDef *hi2c)
{
 8003a30:	b580      	push	{r7, lr}
 8003a32:	b082      	sub	sp, #8
 8003a34:	af00      	add	r7, sp, #0
 8003a36:	6078      	str	r0, [r7, #4]
  /* Check the I2C handle allocation */
  if (hi2c == NULL)
 8003a38:	687b      	ldr	r3, [r7, #4]
 8003a3a:	2b00      	cmp	r3, #0
 8003a3c:	d101      	bne.n	8003a42 <HAL_I2C_Init+0x12>
  {
    return HAL_ERROR;
 8003a3e:	2301      	movs	r3, #1
 8003a40:	e08b      	b.n	8003b5a <HAL_I2C_Init+0x12a>
  assert_param(IS_I2C_OWN_ADDRESS2(hi2c->Init.OwnAddress2));
  assert_param(IS_I2C_OWN_ADDRESS2_MASK(hi2c->Init.OwnAddress2Masks));
  assert_param(IS_I2C_GENERAL_CALL(hi2c->Init.GeneralCallMode));
  assert_param(IS_I2C_NO_STRETCH(hi2c->Init.NoStretchMode));

  if (hi2c->State == HAL_I2C_STATE_RESET)
 8003a42:	687b      	ldr	r3, [r7, #4]
 8003a44:	f893 3041 	ldrb.w	r3, [r3, #65]	@ 0x41
 8003a48:	b2db      	uxtb	r3, r3
 8003a4a:	2b00      	cmp	r3, #0
 8003a4c:	d106      	bne.n	8003a5c <HAL_I2C_Init+0x2c>
  {
    /* Allocate lock resource and initialize it */
    hi2c->Lock = HAL_UNLOCKED;
 8003a4e:	687b      	ldr	r3, [r7, #4]
 8003a50:	2200      	movs	r2, #0
 8003a52:	f883 2040 	strb.w	r2, [r3, #64]	@ 0x40

    /* Init the low level hardware : GPIO, CLOCK, CORTEX...etc */
    hi2c->MspInitCallback(hi2c);
#else
    /* Init the low level hardware : GPIO, CLOCK, CORTEX...etc */
    HAL_I2C_MspInit(hi2c);
 8003a56:	6878      	ldr	r0, [r7, #4]
 8003a58:	f7fe fe18 	bl	800268c <HAL_I2C_MspInit>
#endif /* USE_HAL_I2C_REGISTER_CALLBACKS */
  }

  hi2c->State = HAL_I2C_STATE_BUSY;
 8003a5c:	687b      	ldr	r3, [r7, #4]
 8003a5e:	2224      	movs	r2, #36	@ 0x24
 8003a60:	f883 2041 	strb.w	r2, [r3, #65]	@ 0x41

  /* Disable the selected I2C peripheral */
  __HAL_I2C_DISABLE(hi2c);
 8003a64:	687b      	ldr	r3, [r7, #4]
 8003a66:	681b      	ldr	r3, [r3, #0]
 8003a68:	681a      	ldr	r2, [r3, #0]
 8003a6a:	687b      	ldr	r3, [r7, #4]
 8003a6c:	681b      	ldr	r3, [r3, #0]
 8003a6e:	f022 0201 	bic.w	r2, r2, #1
 8003a72:	601a      	str	r2, [r3, #0]

  /*---------------------------- I2Cx TIMINGR Configuration ------------------*/
  /* Configure I2Cx: Frequency range */
  hi2c->Instance->TIMINGR = hi2c->Init.Timing & TIMING_CLEAR_MASK;
 8003a74:	687b      	ldr	r3, [r7, #4]
 8003a76:	685a      	ldr	r2, [r3, #4]
 8003a78:	687b      	ldr	r3, [r7, #4]
 8003a7a:	681b      	ldr	r3, [r3, #0]
 8003a7c:	f022 6270 	bic.w	r2, r2, #251658240	@ 0xf000000
 8003a80:	611a      	str	r2, [r3, #16]

  /*---------------------------- I2Cx OAR1 Configuration ---------------------*/
  /* Disable Own Address1 before set the Own Address1 configuration */
  hi2c->Instance->OAR1 &= ~I2C_OAR1_OA1EN;
 8003a82:	687b      	ldr	r3, [r7, #4]
 8003a84:	681b      	ldr	r3, [r3, #0]
 8003a86:	689a      	ldr	r2, [r3, #8]
 8003a88:	687b      	ldr	r3, [r7, #4]
 8003a8a:	681b      	ldr	r3, [r3, #0]
 8003a8c:	f422 4200 	bic.w	r2, r2, #32768	@ 0x8000
 8003a90:	609a      	str	r2, [r3, #8]

  /* Configure I2Cx: Own Address1 and ack own address1 mode */
  if (hi2c->Init.AddressingMode == I2C_ADDRESSINGMODE_7BIT)
 8003a92:	687b      	ldr	r3, [r7, #4]
 8003a94:	68db      	ldr	r3, [r3, #12]
 8003a96:	2b01      	cmp	r3, #1
 8003a98:	d107      	bne.n	8003aaa <HAL_I2C_Init+0x7a>
  {
    hi2c->Instance->OAR1 = (I2C_OAR1_OA1EN | hi2c->Init.OwnAddress1);
 8003a9a:	687b      	ldr	r3, [r7, #4]
 8003a9c:	689a      	ldr	r2, [r3, #8]
 8003a9e:	687b      	ldr	r3, [r7, #4]
 8003aa0:	681b      	ldr	r3, [r3, #0]
 8003aa2:	f442 4200 	orr.w	r2, r2, #32768	@ 0x8000
 8003aa6:	609a      	str	r2, [r3, #8]
 8003aa8:	e006      	b.n	8003ab8 <HAL_I2C_Init+0x88>
  }
  else /* I2C_ADDRESSINGMODE_10BIT */
  {
    hi2c->Instance->OAR1 = (I2C_OAR1_OA1EN | I2C_OAR1_OA1MODE | hi2c->Init.OwnAddress1);
 8003aaa:	687b      	ldr	r3, [r7, #4]
 8003aac:	689a      	ldr	r2, [r3, #8]
 8003aae:	687b      	ldr	r3, [r7, #4]
 8003ab0:	681b      	ldr	r3, [r3, #0]
 8003ab2:	f442 4204 	orr.w	r2, r2, #33792	@ 0x8400
 8003ab6:	609a      	str	r2, [r3, #8]
  }

  /*---------------------------- I2Cx CR2 Configuration ----------------------*/
  /* Configure I2Cx: Addressing Master mode */
  if (hi2c->Init.AddressingMode == I2C_ADDRESSINGMODE_10BIT)
 8003ab8:	687b      	ldr	r3, [r7, #4]
 8003aba:	68db      	ldr	r3, [r3, #12]
 8003abc:	2b02      	cmp	r3, #2
 8003abe:	d108      	bne.n	8003ad2 <HAL_I2C_Init+0xa2>
  {
    SET_BIT(hi2c->Instance->CR2, I2C_CR2_ADD10);
 8003ac0:	687b      	ldr	r3, [r7, #4]
 8003ac2:	681b      	ldr	r3, [r3, #0]
 8003ac4:	685a      	ldr	r2, [r3, #4]
 8003ac6:	687b      	ldr	r3, [r7, #4]
 8003ac8:	681b      	ldr	r3, [r3, #0]
 8003aca:	f442 6200 	orr.w	r2, r2, #2048	@ 0x800
 8003ace:	605a      	str	r2, [r3, #4]
 8003ad0:	e007      	b.n	8003ae2 <HAL_I2C_Init+0xb2>
  }
  else
  {
    /* Clear the I2C ADD10 bit */
    CLEAR_BIT(hi2c->Instance->CR2, I2C_CR2_ADD10);
 8003ad2:	687b      	ldr	r3, [r7, #4]
 8003ad4:	681b      	ldr	r3, [r3, #0]
 8003ad6:	685a      	ldr	r2, [r3, #4]
 8003ad8:	687b      	ldr	r3, [r7, #4]
 8003ada:	681b      	ldr	r3, [r3, #0]
 8003adc:	f422 6200 	bic.w	r2, r2, #2048	@ 0x800
 8003ae0:	605a      	str	r2, [r3, #4]
  }
  /* Enable the AUTOEND by default, and enable NACK (should be disable only during Slave process */
  hi2c->Instance->CR2 |= (I2C_CR2_AUTOEND | I2C_CR2_NACK);
 8003ae2:	687b      	ldr	r3, [r7, #4]
 8003ae4:	681b      	ldr	r3, [r3, #0]
 8003ae6:	6859      	ldr	r1, [r3, #4]
 8003ae8:	687b      	ldr	r3, [r7, #4]
 8003aea:	681a      	ldr	r2, [r3, #0]
 8003aec:	4b1d      	ldr	r3, [pc, #116]	@ (8003b64 <HAL_I2C_Init+0x134>)
 8003aee:	430b      	orrs	r3, r1
 8003af0:	6053      	str	r3, [r2, #4]

  /*---------------------------- I2Cx OAR2 Configuration ---------------------*/
  /* Disable Own Address2 before set the Own Address2 configuration */
  hi2c->Instance->OAR2 &= ~I2C_DUALADDRESS_ENABLE;
 8003af2:	687b      	ldr	r3, [r7, #4]
 8003af4:	681b      	ldr	r3, [r3, #0]
 8003af6:	68da      	ldr	r2, [r3, #12]
 8003af8:	687b      	ldr	r3, [r7, #4]
 8003afa:	681b      	ldr	r3, [r3, #0]
 8003afc:	f422 4200 	bic.w	r2, r2, #32768	@ 0x8000
 8003b00:	60da      	str	r2, [r3, #12]

  /* Configure I2Cx: Dual mode and Own Address2 */
  hi2c->Instance->OAR2 = (hi2c->Init.DualAddressMode | hi2c->Init.OwnAddress2 | \
 8003b02:	687b      	ldr	r3, [r7, #4]
 8003b04:	691a      	ldr	r2, [r3, #16]
 8003b06:	687b      	ldr	r3, [r7, #4]
 8003b08:	695b      	ldr	r3, [r3, #20]
 8003b0a:	ea42 0103 	orr.w	r1, r2, r3
                          (hi2c->Init.OwnAddress2Masks << 8));
 8003b0e:	687b      	ldr	r3, [r7, #4]
 8003b10:	699b      	ldr	r3, [r3, #24]
 8003b12:	021a      	lsls	r2, r3, #8
  hi2c->Instance->OAR2 = (hi2c->Init.DualAddressMode | hi2c->Init.OwnAddress2 | \
 8003b14:	687b      	ldr	r3, [r7, #4]
 8003b16:	681b      	ldr	r3, [r3, #0]
 8003b18:	430a      	orrs	r2, r1
 8003b1a:	60da      	str	r2, [r3, #12]

  /*---------------------------- I2Cx CR1 Configuration ----------------------*/
  /* Configure I2Cx: Generalcall and NoStretch mode */
  hi2c->Instance->CR1 = (hi2c->Init.GeneralCallMode | hi2c->Init.NoStretchMode);
 8003b1c:	687b      	ldr	r3, [r7, #4]
 8003b1e:	69d9      	ldr	r1, [r3, #28]
 8003b20:	687b      	ldr	r3, [r7, #4]
 8003b22:	6a1a      	ldr	r2, [r3, #32]
 8003b24:	687b      	ldr	r3, [r7, #4]
 8003b26:	681b      	ldr	r3, [r3, #0]
 8003b28:	430a      	orrs	r2, r1
 8003b2a:	601a      	str	r2, [r3, #0]

  /* Enable the selected I2C peripheral */
  __HAL_I2C_ENABLE(hi2c);
 8003b2c:	687b      	ldr	r3, [r7, #4]
 8003b2e:	681b      	ldr	r3, [r3, #0]
 8003b30:	681a      	ldr	r2, [r3, #0]
 8003b32:	687b      	ldr	r3, [r7, #4]
 8003b34:	681b      	ldr	r3, [r3, #0]
 8003b36:	f042 0201 	orr.w	r2, r2, #1
 8003b3a:	601a      	str	r2, [r3, #0]

  hi2c->ErrorCode = HAL_I2C_ERROR_NONE;
 8003b3c:	687b      	ldr	r3, [r7, #4]
 8003b3e:	2200      	movs	r2, #0
 8003b40:	645a      	str	r2, [r3, #68]	@ 0x44
  hi2c->State = HAL_I2C_STATE_READY;
 8003b42:	687b      	ldr	r3, [r7, #4]
 8003b44:	2220      	movs	r2, #32
 8003b46:	f883 2041 	strb.w	r2, [r3, #65]	@ 0x41
  hi2c->PreviousState = I2C_STATE_NONE;
 8003b4a:	687b      	ldr	r3, [r7, #4]
 8003b4c:	2200      	movs	r2, #0
 8003b4e:	631a      	str	r2, [r3, #48]	@ 0x30
  hi2c->Mode = HAL_I2C_MODE_NONE;
 8003b50:	687b      	ldr	r3, [r7, #4]
 8003b52:	2200      	movs	r2, #0
 8003b54:	f883 2042 	strb.w	r2, [r3, #66]	@ 0x42

  return HAL_OK;
 8003b58:	2300      	movs	r3, #0
}
 8003b5a:	4618      	mov	r0, r3
 8003b5c:	3708      	adds	r7, #8
 8003b5e:	46bd      	mov	sp, r7
 8003b60:	bd80      	pop	{r7, pc}
 8003b62:	bf00      	nop
 8003b64:	02008000 	.word	0x02008000

08003b68 <HAL_I2C_Mem_Write>:
  * @param  Timeout Timeout duration
  * @retval HAL status
  */
HAL_StatusTypeDef HAL_I2C_Mem_Write(I2C_HandleTypeDef *hi2c, uint16_t DevAddress, uint16_t MemAddress,
                                    uint16_t MemAddSize, uint8_t *pData, uint16_t Size, uint32_t Timeout)
{
 8003b68:	b580      	push	{r7, lr}
 8003b6a:	b088      	sub	sp, #32
 8003b6c:	af02      	add	r7, sp, #8
 8003b6e:	60f8      	str	r0, [r7, #12]
 8003b70:	4608      	mov	r0, r1
 8003b72:	4611      	mov	r1, r2
 8003b74:	461a      	mov	r2, r3
 8003b76:	4603      	mov	r3, r0
 8003b78:	817b      	strh	r3, [r7, #10]
 8003b7a:	460b      	mov	r3, r1
 8003b7c:	813b      	strh	r3, [r7, #8]
 8003b7e:	4613      	mov	r3, r2
 8003b80:	80fb      	strh	r3, [r7, #6]
  uint32_t tickstart;

  /* Check the parameters */
  assert_param(IS_I2C_MEMADD_SIZE(MemAddSize));

  if (hi2c->State == HAL_I2C_STATE_READY)
 8003b82:	68fb      	ldr	r3, [r7, #12]
 8003b84:	f893 3041 	ldrb.w	r3, [r3, #65]	@ 0x41
 8003b88:	b2db      	uxtb	r3, r3
 8003b8a:	2b20      	cmp	r3, #32
 8003b8c:	f040 80f9 	bne.w	8003d82 <HAL_I2C_Mem_Write+0x21a>
  {
    if ((pData == NULL) || (Size == 0U))
 8003b90:	6a3b      	ldr	r3, [r7, #32]
 8003b92:	2b00      	cmp	r3, #0
 8003b94:	d002      	beq.n	8003b9c <HAL_I2C_Mem_Write+0x34>
 8003b96:	8cbb      	ldrh	r3, [r7, #36]	@ 0x24
 8003b98:	2b00      	cmp	r3, #0
 8003b9a:	d105      	bne.n	8003ba8 <HAL_I2C_Mem_Write+0x40>
    {
      hi2c->ErrorCode = HAL_I2C_ERROR_INVALID_PARAM;
 8003b9c:	68fb      	ldr	r3, [r7, #12]
 8003b9e:	f44f 7200 	mov.w	r2, #512	@ 0x200
 8003ba2:	645a      	str	r2, [r3, #68]	@ 0x44
      return  HAL_ERROR;
 8003ba4:	2301      	movs	r3, #1
 8003ba6:	e0ed      	b.n	8003d84 <HAL_I2C_Mem_Write+0x21c>
    }

    /* Process Locked */
    __HAL_LOCK(hi2c);
 8003ba8:	68fb      	ldr	r3, [r7, #12]
 8003baa:	f893 3040 	ldrb.w	r3, [r3, #64]	@ 0x40
 8003bae:	2b01      	cmp	r3, #1
 8003bb0:	d101      	bne.n	8003bb6 <HAL_I2C_Mem_Write+0x4e>
 8003bb2:	2302      	movs	r3, #2
 8003bb4:	e0e6      	b.n	8003d84 <HAL_I2C_Mem_Write+0x21c>
 8003bb6:	68fb      	ldr	r3, [r7, #12]
 8003bb8:	2201      	movs	r2, #1
 8003bba:	f883 2040 	strb.w	r2, [r3, #64]	@ 0x40

    /* Init tickstart for timeout management*/
    tickstart = HAL_GetTick();
 8003bbe:	f7fe ff2f 	bl	8002a20 <HAL_GetTick>
 8003bc2:	6178      	str	r0, [r7, #20]

    if (I2C_WaitOnFlagUntilTimeout(hi2c, I2C_FLAG_BUSY, SET, I2C_TIMEOUT_BUSY, tickstart) != HAL_OK)
 8003bc4:	697b      	ldr	r3, [r7, #20]
 8003bc6:	9300      	str	r3, [sp, #0]
 8003bc8:	2319      	movs	r3, #25
 8003bca:	2201      	movs	r2, #1
 8003bcc:	f44f 4100 	mov.w	r1, #32768	@ 0x8000
 8003bd0:	68f8      	ldr	r0, [r7, #12]
 8003bd2:	f000 fac3 	bl	800415c <I2C_WaitOnFlagUntilTimeout>
 8003bd6:	4603      	mov	r3, r0
 8003bd8:	2b00      	cmp	r3, #0
 8003bda:	d001      	beq.n	8003be0 <HAL_I2C_Mem_Write+0x78>
    {
      return HAL_ERROR;
 8003bdc:	2301      	movs	r3, #1
 8003bde:	e0d1      	b.n	8003d84 <HAL_I2C_Mem_Write+0x21c>
    }

    hi2c->State     = HAL_I2C_STATE_BUSY_TX;
 8003be0:	68fb      	ldr	r3, [r7, #12]
 8003be2:	2221      	movs	r2, #33	@ 0x21
 8003be4:	f883 2041 	strb.w	r2, [r3, #65]	@ 0x41
    hi2c->Mode      = HAL_I2C_MODE_MEM;
 8003be8:	68fb      	ldr	r3, [r7, #12]
 8003bea:	2240      	movs	r2, #64	@ 0x40
 8003bec:	f883 2042 	strb.w	r2, [r3, #66]	@ 0x42
    hi2c->ErrorCode = HAL_I2C_ERROR_NONE;
 8003bf0:	68fb      	ldr	r3, [r7, #12]
 8003bf2:	2200      	movs	r2, #0
 8003bf4:	645a      	str	r2, [r3, #68]	@ 0x44

    /* Prepare transfer parameters */
    hi2c->pBuffPtr  = pData;
 8003bf6:	68fb      	ldr	r3, [r7, #12]
 8003bf8:	6a3a      	ldr	r2, [r7, #32]
 8003bfa:	625a      	str	r2, [r3, #36]	@ 0x24
    hi2c->XferCount = Size;
 8003bfc:	68fb      	ldr	r3, [r7, #12]
 8003bfe:	8cba      	ldrh	r2, [r7, #36]	@ 0x24
 8003c00:	855a      	strh	r2, [r3, #42]	@ 0x2a
    hi2c->XferISR   = NULL;
 8003c02:	68fb      	ldr	r3, [r7, #12]
 8003c04:	2200      	movs	r2, #0
 8003c06:	635a      	str	r2, [r3, #52]	@ 0x34

    /* Send Slave Address and Memory Address */
    if (I2C_RequestMemoryWrite(hi2c, DevAddress, MemAddress, MemAddSize, Timeout, tickstart) != HAL_OK)
 8003c08:	88f8      	ldrh	r0, [r7, #6]
 8003c0a:	893a      	ldrh	r2, [r7, #8]
 8003c0c:	8979      	ldrh	r1, [r7, #10]
 8003c0e:	697b      	ldr	r3, [r7, #20]
 8003c10:	9301      	str	r3, [sp, #4]
 8003c12:	6abb      	ldr	r3, [r7, #40]	@ 0x28
 8003c14:	9300      	str	r3, [sp, #0]
 8003c16:	4603      	mov	r3, r0
 8003c18:	68f8      	ldr	r0, [r7, #12]
 8003c1a:	f000 f9d3 	bl	8003fc4 <I2C_RequestMemoryWrite>
 8003c1e:	4603      	mov	r3, r0
 8003c20:	2b00      	cmp	r3, #0
 8003c22:	d005      	beq.n	8003c30 <HAL_I2C_Mem_Write+0xc8>
    {
      /* Process Unlocked */
      __HAL_UNLOCK(hi2c);
 8003c24:	68fb      	ldr	r3, [r7, #12]
 8003c26:	2200      	movs	r2, #0
 8003c28:	f883 2040 	strb.w	r2, [r3, #64]	@ 0x40
      return HAL_ERROR;
 8003c2c:	2301      	movs	r3, #1
 8003c2e:	e0a9      	b.n	8003d84 <HAL_I2C_Mem_Write+0x21c>
    }

    /* Set NBYTES to write and reload if hi2c->XferCount > MAX_NBYTE_SIZE */
    if (hi2c->XferCount > MAX_NBYTE_SIZE)
 8003c30:	68fb      	ldr	r3, [r7, #12]
 8003c32:	8d5b      	ldrh	r3, [r3, #42]	@ 0x2a
 8003c34:	b29b      	uxth	r3, r3
 8003c36:	2bff      	cmp	r3, #255	@ 0xff
 8003c38:	d90e      	bls.n	8003c58 <HAL_I2C_Mem_Write+0xf0>
    {
      hi2c->XferSize = MAX_NBYTE_SIZE;
 8003c3a:	68fb      	ldr	r3, [r7, #12]
 8003c3c:	22ff      	movs	r2, #255	@ 0xff
 8003c3e:	851a      	strh	r2, [r3, #40]	@ 0x28
      I2C_TransferConfig(hi2c, DevAddress, (uint8_t)hi2c->XferSize, I2C_RELOAD_MODE, I2C_NO_STARTSTOP);
 8003c40:	68fb      	ldr	r3, [r7, #12]
 8003c42:	8d1b      	ldrh	r3, [r3, #40]	@ 0x28
 8003c44:	b2da      	uxtb	r2, r3
 8003c46:	8979      	ldrh	r1, [r7, #10]
 8003c48:	2300      	movs	r3, #0
 8003c4a:	9300      	str	r3, [sp, #0]
 8003c4c:	f04f 7380 	mov.w	r3, #16777216	@ 0x1000000
 8003c50:	68f8      	ldr	r0, [r7, #12]
 8003c52:	f000 fc47 	bl	80044e4 <I2C_TransferConfig>
 8003c56:	e00f      	b.n	8003c78 <HAL_I2C_Mem_Write+0x110>
    }
    else
    {
      hi2c->XferSize = hi2c->XferCount;
 8003c58:	68fb      	ldr	r3, [r7, #12]
 8003c5a:	8d5b      	ldrh	r3, [r3, #42]	@ 0x2a
 8003c5c:	b29a      	uxth	r2, r3
 8003c5e:	68fb      	ldr	r3, [r7, #12]
 8003c60:	851a      	strh	r2, [r3, #40]	@ 0x28
      I2C_TransferConfig(hi2c, DevAddress, (uint8_t)hi2c->XferSize, I2C_AUTOEND_MODE, I2C_NO_STARTSTOP);
 8003c62:	68fb      	ldr	r3, [r7, #12]
 8003c64:	8d1b      	ldrh	r3, [r3, #40]	@ 0x28
 8003c66:	b2da      	uxtb	r2, r3
 8003c68:	8979      	ldrh	r1, [r7, #10]
 8003c6a:	2300      	movs	r3, #0
 8003c6c:	9300      	str	r3, [sp, #0]
 8003c6e:	f04f 7300 	mov.w	r3, #33554432	@ 0x2000000
 8003c72:	68f8      	ldr	r0, [r7, #12]
 8003c74:	f000 fc36 	bl	80044e4 <I2C_TransferConfig>
    }

    do
    {
      /* Wait until TXIS flag is set */
      if (I2C_WaitOnTXISFlagUntilTimeout(hi2c, Timeout, tickstart) != HAL_OK)
 8003c78:	697a      	ldr	r2, [r7, #20]
 8003c7a:	6ab9      	ldr	r1, [r7, #40]	@ 0x28
 8003c7c:	68f8      	ldr	r0, [r7, #12]
 8003c7e:	f000 fac6 	bl	800420e <I2C_WaitOnTXISFlagUntilTimeout>
 8003c82:	4603      	mov	r3, r0
 8003c84:	2b00      	cmp	r3, #0
 8003c86:	d001      	beq.n	8003c8c <HAL_I2C_Mem_Write+0x124>
      {
        return HAL_ERROR;
 8003c88:	2301      	movs	r3, #1
 8003c8a:	e07b      	b.n	8003d84 <HAL_I2C_Mem_Write+0x21c>
      }

      /* Write data to TXDR */
      hi2c->Instance->TXDR = *hi2c->pBuffPtr;
 8003c8c:	68fb      	ldr	r3, [r7, #12]
 8003c8e:	6a5b      	ldr	r3, [r3, #36]	@ 0x24
 8003c90:	781a      	ldrb	r2, [r3, #0]
 8003c92:	68fb      	ldr	r3, [r7, #12]
 8003c94:	681b      	ldr	r3, [r3, #0]
 8003c96:	629a      	str	r2, [r3, #40]	@ 0x28

      /* Increment Buffer pointer */
      hi2c->pBuffPtr++;
 8003c98:	68fb      	ldr	r3, [r7, #12]
 8003c9a:	6a5b      	ldr	r3, [r3, #36]	@ 0x24
 8003c9c:	1c5a      	adds	r2, r3, #1
 8003c9e:	68fb      	ldr	r3, [r7, #12]
 8003ca0:	625a      	str	r2, [r3, #36]	@ 0x24

      hi2c->XferCount--;
 8003ca2:	68fb      	ldr	r3, [r7, #12]
 8003ca4:	8d5b      	ldrh	r3, [r3, #42]	@ 0x2a
 8003ca6:	b29b      	uxth	r3, r3
 8003ca8:	3b01      	subs	r3, #1
 8003caa:	b29a      	uxth	r2, r3
 8003cac:	68fb      	ldr	r3, [r7, #12]
 8003cae:	855a      	strh	r2, [r3, #42]	@ 0x2a
      hi2c->XferSize--;
 8003cb0:	68fb      	ldr	r3, [r7, #12]
 8003cb2:	8d1b      	ldrh	r3, [r3, #40]	@ 0x28
 8003cb4:	3b01      	subs	r3, #1
 8003cb6:	b29a      	uxth	r2, r3
 8003cb8:	68fb      	ldr	r3, [r7, #12]
 8003cba:	851a      	strh	r2, [r3, #40]	@ 0x28

      if ((hi2c->XferCount != 0U) && (hi2c->XferSize == 0U))
 8003cbc:	68fb      	ldr	r3, [r7, #12]
 8003cbe:	8d5b      	ldrh	r3, [r3, #42]	@ 0x2a
 8003cc0:	b29b      	uxth	r3, r3
 8003cc2:	2b00      	cmp	r3, #0
 8003cc4:	d034      	beq.n	8003d30 <HAL_I2C_Mem_Write+0x1c8>
 8003cc6:	68fb      	ldr	r3, [r7, #12]
 8003cc8:	8d1b      	ldrh	r3, [r3, #40]	@ 0x28
 8003cca:	2b00      	cmp	r3, #0
 8003ccc:	d130      	bne.n	8003d30 <HAL_I2C_Mem_Write+0x1c8>
      {
        /* Wait until TCR flag is set */
        if (I2C_WaitOnFlagUntilTimeout(hi2c, I2C_FLAG_TCR, RESET, Timeout, tickstart) != HAL_OK)
 8003cce:	697b      	ldr	r3, [r7, #20]
 8003cd0:	9300      	str	r3, [sp, #0]
 8003cd2:	6abb      	ldr	r3, [r7, #40]	@ 0x28
 8003cd4:	2200      	movs	r2, #0
 8003cd6:	2180      	movs	r1, #128	@ 0x80
 8003cd8:	68f8      	ldr	r0, [r7, #12]
 8003cda:	f000 fa3f 	bl	800415c <I2C_WaitOnFlagUntilTimeout>
 8003cde:	4603      	mov	r3, r0
 8003ce0:	2b00      	cmp	r3, #0
 8003ce2:	d001      	beq.n	8003ce8 <HAL_I2C_Mem_Write+0x180>
        {
          return HAL_ERROR;
 8003ce4:	2301      	movs	r3, #1
 8003ce6:	e04d      	b.n	8003d84 <HAL_I2C_Mem_Write+0x21c>
        }

        if (hi2c->XferCount > MAX_NBYTE_SIZE)
 8003ce8:	68fb      	ldr	r3, [r7, #12]
 8003cea:	8d5b      	ldrh	r3, [r3, #42]	@ 0x2a
 8003cec:	b29b      	uxth	r3, r3
 8003cee:	2bff      	cmp	r3, #255	@ 0xff
 8003cf0:	d90e      	bls.n	8003d10 <HAL_I2C_Mem_Write+0x1a8>
        {
          hi2c->XferSize = MAX_NBYTE_SIZE;
 8003cf2:	68fb      	ldr	r3, [r7, #12]
 8003cf4:	22ff      	movs	r2, #255	@ 0xff
 8003cf6:	851a      	strh	r2, [r3, #40]	@ 0x28
          I2C_TransferConfig(hi2c, DevAddress, (uint8_t)hi2c->XferSize, I2C_RELOAD_MODE,
 8003cf8:	68fb      	ldr	r3, [r7, #12]
 8003cfa:	8d1b      	ldrh	r3, [r3, #40]	@ 0x28
 8003cfc:	b2da      	uxtb	r2, r3
 8003cfe:	8979      	ldrh	r1, [r7, #10]
 8003d00:	2300      	movs	r3, #0
 8003d02:	9300      	str	r3, [sp, #0]
 8003d04:	f04f 7380 	mov.w	r3, #16777216	@ 0x1000000
 8003d08:	68f8      	ldr	r0, [r7, #12]
 8003d0a:	f000 fbeb 	bl	80044e4 <I2C_TransferConfig>
 8003d0e:	e00f      	b.n	8003d30 <HAL_I2C_Mem_Write+0x1c8>
                             I2C_NO_STARTSTOP);
        }
        else
        {
          hi2c->XferSize = hi2c->XferCount;
 8003d10:	68fb      	ldr	r3, [r7, #12]
 8003d12:	8d5b      	ldrh	r3, [r3, #42]	@ 0x2a
 8003d14:	b29a      	uxth	r2, r3
 8003d16:	68fb      	ldr	r3, [r7, #12]
 8003d18:	851a      	strh	r2, [r3, #40]	@ 0x28
          I2C_TransferConfig(hi2c, DevAddress, (uint8_t)hi2c->XferSize, I2C_AUTOEND_MODE,
 8003d1a:	68fb      	ldr	r3, [r7, #12]
 8003d1c:	8d1b      	ldrh	r3, [r3, #40]	@ 0x28
 8003d1e:	b2da      	uxtb	r2, r3
 8003d20:	8979      	ldrh	r1, [r7, #10]
 8003d22:	2300      	movs	r3, #0
 8003d24:	9300      	str	r3, [sp, #0]
 8003d26:	f04f 7300 	mov.w	r3, #33554432	@ 0x2000000
 8003d2a:	68f8      	ldr	r0, [r7, #12]
 8003d2c:	f000 fbda 	bl	80044e4 <I2C_TransferConfig>
                             I2C_NO_STARTSTOP);
        }
      }

    } while (hi2c->XferCount > 0U);
 8003d30:	68fb      	ldr	r3, [r7, #12]
 8003d32:	8d5b      	ldrh	r3, [r3, #42]	@ 0x2a
 8003d34:	b29b      	uxth	r3, r3
 8003d36:	2b00      	cmp	r3, #0
 8003d38:	d19e      	bne.n	8003c78 <HAL_I2C_Mem_Write+0x110>

    /* No need to Check TC flag, with AUTOEND mode the stop is automatically generated */
    /* Wait until STOPF flag is reset */
    if (I2C_WaitOnSTOPFlagUntilTimeout(hi2c, Timeout, tickstart) != HAL_OK)
 8003d3a:	697a      	ldr	r2, [r7, #20]
 8003d3c:	6ab9      	ldr	r1, [r7, #40]	@ 0x28
 8003d3e:	68f8      	ldr	r0, [r7, #12]
 8003d40:	f000 faac 	bl	800429c <I2C_WaitOnSTOPFlagUntilTimeout>
 8003d44:	4603      	mov	r3, r0
 8003d46:	2b00      	cmp	r3, #0
 8003d48:	d001      	beq.n	8003d4e <HAL_I2C_Mem_Write+0x1e6>
    {
      return HAL_ERROR;
 8003d4a:	2301      	movs	r3, #1
 8003d4c:	e01a      	b.n	8003d84 <HAL_I2C_Mem_Write+0x21c>
    }

    /* Clear STOP Flag */
    __HAL_I2C_CLEAR_FLAG(hi2c, I2C_FLAG_STOPF);
 8003d4e:	68fb      	ldr	r3, [r7, #12]
 8003d50:	681b      	ldr	r3, [r3, #0]
 8003d52:	2220      	movs	r2, #32
 8003d54:	61da      	str	r2, [r3, #28]

    /* Clear Configuration Register 2 */
    I2C_RESET_CR2(hi2c);
 8003d56:	68fb      	ldr	r3, [r7, #12]
 8003d58:	681b      	ldr	r3, [r3, #0]
 8003d5a:	6859      	ldr	r1, [r3, #4]
 8003d5c:	68fb      	ldr	r3, [r7, #12]
 8003d5e:	681a      	ldr	r2, [r3, #0]
 8003d60:	4b0a      	ldr	r3, [pc, #40]	@ (8003d8c <HAL_I2C_Mem_Write+0x224>)
 8003d62:	400b      	ands	r3, r1
 8003d64:	6053      	str	r3, [r2, #4]

    hi2c->State = HAL_I2C_STATE_READY;
 8003d66:	68fb      	ldr	r3, [r7, #12]
 8003d68:	2220      	movs	r2, #32
 8003d6a:	f883 2041 	strb.w	r2, [r3, #65]	@ 0x41
    hi2c->Mode  = HAL_I2C_MODE_NONE;
 8003d6e:	68fb      	ldr	r3, [r7, #12]
 8003d70:	2200      	movs	r2, #0
 8003d72:	f883 2042 	strb.w	r2, [r3, #66]	@ 0x42

    /* Process Unlocked */
    __HAL_UNLOCK(hi2c);
 8003d76:	68fb      	ldr	r3, [r7, #12]
 8003d78:	2200      	movs	r2, #0
 8003d7a:	f883 2040 	strb.w	r2, [r3, #64]	@ 0x40

    return HAL_OK;
 8003d7e:	2300      	movs	r3, #0
 8003d80:	e000      	b.n	8003d84 <HAL_I2C_Mem_Write+0x21c>
  }
  else
  {
    return HAL_BUSY;
 8003d82:	2302      	movs	r3, #2
  }
}
 8003d84:	4618      	mov	r0, r3
 8003d86:	3718      	adds	r7, #24
 8003d88:	46bd      	mov	sp, r7
 8003d8a:	bd80      	pop	{r7, pc}
 8003d8c:	fe00e800 	.word	0xfe00e800

08003d90 <HAL_I2C_Mem_Read>:
  * @param  Timeout Timeout duration
  * @retval HAL status
  */
HAL_StatusTypeDef HAL_I2C_Mem_Read(I2C_HandleTypeDef *hi2c, uint16_t DevAddress, uint16_t MemAddress,
                                   uint16_t MemAddSize, uint8_t *pData, uint16_t Size, uint32_t Timeout)
{
 8003d90:	b580      	push	{r7, lr}
 8003d92:	b088      	sub	sp, #32
 8003d94:	af02      	add	r7, sp, #8
 8003d96:	60f8      	str	r0, [r7, #12]
 8003d98:	4608      	mov	r0, r1
 8003d9a:	4611      	mov	r1, r2
 8003d9c:	461a      	mov	r2, r3
 8003d9e:	4603      	mov	r3, r0
 8003da0:	817b      	strh	r3, [r7, #10]
 8003da2:	460b      	mov	r3, r1
 8003da4:	813b      	strh	r3, [r7, #8]
 8003da6:	4613      	mov	r3, r2
 8003da8:	80fb      	strh	r3, [r7, #6]
  uint32_t tickstart;

  /* Check the parameters */
  assert_param(IS_I2C_MEMADD_SIZE(MemAddSize));

  if (hi2c->State == HAL_I2C_STATE_READY)
 8003daa:	68fb      	ldr	r3, [r7, #12]
 8003dac:	f893 3041 	ldrb.w	r3, [r3, #65]	@ 0x41
 8003db0:	b2db      	uxtb	r3, r3
 8003db2:	2b20      	cmp	r3, #32
 8003db4:	f040 80fd 	bne.w	8003fb2 <HAL_I2C_Mem_Read+0x222>
  {
    if ((pData == NULL) || (Size == 0U))
 8003db8:	6a3b      	ldr	r3, [r7, #32]
 8003dba:	2b00      	cmp	r3, #0
 8003dbc:	d002      	beq.n	8003dc4 <HAL_I2C_Mem_Read+0x34>
 8003dbe:	8cbb      	ldrh	r3, [r7, #36]	@ 0x24
 8003dc0:	2b00      	cmp	r3, #0
 8003dc2:	d105      	bne.n	8003dd0 <HAL_I2C_Mem_Read+0x40>
    {
      hi2c->ErrorCode = HAL_I2C_ERROR_INVALID_PARAM;
 8003dc4:	68fb      	ldr	r3, [r7, #12]
 8003dc6:	f44f 7200 	mov.w	r2, #512	@ 0x200
 8003dca:	645a      	str	r2, [r3, #68]	@ 0x44
      return  HAL_ERROR;
 8003dcc:	2301      	movs	r3, #1
 8003dce:	e0f1      	b.n	8003fb4 <HAL_I2C_Mem_Read+0x224>
    }

    /* Process Locked */
    __HAL_LOCK(hi2c);
 8003dd0:	68fb      	ldr	r3, [r7, #12]
 8003dd2:	f893 3040 	ldrb.w	r3, [r3, #64]	@ 0x40
 8003dd6:	2b01      	cmp	r3, #1
 8003dd8:	d101      	bne.n	8003dde <HAL_I2C_Mem_Read+0x4e>
 8003dda:	2302      	movs	r3, #2
 8003ddc:	e0ea      	b.n	8003fb4 <HAL_I2C_Mem_Read+0x224>
 8003dde:	68fb      	ldr	r3, [r7, #12]
 8003de0:	2201      	movs	r2, #1
 8003de2:	f883 2040 	strb.w	r2, [r3, #64]	@ 0x40

    /* Init tickstart for timeout management*/
    tickstart = HAL_GetTick();
 8003de6:	f7fe fe1b 	bl	8002a20 <HAL_GetTick>
 8003dea:	6178      	str	r0, [r7, #20]

    if (I2C_WaitOnFlagUntilTimeout(hi2c, I2C_FLAG_BUSY, SET, I2C_TIMEOUT_BUSY, tickstart) != HAL_OK)
 8003dec:	697b      	ldr	r3, [r7, #20]
 8003dee:	9300      	str	r3, [sp, #0]
 8003df0:	2319      	movs	r3, #25
 8003df2:	2201      	movs	r2, #1
 8003df4:	f44f 4100 	mov.w	r1, #32768	@ 0x8000
 8003df8:	68f8      	ldr	r0, [r7, #12]
 8003dfa:	f000 f9af 	bl	800415c <I2C_WaitOnFlagUntilTimeout>
 8003dfe:	4603      	mov	r3, r0
 8003e00:	2b00      	cmp	r3, #0
 8003e02:	d001      	beq.n	8003e08 <HAL_I2C_Mem_Read+0x78>
    {
      return HAL_ERROR;
 8003e04:	2301      	movs	r3, #1
 8003e06:	e0d5      	b.n	8003fb4 <HAL_I2C_Mem_Read+0x224>
    }

    hi2c->State     = HAL_I2C_STATE_BUSY_RX;
 8003e08:	68fb      	ldr	r3, [r7, #12]
 8003e0a:	2222      	movs	r2, #34	@ 0x22
 8003e0c:	f883 2041 	strb.w	r2, [r3, #65]	@ 0x41
    hi2c->Mode      = HAL_I2C_MODE_MEM;
 8003e10:	68fb      	ldr	r3, [r7, #12]
 8003e12:	2240      	movs	r2, #64	@ 0x40
 8003e14:	f883 2042 	strb.w	r2, [r3, #66]	@ 0x42
    hi2c->ErrorCode = HAL_I2C_ERROR_NONE;
 8003e18:	68fb      	ldr	r3, [r7, #12]
 8003e1a:	2200      	movs	r2, #0
 8003e1c:	645a      	str	r2, [r3, #68]	@ 0x44

    /* Prepare transfer parameters */
    hi2c->pBuffPtr  = pData;
 8003e1e:	68fb      	ldr	r3, [r7, #12]
 8003e20:	6a3a      	ldr	r2, [r7, #32]
 8003e22:	625a      	str	r2, [r3, #36]	@ 0x24
    hi2c->XferCount = Size;
 8003e24:	68fb      	ldr	r3, [r7, #12]
 8003e26:	8cba      	ldrh	r2, [r7, #36]	@ 0x24
 8003e28:	855a      	strh	r2, [r3, #42]	@ 0x2a
    hi2c->XferISR   = NULL;
 8003e2a:	68fb      	ldr	r3, [r7, #12]
 8003e2c:	2200      	movs	r2, #0
 8003e2e:	635a      	str	r2, [r3, #52]	@ 0x34

    /* Send Slave Address and Memory Address */
    if (I2C_RequestMemoryRead(hi2c, DevAddress, MemAddress, MemAddSize, Timeout, tickstart) != HAL_OK)
 8003e30:	88f8      	ldrh	r0, [r7, #6]
 8003e32:	893a      	ldrh	r2, [r7, #8]
 8003e34:	8979      	ldrh	r1, [r7, #10]
 8003e36:	697b      	ldr	r3, [r7, #20]
 8003e38:	9301      	str	r3, [sp, #4]
 8003e3a:	6abb      	ldr	r3, [r7, #40]	@ 0x28
 8003e3c:	9300      	str	r3, [sp, #0]
 8003e3e:	4603      	mov	r3, r0
 8003e40:	68f8      	ldr	r0, [r7, #12]
 8003e42:	f000 f913 	bl	800406c <I2C_RequestMemoryRead>
 8003e46:	4603      	mov	r3, r0
 8003e48:	2b00      	cmp	r3, #0
 8003e4a:	d005      	beq.n	8003e58 <HAL_I2C_Mem_Read+0xc8>
    {
      /* Process Unlocked */
      __HAL_UNLOCK(hi2c);
 8003e4c:	68fb      	ldr	r3, [r7, #12]
 8003e4e:	2200      	movs	r2, #0
 8003e50:	f883 2040 	strb.w	r2, [r3, #64]	@ 0x40
      return HAL_ERROR;
 8003e54:	2301      	movs	r3, #1
 8003e56:	e0ad      	b.n	8003fb4 <HAL_I2C_Mem_Read+0x224>
    }

    /* Send Slave Address */
    /* Set NBYTES to write and reload if hi2c->XferCount > MAX_NBYTE_SIZE and generate RESTART */
    if (hi2c->XferCount > MAX_NBYTE_SIZE)
 8003e58:	68fb      	ldr	r3, [r7, #12]
 8003e5a:	8d5b      	ldrh	r3, [r3, #42]	@ 0x2a
 8003e5c:	b29b      	uxth	r3, r3
 8003e5e:	2bff      	cmp	r3, #255	@ 0xff
 8003e60:	d90e      	bls.n	8003e80 <HAL_I2C_Mem_Read+0xf0>
    {
      hi2c->XferSize = 1U;
 8003e62:	68fb      	ldr	r3, [r7, #12]
 8003e64:	2201      	movs	r2, #1
 8003e66:	851a      	strh	r2, [r3, #40]	@ 0x28
      I2C_TransferConfig(hi2c, DevAddress, (uint8_t)hi2c->XferSize, I2C_RELOAD_MODE,
 8003e68:	68fb      	ldr	r3, [r7, #12]
 8003e6a:	8d1b      	ldrh	r3, [r3, #40]	@ 0x28
 8003e6c:	b2da      	uxtb	r2, r3
 8003e6e:	8979      	ldrh	r1, [r7, #10]
 8003e70:	4b52      	ldr	r3, [pc, #328]	@ (8003fbc <HAL_I2C_Mem_Read+0x22c>)
 8003e72:	9300      	str	r3, [sp, #0]
 8003e74:	f04f 7380 	mov.w	r3, #16777216	@ 0x1000000
 8003e78:	68f8      	ldr	r0, [r7, #12]
 8003e7a:	f000 fb33 	bl	80044e4 <I2C_TransferConfig>
 8003e7e:	e00f      	b.n	8003ea0 <HAL_I2C_Mem_Read+0x110>
                         I2C_GENERATE_START_READ);
    }
    else
    {
      hi2c->XferSize = hi2c->XferCount;
 8003e80:	68fb      	ldr	r3, [r7, #12]
 8003e82:	8d5b      	ldrh	r3, [r3, #42]	@ 0x2a
 8003e84:	b29a      	uxth	r2, r3
 8003e86:	68fb      	ldr	r3, [r7, #12]
 8003e88:	851a      	strh	r2, [r3, #40]	@ 0x28
      I2C_TransferConfig(hi2c, DevAddress, (uint8_t)hi2c->XferSize, I2C_AUTOEND_MODE,
 8003e8a:	68fb      	ldr	r3, [r7, #12]
 8003e8c:	8d1b      	ldrh	r3, [r3, #40]	@ 0x28
 8003e8e:	b2da      	uxtb	r2, r3
 8003e90:	8979      	ldrh	r1, [r7, #10]
 8003e92:	4b4a      	ldr	r3, [pc, #296]	@ (8003fbc <HAL_I2C_Mem_Read+0x22c>)
 8003e94:	9300      	str	r3, [sp, #0]
 8003e96:	f04f 7300 	mov.w	r3, #33554432	@ 0x2000000
 8003e9a:	68f8      	ldr	r0, [r7, #12]
 8003e9c:	f000 fb22 	bl	80044e4 <I2C_TransferConfig>
    }

    do
    {
      /* Wait until RXNE flag is set */
      if (I2C_WaitOnFlagUntilTimeout(hi2c, I2C_FLAG_RXNE, RESET, Timeout, tickstart) != HAL_OK)
 8003ea0:	697b      	ldr	r3, [r7, #20]
 8003ea2:	9300      	str	r3, [sp, #0]
 8003ea4:	6abb      	ldr	r3, [r7, #40]	@ 0x28
 8003ea6:	2200      	movs	r2, #0
 8003ea8:	2104      	movs	r1, #4
 8003eaa:	68f8      	ldr	r0, [r7, #12]
 8003eac:	f000 f956 	bl	800415c <I2C_WaitOnFlagUntilTimeout>
 8003eb0:	4603      	mov	r3, r0
 8003eb2:	2b00      	cmp	r3, #0
 8003eb4:	d001      	beq.n	8003eba <HAL_I2C_Mem_Read+0x12a>
      {
        return HAL_ERROR;
 8003eb6:	2301      	movs	r3, #1
 8003eb8:	e07c      	b.n	8003fb4 <HAL_I2C_Mem_Read+0x224>
      }

      /* Read data from RXDR */
      *hi2c->pBuffPtr = (uint8_t)hi2c->Instance->RXDR;
 8003eba:	68fb      	ldr	r3, [r7, #12]
 8003ebc:	681b      	ldr	r3, [r3, #0]
 8003ebe:	6a5a      	ldr	r2, [r3, #36]	@ 0x24
 8003ec0:	68fb      	ldr	r3, [r7, #12]
 8003ec2:	6a5b      	ldr	r3, [r3, #36]	@ 0x24
 8003ec4:	b2d2      	uxtb	r2, r2
 8003ec6:	701a      	strb	r2, [r3, #0]

      /* Increment Buffer pointer */
      hi2c->pBuffPtr++;
 8003ec8:	68fb      	ldr	r3, [r7, #12]
 8003eca:	6a5b      	ldr	r3, [r3, #36]	@ 0x24
 8003ecc:	1c5a      	adds	r2, r3, #1
 8003ece:	68fb      	ldr	r3, [r7, #12]
 8003ed0:	625a      	str	r2, [r3, #36]	@ 0x24

      hi2c->XferSize--;
 8003ed2:	68fb      	ldr	r3, [r7, #12]
 8003ed4:	8d1b      	ldrh	r3, [r3, #40]	@ 0x28
 8003ed6:	3b01      	subs	r3, #1
 8003ed8:	b29a      	uxth	r2, r3
 8003eda:	68fb      	ldr	r3, [r7, #12]
 8003edc:	851a      	strh	r2, [r3, #40]	@ 0x28
      hi2c->XferCount--;
 8003ede:	68fb      	ldr	r3, [r7, #12]
 8003ee0:	8d5b      	ldrh	r3, [r3, #42]	@ 0x2a
 8003ee2:	b29b      	uxth	r3, r3
 8003ee4:	3b01      	subs	r3, #1
 8003ee6:	b29a      	uxth	r2, r3
 8003ee8:	68fb      	ldr	r3, [r7, #12]
 8003eea:	855a      	strh	r2, [r3, #42]	@ 0x2a

      if ((hi2c->XferCount != 0U) && (hi2c->XferSize == 0U))
 8003eec:	68fb      	ldr	r3, [r7, #12]
 8003eee:	8d5b      	ldrh	r3, [r3, #42]	@ 0x2a
 8003ef0:	b29b      	uxth	r3, r3
 8003ef2:	2b00      	cmp	r3, #0
 8003ef4:	d034      	beq.n	8003f60 <HAL_I2C_Mem_Read+0x1d0>
 8003ef6:	68fb      	ldr	r3, [r7, #12]
 8003ef8:	8d1b      	ldrh	r3, [r3, #40]	@ 0x28
 8003efa:	2b00      	cmp	r3, #0
 8003efc:	d130      	bne.n	8003f60 <HAL_I2C_Mem_Read+0x1d0>
      {
        /* Wait until TCR flag is set */
        if (I2C_WaitOnFlagUntilTimeout(hi2c, I2C_FLAG_TCR, RESET, Timeout, tickstart) != HAL_OK)
 8003efe:	697b      	ldr	r3, [r7, #20]
 8003f00:	9300      	str	r3, [sp, #0]
 8003f02:	6abb      	ldr	r3, [r7, #40]	@ 0x28
 8003f04:	2200      	movs	r2, #0
 8003f06:	2180      	movs	r1, #128	@ 0x80
 8003f08:	68f8      	ldr	r0, [r7, #12]
 8003f0a:	f000 f927 	bl	800415c <I2C_WaitOnFlagUntilTimeout>
 8003f0e:	4603      	mov	r3, r0
 8003f10:	2b00      	cmp	r3, #0
 8003f12:	d001      	beq.n	8003f18 <HAL_I2C_Mem_Read+0x188>
        {
          return HAL_ERROR;
 8003f14:	2301      	movs	r3, #1
 8003f16:	e04d      	b.n	8003fb4 <HAL_I2C_Mem_Read+0x224>
        }

        if (hi2c->XferCount > MAX_NBYTE_SIZE)
 8003f18:	68fb      	ldr	r3, [r7, #12]
 8003f1a:	8d5b      	ldrh	r3, [r3, #42]	@ 0x2a
 8003f1c:	b29b      	uxth	r3, r3
 8003f1e:	2bff      	cmp	r3, #255	@ 0xff
 8003f20:	d90e      	bls.n	8003f40 <HAL_I2C_Mem_Read+0x1b0>
        {
          hi2c->XferSize = 1U;
 8003f22:	68fb      	ldr	r3, [r7, #12]
 8003f24:	2201      	movs	r2, #1
 8003f26:	851a      	strh	r2, [r3, #40]	@ 0x28
          I2C_TransferConfig(hi2c, DevAddress, (uint8_t) hi2c->XferSize, I2C_RELOAD_MODE,
 8003f28:	68fb      	ldr	r3, [r7, #12]
 8003f2a:	8d1b      	ldrh	r3, [r3, #40]	@ 0x28
 8003f2c:	b2da      	uxtb	r2, r3
 8003f2e:	8979      	ldrh	r1, [r7, #10]
 8003f30:	2300      	movs	r3, #0
 8003f32:	9300      	str	r3, [sp, #0]
 8003f34:	f04f 7380 	mov.w	r3, #16777216	@ 0x1000000
 8003f38:	68f8      	ldr	r0, [r7, #12]
 8003f3a:	f000 fad3 	bl	80044e4 <I2C_TransferConfig>
 8003f3e:	e00f      	b.n	8003f60 <HAL_I2C_Mem_Read+0x1d0>
                             I2C_NO_STARTSTOP);
        }
        else
        {
          hi2c->XferSize = hi2c->XferCount;
 8003f40:	68fb      	ldr	r3, [r7, #12]
 8003f42:	8d5b      	ldrh	r3, [r3, #42]	@ 0x2a
 8003f44:	b29a      	uxth	r2, r3
 8003f46:	68fb      	ldr	r3, [r7, #12]
 8003f48:	851a      	strh	r2, [r3, #40]	@ 0x28
          I2C_TransferConfig(hi2c, DevAddress, (uint8_t)hi2c->XferSize, I2C_AUTOEND_MODE,
 8003f4a:	68fb      	ldr	r3, [r7, #12]
 8003f4c:	8d1b      	ldrh	r3, [r3, #40]	@ 0x28
 8003f4e:	b2da      	uxtb	r2, r3
 8003f50:	8979      	ldrh	r1, [r7, #10]
 8003f52:	2300      	movs	r3, #0
 8003f54:	9300      	str	r3, [sp, #0]
 8003f56:	f04f 7300 	mov.w	r3, #33554432	@ 0x2000000
 8003f5a:	68f8      	ldr	r0, [r7, #12]
 8003f5c:	f000 fac2 	bl	80044e4 <I2C_TransferConfig>
                             I2C_NO_STARTSTOP);
        }
      }
    } while (hi2c->XferCount > 0U);
 8003f60:	68fb      	ldr	r3, [r7, #12]
 8003f62:	8d5b      	ldrh	r3, [r3, #42]	@ 0x2a
 8003f64:	b29b      	uxth	r3, r3
 8003f66:	2b00      	cmp	r3, #0
 8003f68:	d19a      	bne.n	8003ea0 <HAL_I2C_Mem_Read+0x110>

    /* No need to Check TC flag, with AUTOEND mode the stop is automatically generated */
    /* Wait until STOPF flag is reset */
    if (I2C_WaitOnSTOPFlagUntilTimeout(hi2c, Timeout, tickstart) != HAL_OK)
 8003f6a:	697a      	ldr	r2, [r7, #20]
 8003f6c:	6ab9      	ldr	r1, [r7, #40]	@ 0x28
 8003f6e:	68f8      	ldr	r0, [r7, #12]
 8003f70:	f000 f994 	bl	800429c <I2C_WaitOnSTOPFlagUntilTimeout>
 8003f74:	4603      	mov	r3, r0
 8003f76:	2b00      	cmp	r3, #0
 8003f78:	d001      	beq.n	8003f7e <HAL_I2C_Mem_Read+0x1ee>
    {
      return HAL_ERROR;
 8003f7a:	2301      	movs	r3, #1
 8003f7c:	e01a      	b.n	8003fb4 <HAL_I2C_Mem_Read+0x224>
    }

    /* Clear STOP Flag */
    __HAL_I2C_CLEAR_FLAG(hi2c, I2C_FLAG_STOPF);
 8003f7e:	68fb      	ldr	r3, [r7, #12]
 8003f80:	681b      	ldr	r3, [r3, #0]
 8003f82:	2220      	movs	r2, #32
 8003f84:	61da      	str	r2, [r3, #28]

    /* Clear Configuration Register 2 */
    I2C_RESET_CR2(hi2c);
 8003f86:	68fb      	ldr	r3, [r7, #12]
 8003f88:	681b      	ldr	r3, [r3, #0]
 8003f8a:	6859      	ldr	r1, [r3, #4]
 8003f8c:	68fb      	ldr	r3, [r7, #12]
 8003f8e:	681a      	ldr	r2, [r3, #0]
 8003f90:	4b0b      	ldr	r3, [pc, #44]	@ (8003fc0 <HAL_I2C_Mem_Read+0x230>)
 8003f92:	400b      	ands	r3, r1
 8003f94:	6053      	str	r3, [r2, #4]

    hi2c->State = HAL_I2C_STATE_READY;
 8003f96:	68fb      	ldr	r3, [r7, #12]
 8003f98:	2220      	movs	r2, #32
 8003f9a:	f883 2041 	strb.w	r2, [r3, #65]	@ 0x41
    hi2c->Mode  = HAL_I2C_MODE_NONE;
 8003f9e:	68fb      	ldr	r3, [r7, #12]
 8003fa0:	2200      	movs	r2, #0
 8003fa2:	f883 2042 	strb.w	r2, [r3, #66]	@ 0x42

    /* Process Unlocked */
    __HAL_UNLOCK(hi2c);
 8003fa6:	68fb      	ldr	r3, [r7, #12]
 8003fa8:	2200      	movs	r2, #0
 8003faa:	f883 2040 	strb.w	r2, [r3, #64]	@ 0x40

    return HAL_OK;
 8003fae:	2300      	movs	r3, #0
 8003fb0:	e000      	b.n	8003fb4 <HAL_I2C_Mem_Read+0x224>
  }
  else
  {
    return HAL_BUSY;
 8003fb2:	2302      	movs	r3, #2
  }
}
 8003fb4:	4618      	mov	r0, r3
 8003fb6:	3718      	adds	r7, #24
 8003fb8:	46bd      	mov	sp, r7
 8003fba:	bd80      	pop	{r7, pc}
 8003fbc:	80002400 	.word	0x80002400
 8003fc0:	fe00e800 	.word	0xfe00e800

08003fc4 <I2C_RequestMemoryWrite>:
  * @retval HAL status
  */
static HAL_StatusTypeDef I2C_RequestMemoryWrite(I2C_HandleTypeDef *hi2c, uint16_t DevAddress,
                                                uint16_t MemAddress, uint16_t MemAddSize, uint32_t Timeout,
                                                uint32_t Tickstart)
{
 8003fc4:	b580      	push	{r7, lr}
 8003fc6:	b086      	sub	sp, #24
 8003fc8:	af02      	add	r7, sp, #8
 8003fca:	60f8      	str	r0, [r7, #12]
 8003fcc:	4608      	mov	r0, r1
 8003fce:	4611      	mov	r1, r2
 8003fd0:	461a      	mov	r2, r3
 8003fd2:	4603      	mov	r3, r0
 8003fd4:	817b      	strh	r3, [r7, #10]
 8003fd6:	460b      	mov	r3, r1
 8003fd8:	813b      	strh	r3, [r7, #8]
 8003fda:	4613      	mov	r3, r2
 8003fdc:	80fb      	strh	r3, [r7, #6]
  I2C_TransferConfig(hi2c, DevAddress, (uint8_t)MemAddSize, I2C_RELOAD_MODE, I2C_GENERATE_START_WRITE);
 8003fde:	88fb      	ldrh	r3, [r7, #6]
 8003fe0:	b2da      	uxtb	r2, r3
 8003fe2:	8979      	ldrh	r1, [r7, #10]
 8003fe4:	4b20      	ldr	r3, [pc, #128]	@ (8004068 <I2C_RequestMemoryWrite+0xa4>)
 8003fe6:	9300      	str	r3, [sp, #0]
 8003fe8:	f04f 7380 	mov.w	r3, #16777216	@ 0x1000000
 8003fec:	68f8      	ldr	r0, [r7, #12]
 8003fee:	f000 fa79 	bl	80044e4 <I2C_TransferConfig>

  /* Wait until TXIS flag is set */
  if (I2C_WaitOnTXISFlagUntilTimeout(hi2c, Timeout, Tickstart) != HAL_OK)
 8003ff2:	69fa      	ldr	r2, [r7, #28]
 8003ff4:	69b9      	ldr	r1, [r7, #24]
 8003ff6:	68f8      	ldr	r0, [r7, #12]
 8003ff8:	f000 f909 	bl	800420e <I2C_WaitOnTXISFlagUntilTimeout>
 8003ffc:	4603      	mov	r3, r0
 8003ffe:	2b00      	cmp	r3, #0
 8004000:	d001      	beq.n	8004006 <I2C_RequestMemoryWrite+0x42>
  {
    return HAL_ERROR;
 8004002:	2301      	movs	r3, #1
 8004004:	e02c      	b.n	8004060 <I2C_RequestMemoryWrite+0x9c>
  }

  /* If Memory address size is 8Bit */
  if (MemAddSize == I2C_MEMADD_SIZE_8BIT)
 8004006:	88fb      	ldrh	r3, [r7, #6]
 8004008:	2b01      	cmp	r3, #1
 800400a:	d105      	bne.n	8004018 <I2C_RequestMemoryWrite+0x54>
  {
    /* Send Memory Address */
    hi2c->Instance->TXDR = I2C_MEM_ADD_LSB(MemAddress);
 800400c:	893b      	ldrh	r3, [r7, #8]
 800400e:	b2da      	uxtb	r2, r3
 8004010:	68fb      	ldr	r3, [r7, #12]
 8004012:	681b      	ldr	r3, [r3, #0]
 8004014:	629a      	str	r2, [r3, #40]	@ 0x28
 8004016:	e015      	b.n	8004044 <I2C_RequestMemoryWrite+0x80>
  }
  /* If Memory address size is 16Bit */
  else
  {
    /* Send MSB of Memory Address */
    hi2c->Instance->TXDR = I2C_MEM_ADD_MSB(MemAddress);
 8004018:	893b      	ldrh	r3, [r7, #8]
 800401a:	0a1b      	lsrs	r3, r3, #8
 800401c:	b29b      	uxth	r3, r3
 800401e:	b2da      	uxtb	r2, r3
 8004020:	68fb      	ldr	r3, [r7, #12]
 8004022:	681b      	ldr	r3, [r3, #0]
 8004024:	629a      	str	r2, [r3, #40]	@ 0x28

    /* Wait until TXIS flag is set */
    if (I2C_WaitOnTXISFlagUntilTimeout(hi2c, Timeout, Tickstart) != HAL_OK)
 8004026:	69fa      	ldr	r2, [r7, #28]
 8004028:	69b9      	ldr	r1, [r7, #24]
 800402a:	68f8      	ldr	r0, [r7, #12]
 800402c:	f000 f8ef 	bl	800420e <I2C_WaitOnTXISFlagUntilTimeout>
 8004030:	4603      	mov	r3, r0
 8004032:	2b00      	cmp	r3, #0
 8004034:	d001      	beq.n	800403a <I2C_RequestMemoryWrite+0x76>
    {
      return HAL_ERROR;
 8004036:	2301      	movs	r3, #1
 8004038:	e012      	b.n	8004060 <I2C_RequestMemoryWrite+0x9c>
    }

    /* Send LSB of Memory Address */
    hi2c->Instance->TXDR = I2C_MEM_ADD_LSB(MemAddress);
 800403a:	893b      	ldrh	r3, [r7, #8]
 800403c:	b2da      	uxtb	r2, r3
 800403e:	68fb      	ldr	r3, [r7, #12]
 8004040:	681b      	ldr	r3, [r3, #0]
 8004042:	629a      	str	r2, [r3, #40]	@ 0x28
  }

  /* Wait until TCR flag is set */
  if (I2C_WaitOnFlagUntilTimeout(hi2c, I2C_FLAG_TCR, RESET, Timeout, Tickstart) != HAL_OK)
 8004044:	69fb      	ldr	r3, [r7, #28]
 8004046:	9300      	str	r3, [sp, #0]
 8004048:	69bb      	ldr	r3, [r7, #24]
 800404a:	2200      	movs	r2, #0
 800404c:	2180      	movs	r1, #128	@ 0x80
 800404e:	68f8      	ldr	r0, [r7, #12]
 8004050:	f000 f884 	bl	800415c <I2C_WaitOnFlagUntilTimeout>
 8004054:	4603      	mov	r3, r0
 8004056:	2b00      	cmp	r3, #0
 8004058:	d001      	beq.n	800405e <I2C_RequestMemoryWrite+0x9a>
  {
    return HAL_ERROR;
 800405a:	2301      	movs	r3, #1
 800405c:	e000      	b.n	8004060 <I2C_RequestMemoryWrite+0x9c>
  }

  return HAL_OK;
 800405e:	2300      	movs	r3, #0
}
 8004060:	4618      	mov	r0, r3
 8004062:	3710      	adds	r7, #16
 8004064:	46bd      	mov	sp, r7
 8004066:	bd80      	pop	{r7, pc}
 8004068:	80002000 	.word	0x80002000

0800406c <I2C_RequestMemoryRead>:
  * @retval HAL status
  */
static HAL_StatusTypeDef I2C_RequestMemoryRead(I2C_HandleTypeDef *hi2c, uint16_t DevAddress,
                                               uint16_t MemAddress, uint16_t MemAddSize, uint32_t Timeout,
                                               uint32_t Tickstart)
{
 800406c:	b580      	push	{r7, lr}
 800406e:	b086      	sub	sp, #24
 8004070:	af02      	add	r7, sp, #8
 8004072:	60f8      	str	r0, [r7, #12]
 8004074:	4608      	mov	r0, r1
 8004076:	4611      	mov	r1, r2
 8004078:	461a      	mov	r2, r3
 800407a:	4603      	mov	r3, r0
 800407c:	817b      	strh	r3, [r7, #10]
 800407e:	460b      	mov	r3, r1
 8004080:	813b      	strh	r3, [r7, #8]
 8004082:	4613      	mov	r3, r2
 8004084:	80fb      	strh	r3, [r7, #6]
  I2C_TransferConfig(hi2c, DevAddress, (uint8_t)MemAddSize, I2C_SOFTEND_MODE, I2C_GENERATE_START_WRITE);
 8004086:	88fb      	ldrh	r3, [r7, #6]
 8004088:	b2da      	uxtb	r2, r3
 800408a:	8979      	ldrh	r1, [r7, #10]
 800408c:	4b20      	ldr	r3, [pc, #128]	@ (8004110 <I2C_RequestMemoryRead+0xa4>)
 800408e:	9300      	str	r3, [sp, #0]
 8004090:	2300      	movs	r3, #0
 8004092:	68f8      	ldr	r0, [r7, #12]
 8004094:	f000 fa26 	bl	80044e4 <I2C_TransferConfig>

  /* Wait until TXIS flag is set */
  if (I2C_WaitOnTXISFlagUntilTimeout(hi2c, Timeout, Tickstart) != HAL_OK)
 8004098:	69fa      	ldr	r2, [r7, #28]
 800409a:	69b9      	ldr	r1, [r7, #24]
 800409c:	68f8      	ldr	r0, [r7, #12]
 800409e:	f000 f8b6 	bl	800420e <I2C_WaitOnTXISFlagUntilTimeout>
 80040a2:	4603      	mov	r3, r0
 80040a4:	2b00      	cmp	r3, #0
 80040a6:	d001      	beq.n	80040ac <I2C_RequestMemoryRead+0x40>
  {
    return HAL_ERROR;
 80040a8:	2301      	movs	r3, #1
 80040aa:	e02c      	b.n	8004106 <I2C_RequestMemoryRead+0x9a>
  }

  /* If Memory address size is 8Bit */
  if (MemAddSize == I2C_MEMADD_SIZE_8BIT)
 80040ac:	88fb      	ldrh	r3, [r7, #6]
 80040ae:	2b01      	cmp	r3, #1
 80040b0:	d105      	bne.n	80040be <I2C_RequestMemoryRead+0x52>
  {
    /* Send Memory Address */
    hi2c->Instance->TXDR = I2C_MEM_ADD_LSB(MemAddress);
 80040b2:	893b      	ldrh	r3, [r7, #8]
 80040b4:	b2da      	uxtb	r2, r3
 80040b6:	68fb      	ldr	r3, [r7, #12]
 80040b8:	681b      	ldr	r3, [r3, #0]
 80040ba:	629a      	str	r2, [r3, #40]	@ 0x28
 80040bc:	e015      	b.n	80040ea <I2C_RequestMemoryRead+0x7e>
  }
  /* If Memory address size is 16Bit */
  else
  {
    /* Send MSB of Memory Address */
    hi2c->Instance->TXDR = I2C_MEM_ADD_MSB(MemAddress);
 80040be:	893b      	ldrh	r3, [r7, #8]
 80040c0:	0a1b      	lsrs	r3, r3, #8
 80040c2:	b29b      	uxth	r3, r3
 80040c4:	b2da      	uxtb	r2, r3
 80040c6:	68fb      	ldr	r3, [r7, #12]
 80040c8:	681b      	ldr	r3, [r3, #0]
 80040ca:	629a      	str	r2, [r3, #40]	@ 0x28

    /* Wait until TXIS flag is set */
    if (I2C_WaitOnTXISFlagUntilTimeout(hi2c, Timeout, Tickstart) != HAL_OK)
 80040cc:	69fa      	ldr	r2, [r7, #28]
 80040ce:	69b9      	ldr	r1, [r7, #24]
 80040d0:	68f8      	ldr	r0, [r7, #12]
 80040d2:	f000 f89c 	bl	800420e <I2C_WaitOnTXISFlagUntilTimeout>
 80040d6:	4603      	mov	r3, r0
 80040d8:	2b00      	cmp	r3, #0
 80040da:	d001      	beq.n	80040e0 <I2C_RequestMemoryRead+0x74>
    {
      return HAL_ERROR;
 80040dc:	2301      	movs	r3, #1
 80040de:	e012      	b.n	8004106 <I2C_RequestMemoryRead+0x9a>
    }

    /* Send LSB of Memory Address */
    hi2c->Instance->TXDR = I2C_MEM_ADD_LSB(MemAddress);
 80040e0:	893b      	ldrh	r3, [r7, #8]
 80040e2:	b2da      	uxtb	r2, r3
 80040e4:	68fb      	ldr	r3, [r7, #12]
 80040e6:	681b      	ldr	r3, [r3, #0]
 80040e8:	629a      	str	r2, [r3, #40]	@ 0x28
  }

  /* Wait until TC flag is set */
  if (I2C_WaitOnFlagUntilTimeout(hi2c, I2C_FLAG_TC, RESET, Timeout, Tickstart) != HAL_OK)
 80040ea:	69fb      	ldr	r3, [r7, #28]
 80040ec:	9300      	str	r3, [sp, #0]
 80040ee:	69bb      	ldr	r3, [r7, #24]
 80040f0:	2200      	movs	r2, #0
 80040f2:	2140      	movs	r1, #64	@ 0x40
 80040f4:	68f8      	ldr	r0, [r7, #12]
 80040f6:	f000 f831 	bl	800415c <I2C_WaitOnFlagUntilTimeout>
 80040fa:	4603      	mov	r3, r0
 80040fc:	2b00      	cmp	r3, #0
 80040fe:	d001      	beq.n	8004104 <I2C_RequestMemoryRead+0x98>
  {
    return HAL_ERROR;
 8004100:	2301      	movs	r3, #1
 8004102:	e000      	b.n	8004106 <I2C_RequestMemoryRead+0x9a>
  }

  return HAL_OK;
 8004104:	2300      	movs	r3, #0
}
 8004106:	4618      	mov	r0, r3
 8004108:	3710      	adds	r7, #16
 800410a:	46bd      	mov	sp, r7
 800410c:	bd80      	pop	{r7, pc}
 800410e:	bf00      	nop
 8004110:	80002000 	.word	0x80002000

08004114 <I2C_Flush_TXDR>:
  * @brief  I2C Tx data register flush process.
  * @param  hi2c I2C handle.
  * @retval None
  */
static void I2C_Flush_TXDR(I2C_HandleTypeDef *hi2c)
{
 8004114:	b480      	push	{r7}
 8004116:	b083      	sub	sp, #12
 8004118:	af00      	add	r7, sp, #0
 800411a:	6078      	str	r0, [r7, #4]
  /* If a pending TXIS flag is set */
  /* Write a dummy data in TXDR to clear it */
  if (__HAL_I2C_GET_FLAG(hi2c, I2C_FLAG_TXIS) != RESET)
 800411c:	687b      	ldr	r3, [r7, #4]
 800411e:	681b      	ldr	r3, [r3, #0]
 8004120:	699b      	ldr	r3, [r3, #24]
 8004122:	f003 0302 	and.w	r3, r3, #2
 8004126:	2b02      	cmp	r3, #2
 8004128:	d103      	bne.n	8004132 <I2C_Flush_TXDR+0x1e>
  {
    hi2c->Instance->TXDR = 0x00U;
 800412a:	687b      	ldr	r3, [r7, #4]
 800412c:	681b      	ldr	r3, [r3, #0]
 800412e:	2200      	movs	r2, #0
 8004130:	629a      	str	r2, [r3, #40]	@ 0x28
  }

  /* Flush TX register if not empty */
  if (__HAL_I2C_GET_FLAG(hi2c, I2C_FLAG_TXE) == RESET)
 8004132:	687b      	ldr	r3, [r7, #4]
 8004134:	681b      	ldr	r3, [r3, #0]
 8004136:	699b      	ldr	r3, [r3, #24]
 8004138:	f003 0301 	and.w	r3, r3, #1
 800413c:	2b01      	cmp	r3, #1
 800413e:	d007      	beq.n	8004150 <I2C_Flush_TXDR+0x3c>
  {
    __HAL_I2C_CLEAR_FLAG(hi2c, I2C_FLAG_TXE);
 8004140:	687b      	ldr	r3, [r7, #4]
 8004142:	681b      	ldr	r3, [r3, #0]
 8004144:	699a      	ldr	r2, [r3, #24]
 8004146:	687b      	ldr	r3, [r7, #4]
 8004148:	681b      	ldr	r3, [r3, #0]
 800414a:	f042 0201 	orr.w	r2, r2, #1
 800414e:	619a      	str	r2, [r3, #24]
  }
}
 8004150:	bf00      	nop
 8004152:	370c      	adds	r7, #12
 8004154:	46bd      	mov	sp, r7
 8004156:	f85d 7b04 	ldr.w	r7, [sp], #4
 800415a:	4770      	bx	lr

0800415c <I2C_WaitOnFlagUntilTimeout>:
  * @param  Tickstart Tick start value
  * @retval HAL status
  */
static HAL_StatusTypeDef I2C_WaitOnFlagUntilTimeout(I2C_HandleTypeDef *hi2c, uint32_t Flag, FlagStatus Status,
                                                    uint32_t Timeout, uint32_t Tickstart)
{
 800415c:	b580      	push	{r7, lr}
 800415e:	b084      	sub	sp, #16
 8004160:	af00      	add	r7, sp, #0
 8004162:	60f8      	str	r0, [r7, #12]
 8004164:	60b9      	str	r1, [r7, #8]
 8004166:	603b      	str	r3, [r7, #0]
 8004168:	4613      	mov	r3, r2
 800416a:	71fb      	strb	r3, [r7, #7]
  while (__HAL_I2C_GET_FLAG(hi2c, Flag) == Status)
 800416c:	e03b      	b.n	80041e6 <I2C_WaitOnFlagUntilTimeout+0x8a>
  {
    /* Check if an error is detected */
    if (I2C_IsErrorOccurred(hi2c, Timeout, Tickstart) != HAL_OK)
 800416e:	69ba      	ldr	r2, [r7, #24]
 8004170:	6839      	ldr	r1, [r7, #0]
 8004172:	68f8      	ldr	r0, [r7, #12]
 8004174:	f000 f8d6 	bl	8004324 <I2C_IsErrorOccurred>
 8004178:	4603      	mov	r3, r0
 800417a:	2b00      	cmp	r3, #0
 800417c:	d001      	beq.n	8004182 <I2C_WaitOnFlagUntilTimeout+0x26>
    {
      return HAL_ERROR;
 800417e:	2301      	movs	r3, #1
 8004180:	e041      	b.n	8004206 <I2C_WaitOnFlagUntilTimeout+0xaa>
    }

    /* Check for the Timeout */
    if (Timeout != HAL_MAX_DELAY)
 8004182:	683b      	ldr	r3, [r7, #0]
 8004184:	f1b3 3fff 	cmp.w	r3, #4294967295
 8004188:	d02d      	beq.n	80041e6 <I2C_WaitOnFlagUntilTimeout+0x8a>
    {
      if (((HAL_GetTick() - Tickstart) > Timeout) || (Timeout == 0U))
 800418a:	f7fe fc49 	bl	8002a20 <HAL_GetTick>
 800418e:	4602      	mov	r2, r0
 8004190:	69bb      	ldr	r3, [r7, #24]
 8004192:	1ad3      	subs	r3, r2, r3
 8004194:	683a      	ldr	r2, [r7, #0]
 8004196:	429a      	cmp	r2, r3
 8004198:	d302      	bcc.n	80041a0 <I2C_WaitOnFlagUntilTimeout+0x44>
 800419a:	683b      	ldr	r3, [r7, #0]
 800419c:	2b00      	cmp	r3, #0
 800419e:	d122      	bne.n	80041e6 <I2C_WaitOnFlagUntilTimeout+0x8a>
      {
        if (__HAL_I2C_GET_FLAG(hi2c, Flag) == Status)
 80041a0:	68fb      	ldr	r3, [r7, #12]
 80041a2:	681b      	ldr	r3, [r3, #0]
 80041a4:	699a      	ldr	r2, [r3, #24]
 80041a6:	68bb      	ldr	r3, [r7, #8]
 80041a8:	4013      	ands	r3, r2
 80041aa:	68ba      	ldr	r2, [r7, #8]
 80041ac:	429a      	cmp	r2, r3
 80041ae:	bf0c      	ite	eq
 80041b0:	2301      	moveq	r3, #1
 80041b2:	2300      	movne	r3, #0
 80041b4:	b2db      	uxtb	r3, r3
 80041b6:	461a      	mov	r2, r3
 80041b8:	79fb      	ldrb	r3, [r7, #7]
 80041ba:	429a      	cmp	r2, r3
 80041bc:	d113      	bne.n	80041e6 <I2C_WaitOnFlagUntilTimeout+0x8a>
        {
          hi2c->ErrorCode |= HAL_I2C_ERROR_TIMEOUT;
 80041be:	68fb      	ldr	r3, [r7, #12]
 80041c0:	6c5b      	ldr	r3, [r3, #68]	@ 0x44
 80041c2:	f043 0220 	orr.w	r2, r3, #32
 80041c6:	68fb      	ldr	r3, [r7, #12]
 80041c8:	645a      	str	r2, [r3, #68]	@ 0x44
          hi2c->State = HAL_I2C_STATE_READY;
 80041ca:	68fb      	ldr	r3, [r7, #12]
 80041cc:	2220      	movs	r2, #32
 80041ce:	f883 2041 	strb.w	r2, [r3, #65]	@ 0x41
          hi2c->Mode = HAL_I2C_MODE_NONE;
 80041d2:	68fb      	ldr	r3, [r7, #12]
 80041d4:	2200      	movs	r2, #0
 80041d6:	f883 2042 	strb.w	r2, [r3, #66]	@ 0x42

          /* Process Unlocked */
          __HAL_UNLOCK(hi2c);
 80041da:	68fb      	ldr	r3, [r7, #12]
 80041dc:	2200      	movs	r2, #0
 80041de:	f883 2040 	strb.w	r2, [r3, #64]	@ 0x40
          return HAL_ERROR;
 80041e2:	2301      	movs	r3, #1
 80041e4:	e00f      	b.n	8004206 <I2C_WaitOnFlagUntilTimeout+0xaa>
  while (__HAL_I2C_GET_FLAG(hi2c, Flag) == Status)
 80041e6:	68fb      	ldr	r3, [r7, #12]
 80041e8:	681b      	ldr	r3, [r3, #0]
 80041ea:	699a      	ldr	r2, [r3, #24]
 80041ec:	68bb      	ldr	r3, [r7, #8]
 80041ee:	4013      	ands	r3, r2
 80041f0:	68ba      	ldr	r2, [r7, #8]
 80041f2:	429a      	cmp	r2, r3
 80041f4:	bf0c      	ite	eq
 80041f6:	2301      	moveq	r3, #1
 80041f8:	2300      	movne	r3, #0
 80041fa:	b2db      	uxtb	r3, r3
 80041fc:	461a      	mov	r2, r3
 80041fe:	79fb      	ldrb	r3, [r7, #7]
 8004200:	429a      	cmp	r2, r3
 8004202:	d0b4      	beq.n	800416e <I2C_WaitOnFlagUntilTimeout+0x12>
        }
      }
    }
  }
  return HAL_OK;
 8004204:	2300      	movs	r3, #0
}
 8004206:	4618      	mov	r0, r3
 8004208:	3710      	adds	r7, #16
 800420a:	46bd      	mov	sp, r7
 800420c:	bd80      	pop	{r7, pc}

0800420e <I2C_WaitOnTXISFlagUntilTimeout>:
  * @param  Tickstart Tick start value
  * @retval HAL status
  */
static HAL_StatusTypeDef I2C_WaitOnTXISFlagUntilTimeout(I2C_HandleTypeDef *hi2c, uint32_t Timeout,
                                                        uint32_t Tickstart)
{
 800420e:	b580      	push	{r7, lr}
 8004210:	b084      	sub	sp, #16
 8004212:	af00      	add	r7, sp, #0
 8004214:	60f8      	str	r0, [r7, #12]
 8004216:	60b9      	str	r1, [r7, #8]
 8004218:	607a      	str	r2, [r7, #4]
  while (__HAL_I2C_GET_FLAG(hi2c, I2C_FLAG_TXIS) == RESET)
 800421a:	e033      	b.n	8004284 <I2C_WaitOnTXISFlagUntilTimeout+0x76>
  {
    /* Check if an error is detected */
    if (I2C_IsErrorOccurred(hi2c, Timeout, Tickstart) != HAL_OK)
 800421c:	687a      	ldr	r2, [r7, #4]
 800421e:	68b9      	ldr	r1, [r7, #8]
 8004220:	68f8      	ldr	r0, [r7, #12]
 8004222:	f000 f87f 	bl	8004324 <I2C_IsErrorOccurred>
 8004226:	4603      	mov	r3, r0
 8004228:	2b00      	cmp	r3, #0
 800422a:	d001      	beq.n	8004230 <I2C_WaitOnTXISFlagUntilTimeout+0x22>
    {
      return HAL_ERROR;
 800422c:	2301      	movs	r3, #1
 800422e:	e031      	b.n	8004294 <I2C_WaitOnTXISFlagUntilTimeout+0x86>
    }

    /* Check for the Timeout */
    if (Timeout != HAL_MAX_DELAY)
 8004230:	68bb      	ldr	r3, [r7, #8]
 8004232:	f1b3 3fff 	cmp.w	r3, #4294967295
 8004236:	d025      	beq.n	8004284 <I2C_WaitOnTXISFlagUntilTimeout+0x76>
    {
      if (((HAL_GetTick() - Tickstart) > Timeout) || (Timeout == 0U))
 8004238:	f7fe fbf2 	bl	8002a20 <HAL_GetTick>
 800423c:	4602      	mov	r2, r0
 800423e:	687b      	ldr	r3, [r7, #4]
 8004240:	1ad3      	subs	r3, r2, r3
 8004242:	68ba      	ldr	r2, [r7, #8]
 8004244:	429a      	cmp	r2, r3
 8004246:	d302      	bcc.n	800424e <I2C_WaitOnTXISFlagUntilTimeout+0x40>
 8004248:	68bb      	ldr	r3, [r7, #8]
 800424a:	2b00      	cmp	r3, #0
 800424c:	d11a      	bne.n	8004284 <I2C_WaitOnTXISFlagUntilTimeout+0x76>
      {
        if (__HAL_I2C_GET_FLAG(hi2c, I2C_FLAG_TXIS) == RESET)
 800424e:	68fb      	ldr	r3, [r7, #12]
 8004250:	681b      	ldr	r3, [r3, #0]
 8004252:	699b      	ldr	r3, [r3, #24]
 8004254:	f003 0302 	and.w	r3, r3, #2
 8004258:	2b02      	cmp	r3, #2
 800425a:	d013      	beq.n	8004284 <I2C_WaitOnTXISFlagUntilTimeout+0x76>
        {
          hi2c->ErrorCode |= HAL_I2C_ERROR_TIMEOUT;
 800425c:	68fb      	ldr	r3, [r7, #12]
 800425e:	6c5b      	ldr	r3, [r3, #68]	@ 0x44
 8004260:	f043 0220 	orr.w	r2, r3, #32
 8004264:	68fb      	ldr	r3, [r7, #12]
 8004266:	645a      	str	r2, [r3, #68]	@ 0x44
          hi2c->State = HAL_I2C_STATE_READY;
 8004268:	68fb      	ldr	r3, [r7, #12]
 800426a:	2220      	movs	r2, #32
 800426c:	f883 2041 	strb.w	r2, [r3, #65]	@ 0x41
          hi2c->Mode = HAL_I2C_MODE_NONE;
 8004270:	68fb      	ldr	r3, [r7, #12]
 8004272:	2200      	movs	r2, #0
 8004274:	f883 2042 	strb.w	r2, [r3, #66]	@ 0x42

          /* Process Unlocked */
          __HAL_UNLOCK(hi2c);
 8004278:	68fb      	ldr	r3, [r7, #12]
 800427a:	2200      	movs	r2, #0
 800427c:	f883 2040 	strb.w	r2, [r3, #64]	@ 0x40

          return HAL_ERROR;
 8004280:	2301      	movs	r3, #1
 8004282:	e007      	b.n	8004294 <I2C_WaitOnTXISFlagUntilTimeout+0x86>
  while (__HAL_I2C_GET_FLAG(hi2c, I2C_FLAG_TXIS) == RESET)
 8004284:	68fb      	ldr	r3, [r7, #12]
 8004286:	681b      	ldr	r3, [r3, #0]
 8004288:	699b      	ldr	r3, [r3, #24]
 800428a:	f003 0302 	and.w	r3, r3, #2
 800428e:	2b02      	cmp	r3, #2
 8004290:	d1c4      	bne.n	800421c <I2C_WaitOnTXISFlagUntilTimeout+0xe>
        }
      }
    }
  }
  return HAL_OK;
 8004292:	2300      	movs	r3, #0
}
 8004294:	4618      	mov	r0, r3
 8004296:	3710      	adds	r7, #16
 8004298:	46bd      	mov	sp, r7
 800429a:	bd80      	pop	{r7, pc}

0800429c <I2C_WaitOnSTOPFlagUntilTimeout>:
  * @param  Tickstart Tick start value
  * @retval HAL status
  */
static HAL_StatusTypeDef I2C_WaitOnSTOPFlagUntilTimeout(I2C_HandleTypeDef *hi2c, uint32_t Timeout,
                                                        uint32_t Tickstart)
{
 800429c:	b580      	push	{r7, lr}
 800429e:	b084      	sub	sp, #16
 80042a0:	af00      	add	r7, sp, #0
 80042a2:	60f8      	str	r0, [r7, #12]
 80042a4:	60b9      	str	r1, [r7, #8]
 80042a6:	607a      	str	r2, [r7, #4]
  while (__HAL_I2C_GET_FLAG(hi2c, I2C_FLAG_STOPF) == RESET)
 80042a8:	e02f      	b.n	800430a <I2C_WaitOnSTOPFlagUntilTimeout+0x6e>
  {
    /* Check if an error is detected */
    if (I2C_IsErrorOccurred(hi2c, Timeout, Tickstart) != HAL_OK)
 80042aa:	687a      	ldr	r2, [r7, #4]
 80042ac:	68b9      	ldr	r1, [r7, #8]
 80042ae:	68f8      	ldr	r0, [r7, #12]
 80042b0:	f000 f838 	bl	8004324 <I2C_IsErrorOccurred>
 80042b4:	4603      	mov	r3, r0
 80042b6:	2b00      	cmp	r3, #0
 80042b8:	d001      	beq.n	80042be <I2C_WaitOnSTOPFlagUntilTimeout+0x22>
    {
      return HAL_ERROR;
 80042ba:	2301      	movs	r3, #1
 80042bc:	e02d      	b.n	800431a <I2C_WaitOnSTOPFlagUntilTimeout+0x7e>
    }

    /* Check for the Timeout */
    if (((HAL_GetTick() - Tickstart) > Timeout) || (Timeout == 0U))
 80042be:	f7fe fbaf 	bl	8002a20 <HAL_GetTick>
 80042c2:	4602      	mov	r2, r0
 80042c4:	687b      	ldr	r3, [r7, #4]
 80042c6:	1ad3      	subs	r3, r2, r3
 80042c8:	68ba      	ldr	r2, [r7, #8]
 80042ca:	429a      	cmp	r2, r3
 80042cc:	d302      	bcc.n	80042d4 <I2C_WaitOnSTOPFlagUntilTimeout+0x38>
 80042ce:	68bb      	ldr	r3, [r7, #8]
 80042d0:	2b00      	cmp	r3, #0
 80042d2:	d11a      	bne.n	800430a <I2C_WaitOnSTOPFlagUntilTimeout+0x6e>
    {
      if (__HAL_I2C_GET_FLAG(hi2c, I2C_FLAG_STOPF) == RESET)
 80042d4:	68fb      	ldr	r3, [r7, #12]
 80042d6:	681b      	ldr	r3, [r3, #0]
 80042d8:	699b      	ldr	r3, [r3, #24]
 80042da:	f003 0320 	and.w	r3, r3, #32
 80042de:	2b20      	cmp	r3, #32
 80042e0:	d013      	beq.n	800430a <I2C_WaitOnSTOPFlagUntilTimeout+0x6e>
      {
        hi2c->ErrorCode |= HAL_I2C_ERROR_TIMEOUT;
 80042e2:	68fb      	ldr	r3, [r7, #12]
 80042e4:	6c5b      	ldr	r3, [r3, #68]	@ 0x44
 80042e6:	f043 0220 	orr.w	r2, r3, #32
 80042ea:	68fb      	ldr	r3, [r7, #12]
 80042ec:	645a      	str	r2, [r3, #68]	@ 0x44
        hi2c->State = HAL_I2C_STATE_READY;
 80042ee:	68fb      	ldr	r3, [r7, #12]
 80042f0:	2220      	movs	r2, #32
 80042f2:	f883 2041 	strb.w	r2, [r3, #65]	@ 0x41
        hi2c->Mode = HAL_I2C_MODE_NONE;
 80042f6:	68fb      	ldr	r3, [r7, #12]
 80042f8:	2200      	movs	r2, #0
 80042fa:	f883 2042 	strb.w	r2, [r3, #66]	@ 0x42

        /* Process Unlocked */
        __HAL_UNLOCK(hi2c);
 80042fe:	68fb      	ldr	r3, [r7, #12]
 8004300:	2200      	movs	r2, #0
 8004302:	f883 2040 	strb.w	r2, [r3, #64]	@ 0x40

        return HAL_ERROR;
 8004306:	2301      	movs	r3, #1
 8004308:	e007      	b.n	800431a <I2C_WaitOnSTOPFlagUntilTimeout+0x7e>
  while (__HAL_I2C_GET_FLAG(hi2c, I2C_FLAG_STOPF) == RESET)
 800430a:	68fb      	ldr	r3, [r7, #12]
 800430c:	681b      	ldr	r3, [r3, #0]
 800430e:	699b      	ldr	r3, [r3, #24]
 8004310:	f003 0320 	and.w	r3, r3, #32
 8004314:	2b20      	cmp	r3, #32
 8004316:	d1c8      	bne.n	80042aa <I2C_WaitOnSTOPFlagUntilTimeout+0xe>
      }
    }
  }
  return HAL_OK;
 8004318:	2300      	movs	r3, #0
}
 800431a:	4618      	mov	r0, r3
 800431c:	3710      	adds	r7, #16
 800431e:	46bd      	mov	sp, r7
 8004320:	bd80      	pop	{r7, pc}
	...

08004324 <I2C_IsErrorOccurred>:
  * @param  Timeout Timeout duration
  * @param  Tickstart Tick start value
  * @retval HAL status
  */
static HAL_StatusTypeDef I2C_IsErrorOccurred(I2C_HandleTypeDef *hi2c, uint32_t Timeout, uint32_t Tickstart)
{
 8004324:	b580      	push	{r7, lr}
 8004326:	b08a      	sub	sp, #40	@ 0x28
 8004328:	af00      	add	r7, sp, #0
 800432a:	60f8      	str	r0, [r7, #12]
 800432c:	60b9      	str	r1, [r7, #8]
 800432e:	607a      	str	r2, [r7, #4]
  HAL_StatusTypeDef status = HAL_OK;
 8004330:	2300      	movs	r3, #0
 8004332:	f887 3027 	strb.w	r3, [r7, #39]	@ 0x27
  uint32_t itflag   = hi2c->Instance->ISR;
 8004336:	68fb      	ldr	r3, [r7, #12]
 8004338:	681b      	ldr	r3, [r3, #0]
 800433a:	699b      	ldr	r3, [r3, #24]
 800433c:	61bb      	str	r3, [r7, #24]
  uint32_t error_code = 0;
 800433e:	2300      	movs	r3, #0
 8004340:	623b      	str	r3, [r7, #32]
  uint32_t tickstart = Tickstart;
 8004342:	687b      	ldr	r3, [r7, #4]
 8004344:	61fb      	str	r3, [r7, #28]
  uint32_t tmp1;
  HAL_I2C_ModeTypeDef tmp2;

  if (HAL_IS_BIT_SET(itflag, I2C_FLAG_AF))
 8004346:	69bb      	ldr	r3, [r7, #24]
 8004348:	f003 0310 	and.w	r3, r3, #16
 800434c:	2b00      	cmp	r3, #0
 800434e:	d068      	beq.n	8004422 <I2C_IsErrorOccurred+0xfe>
  {
    /* Clear NACKF Flag */
    __HAL_I2C_CLEAR_FLAG(hi2c, I2C_FLAG_AF);
 8004350:	68fb      	ldr	r3, [r7, #12]
 8004352:	681b      	ldr	r3, [r3, #0]
 8004354:	2210      	movs	r2, #16
 8004356:	61da      	str	r2, [r3, #28]

    /* Wait until STOP Flag is set or timeout occurred */
    /* AutoEnd should be initiate after AF */
    while ((__HAL_I2C_GET_FLAG(hi2c, I2C_FLAG_STOPF) == RESET) && (status == HAL_OK))
 8004358:	e049      	b.n	80043ee <I2C_IsErrorOccurred+0xca>
    {
      /* Check for the Timeout */
      if (Timeout != HAL_MAX_DELAY)
 800435a:	68bb      	ldr	r3, [r7, #8]
 800435c:	f1b3 3fff 	cmp.w	r3, #4294967295
 8004360:	d045      	beq.n	80043ee <I2C_IsErrorOccurred+0xca>
      {
        if (((HAL_GetTick() - tickstart) > Timeout) || (Timeout == 0U))
 8004362:	f7fe fb5d 	bl	8002a20 <HAL_GetTick>
 8004366:	4602      	mov	r2, r0
 8004368:	69fb      	ldr	r3, [r7, #28]
 800436a:	1ad3      	subs	r3, r2, r3
 800436c:	68ba      	ldr	r2, [r7, #8]
 800436e:	429a      	cmp	r2, r3
 8004370:	d302      	bcc.n	8004378 <I2C_IsErrorOccurred+0x54>
 8004372:	68bb      	ldr	r3, [r7, #8]
 8004374:	2b00      	cmp	r3, #0
 8004376:	d13a      	bne.n	80043ee <I2C_IsErrorOccurred+0xca>
        {
          tmp1 = (uint32_t)(hi2c->Instance->CR2 & I2C_CR2_STOP);
 8004378:	68fb      	ldr	r3, [r7, #12]
 800437a:	681b      	ldr	r3, [r3, #0]
 800437c:	685b      	ldr	r3, [r3, #4]
 800437e:	f403 4380 	and.w	r3, r3, #16384	@ 0x4000
 8004382:	617b      	str	r3, [r7, #20]
          tmp2 = hi2c->Mode;
 8004384:	68fb      	ldr	r3, [r7, #12]
 8004386:	f893 3042 	ldrb.w	r3, [r3, #66]	@ 0x42
 800438a:	74fb      	strb	r3, [r7, #19]

          /* In case of I2C still busy, try to regenerate a STOP manually */
          if ((__HAL_I2C_GET_FLAG(hi2c, I2C_FLAG_BUSY) != RESET) && \
 800438c:	68fb      	ldr	r3, [r7, #12]
 800438e:	681b      	ldr	r3, [r3, #0]
 8004390:	699b      	ldr	r3, [r3, #24]
 8004392:	f403 4300 	and.w	r3, r3, #32768	@ 0x8000
 8004396:	f5b3 4f00 	cmp.w	r3, #32768	@ 0x8000
 800439a:	d121      	bne.n	80043e0 <I2C_IsErrorOccurred+0xbc>
 800439c:	697b      	ldr	r3, [r7, #20]
 800439e:	f5b3 4f80 	cmp.w	r3, #16384	@ 0x4000
 80043a2:	d01d      	beq.n	80043e0 <I2C_IsErrorOccurred+0xbc>
              (tmp1 != I2C_CR2_STOP) && \
 80043a4:	7cfb      	ldrb	r3, [r7, #19]
 80043a6:	2b20      	cmp	r3, #32
 80043a8:	d01a      	beq.n	80043e0 <I2C_IsErrorOccurred+0xbc>
              (tmp2 != HAL_I2C_MODE_SLAVE))
          {
            /* Generate Stop */
            hi2c->Instance->CR2 |= I2C_CR2_STOP;
 80043aa:	68fb      	ldr	r3, [r7, #12]
 80043ac:	681b      	ldr	r3, [r3, #0]
 80043ae:	685a      	ldr	r2, [r3, #4]
 80043b0:	68fb      	ldr	r3, [r7, #12]
 80043b2:	681b      	ldr	r3, [r3, #0]
 80043b4:	f442 4280 	orr.w	r2, r2, #16384	@ 0x4000
 80043b8:	605a      	str	r2, [r3, #4]

            /* Update Tick with new reference */
            tickstart = HAL_GetTick();
 80043ba:	f7fe fb31 	bl	8002a20 <HAL_GetTick>
 80043be:	61f8      	str	r0, [r7, #28]
          }

          while (__HAL_I2C_GET_FLAG(hi2c, I2C_FLAG_STOPF) == RESET)
 80043c0:	e00e      	b.n	80043e0 <I2C_IsErrorOccurred+0xbc>
          {
            /* Check for the Timeout */
            if ((HAL_GetTick() - tickstart) > I2C_TIMEOUT_STOPF)
 80043c2:	f7fe fb2d 	bl	8002a20 <HAL_GetTick>
 80043c6:	4602      	mov	r2, r0
 80043c8:	69fb      	ldr	r3, [r7, #28]
 80043ca:	1ad3      	subs	r3, r2, r3
 80043cc:	2b19      	cmp	r3, #25
 80043ce:	d907      	bls.n	80043e0 <I2C_IsErrorOccurred+0xbc>
            {
              error_code |= HAL_I2C_ERROR_TIMEOUT;
 80043d0:	6a3b      	ldr	r3, [r7, #32]
 80043d2:	f043 0320 	orr.w	r3, r3, #32
 80043d6:	623b      	str	r3, [r7, #32]

              status = HAL_ERROR;
 80043d8:	2301      	movs	r3, #1
 80043da:	f887 3027 	strb.w	r3, [r7, #39]	@ 0x27

              break;
 80043de:	e006      	b.n	80043ee <I2C_IsErrorOccurred+0xca>
          while (__HAL_I2C_GET_FLAG(hi2c, I2C_FLAG_STOPF) == RESET)
 80043e0:	68fb      	ldr	r3, [r7, #12]
 80043e2:	681b      	ldr	r3, [r3, #0]
 80043e4:	699b      	ldr	r3, [r3, #24]
 80043e6:	f003 0320 	and.w	r3, r3, #32
 80043ea:	2b20      	cmp	r3, #32
 80043ec:	d1e9      	bne.n	80043c2 <I2C_IsErrorOccurred+0x9e>
    while ((__HAL_I2C_GET_FLAG(hi2c, I2C_FLAG_STOPF) == RESET) && (status == HAL_OK))
 80043ee:	68fb      	ldr	r3, [r7, #12]
 80043f0:	681b      	ldr	r3, [r3, #0]
 80043f2:	699b      	ldr	r3, [r3, #24]
 80043f4:	f003 0320 	and.w	r3, r3, #32
 80043f8:	2b20      	cmp	r3, #32
 80043fa:	d003      	beq.n	8004404 <I2C_IsErrorOccurred+0xe0>
 80043fc:	f897 3027 	ldrb.w	r3, [r7, #39]	@ 0x27
 8004400:	2b00      	cmp	r3, #0
 8004402:	d0aa      	beq.n	800435a <I2C_IsErrorOccurred+0x36>
        }
      }
    }

    /* In case STOP Flag is detected, clear it */
    if (status == HAL_OK)
 8004404:	f897 3027 	ldrb.w	r3, [r7, #39]	@ 0x27
 8004408:	2b00      	cmp	r3, #0
 800440a:	d103      	bne.n	8004414 <I2C_IsErrorOccurred+0xf0>
    {
      /* Clear STOP Flag */
      __HAL_I2C_CLEAR_FLAG(hi2c, I2C_FLAG_STOPF);
 800440c:	68fb      	ldr	r3, [r7, #12]
 800440e:	681b      	ldr	r3, [r3, #0]
 8004410:	2220      	movs	r2, #32
 8004412:	61da      	str	r2, [r3, #28]
    }

    error_code |= HAL_I2C_ERROR_AF;
 8004414:	6a3b      	ldr	r3, [r7, #32]
 8004416:	f043 0304 	orr.w	r3, r3, #4
 800441a:	623b      	str	r3, [r7, #32]

    status = HAL_ERROR;
 800441c:	2301      	movs	r3, #1
 800441e:	f887 3027 	strb.w	r3, [r7, #39]	@ 0x27
  }

  /* Refresh Content of Status register */
  itflag = hi2c->Instance->ISR;
 8004422:	68fb      	ldr	r3, [r7, #12]
 8004424:	681b      	ldr	r3, [r3, #0]
 8004426:	699b      	ldr	r3, [r3, #24]
 8004428:	61bb      	str	r3, [r7, #24]

  /* Then verify if an additional errors occurs */
  /* Check if a Bus error occurred */
  if (HAL_IS_BIT_SET(itflag, I2C_FLAG_BERR))
 800442a:	69bb      	ldr	r3, [r7, #24]
 800442c:	f403 7380 	and.w	r3, r3, #256	@ 0x100
 8004430:	2b00      	cmp	r3, #0
 8004432:	d00b      	beq.n	800444c <I2C_IsErrorOccurred+0x128>
  {
    error_code |= HAL_I2C_ERROR_BERR;
 8004434:	6a3b      	ldr	r3, [r7, #32]
 8004436:	f043 0301 	orr.w	r3, r3, #1
 800443a:	623b      	str	r3, [r7, #32]

    /* Clear BERR flag */
    __HAL_I2C_CLEAR_FLAG(hi2c, I2C_FLAG_BERR);
 800443c:	68fb      	ldr	r3, [r7, #12]
 800443e:	681b      	ldr	r3, [r3, #0]
 8004440:	f44f 7280 	mov.w	r2, #256	@ 0x100
 8004444:	61da      	str	r2, [r3, #28]

    status = HAL_ERROR;
 8004446:	2301      	movs	r3, #1
 8004448:	f887 3027 	strb.w	r3, [r7, #39]	@ 0x27
  }

  /* Check if an Over-Run/Under-Run error occurred */
  if (HAL_IS_BIT_SET(itflag, I2C_FLAG_OVR))
 800444c:	69bb      	ldr	r3, [r7, #24]
 800444e:	f403 6380 	and.w	r3, r3, #1024	@ 0x400
 8004452:	2b00      	cmp	r3, #0
 8004454:	d00b      	beq.n	800446e <I2C_IsErrorOccurred+0x14a>
  {
    error_code |= HAL_I2C_ERROR_OVR;
 8004456:	6a3b      	ldr	r3, [r7, #32]
 8004458:	f043 0308 	orr.w	r3, r3, #8
 800445c:	623b      	str	r3, [r7, #32]

    /* Clear OVR flag */
    __HAL_I2C_CLEAR_FLAG(hi2c, I2C_FLAG_OVR);
 800445e:	68fb      	ldr	r3, [r7, #12]
 8004460:	681b      	ldr	r3, [r3, #0]
 8004462:	f44f 6280 	mov.w	r2, #1024	@ 0x400
 8004466:	61da      	str	r2, [r3, #28]

    status = HAL_ERROR;
 8004468:	2301      	movs	r3, #1
 800446a:	f887 3027 	strb.w	r3, [r7, #39]	@ 0x27
  }

  /* Check if an Arbitration Loss error occurred */
  if (HAL_IS_BIT_SET(itflag, I2C_FLAG_ARLO))
 800446e:	69bb      	ldr	r3, [r7, #24]
 8004470:	f403 7300 	and.w	r3, r3, #512	@ 0x200
 8004474:	2b00      	cmp	r3, #0
 8004476:	d00b      	beq.n	8004490 <I2C_IsErrorOccurred+0x16c>
  {
    error_code |= HAL_I2C_ERROR_ARLO;
 8004478:	6a3b      	ldr	r3, [r7, #32]
 800447a:	f043 0302 	orr.w	r3, r3, #2
 800447e:	623b      	str	r3, [r7, #32]

    /* Clear ARLO flag */
    __HAL_I2C_CLEAR_FLAG(hi2c, I2C_FLAG_ARLO);
 8004480:	68fb      	ldr	r3, [r7, #12]
 8004482:	681b      	ldr	r3, [r3, #0]
 8004484:	f44f 7200 	mov.w	r2, #512	@ 0x200
 8004488:	61da      	str	r2, [r3, #28]

    status = HAL_ERROR;
 800448a:	2301      	movs	r3, #1
 800448c:	f887 3027 	strb.w	r3, [r7, #39]	@ 0x27
  }

  if (status != HAL_OK)
 8004490:	f897 3027 	ldrb.w	r3, [r7, #39]	@ 0x27
 8004494:	2b00      	cmp	r3, #0
 8004496:	d01c      	beq.n	80044d2 <I2C_IsErrorOccurred+0x1ae>
  {
    /* Flush TX register */
    I2C_Flush_TXDR(hi2c);
 8004498:	68f8      	ldr	r0, [r7, #12]
 800449a:	f7ff fe3b 	bl	8004114 <I2C_Flush_TXDR>

    /* Clear Configuration Register 2 */
    I2C_RESET_CR2(hi2c);
 800449e:	68fb      	ldr	r3, [r7, #12]
 80044a0:	681b      	ldr	r3, [r3, #0]
 80044a2:	6859      	ldr	r1, [r3, #4]
 80044a4:	68fb      	ldr	r3, [r7, #12]
 80044a6:	681a      	ldr	r2, [r3, #0]
 80044a8:	4b0d      	ldr	r3, [pc, #52]	@ (80044e0 <I2C_IsErrorOccurred+0x1bc>)
 80044aa:	400b      	ands	r3, r1
 80044ac:	6053      	str	r3, [r2, #4]

    hi2c->ErrorCode |= error_code;
 80044ae:	68fb      	ldr	r3, [r7, #12]
 80044b0:	6c5a      	ldr	r2, [r3, #68]	@ 0x44
 80044b2:	6a3b      	ldr	r3, [r7, #32]
 80044b4:	431a      	orrs	r2, r3
 80044b6:	68fb      	ldr	r3, [r7, #12]
 80044b8:	645a      	str	r2, [r3, #68]	@ 0x44
    hi2c->State = HAL_I2C_STATE_READY;
 80044ba:	68fb      	ldr	r3, [r7, #12]
 80044bc:	2220      	movs	r2, #32
 80044be:	f883 2041 	strb.w	r2, [r3, #65]	@ 0x41
    hi2c->Mode = HAL_I2C_MODE_NONE;
 80044c2:	68fb      	ldr	r3, [r7, #12]
 80044c4:	2200      	movs	r2, #0
 80044c6:	f883 2042 	strb.w	r2, [r3, #66]	@ 0x42

    /* Process Unlocked */
    __HAL_UNLOCK(hi2c);
 80044ca:	68fb      	ldr	r3, [r7, #12]
 80044cc:	2200      	movs	r2, #0
 80044ce:	f883 2040 	strb.w	r2, [r3, #64]	@ 0x40
  }

  return status;
 80044d2:	f897 3027 	ldrb.w	r3, [r7, #39]	@ 0x27
}
 80044d6:	4618      	mov	r0, r3
 80044d8:	3728      	adds	r7, #40	@ 0x28
 80044da:	46bd      	mov	sp, r7
 80044dc:	bd80      	pop	{r7, pc}
 80044de:	bf00      	nop
 80044e0:	fe00e800 	.word	0xfe00e800

080044e4 <I2C_TransferConfig>:
  *     @arg @ref I2C_GENERATE_START_WRITE Generate Restart for write request.
  * @retval None
  */
static void I2C_TransferConfig(I2C_HandleTypeDef *hi2c, uint16_t DevAddress, uint8_t Size, uint32_t Mode,
                               uint32_t Request)
{
 80044e4:	b480      	push	{r7}
 80044e6:	b087      	sub	sp, #28
 80044e8:	af00      	add	r7, sp, #0
 80044ea:	60f8      	str	r0, [r7, #12]
 80044ec:	607b      	str	r3, [r7, #4]
 80044ee:	460b      	mov	r3, r1
 80044f0:	817b      	strh	r3, [r7, #10]
 80044f2:	4613      	mov	r3, r2
 80044f4:	727b      	strb	r3, [r7, #9]
  assert_param(IS_I2C_ALL_INSTANCE(hi2c->Instance));
  assert_param(IS_TRANSFER_MODE(Mode));
  assert_param(IS_TRANSFER_REQUEST(Request));

  /* Declaration of tmp to prevent undefined behavior of volatile usage */
  tmp = ((uint32_t)(((uint32_t)DevAddress & I2C_CR2_SADD) | \
 80044f6:	897b      	ldrh	r3, [r7, #10]
 80044f8:	f3c3 0209 	ubfx	r2, r3, #0, #10
                    (((uint32_t)Size << I2C_CR2_NBYTES_Pos) & I2C_CR2_NBYTES) | \
 80044fc:	7a7b      	ldrb	r3, [r7, #9]
 80044fe:	041b      	lsls	r3, r3, #16
 8004500:	f403 037f 	and.w	r3, r3, #16711680	@ 0xff0000
  tmp = ((uint32_t)(((uint32_t)DevAddress & I2C_CR2_SADD) | \
 8004504:	431a      	orrs	r2, r3
                    (((uint32_t)Size << I2C_CR2_NBYTES_Pos) & I2C_CR2_NBYTES) | \
 8004506:	687b      	ldr	r3, [r7, #4]
 8004508:	431a      	orrs	r2, r3
  tmp = ((uint32_t)(((uint32_t)DevAddress & I2C_CR2_SADD) | \
 800450a:	6a3b      	ldr	r3, [r7, #32]
 800450c:	4313      	orrs	r3, r2
 800450e:	f023 4300 	bic.w	r3, r3, #2147483648	@ 0x80000000
 8004512:	617b      	str	r3, [r7, #20]
                    (uint32_t)Mode | (uint32_t)Request) & (~0x80000000U));

  /* update CR2 register */
  MODIFY_REG(hi2c->Instance->CR2, \
 8004514:	68fb      	ldr	r3, [r7, #12]
 8004516:	681b      	ldr	r3, [r3, #0]
 8004518:	685a      	ldr	r2, [r3, #4]
 800451a:	6a3b      	ldr	r3, [r7, #32]
 800451c:	0d5b      	lsrs	r3, r3, #21
 800451e:	f403 6180 	and.w	r1, r3, #1024	@ 0x400
 8004522:	4b08      	ldr	r3, [pc, #32]	@ (8004544 <I2C_TransferConfig+0x60>)
 8004524:	430b      	orrs	r3, r1
 8004526:	43db      	mvns	r3, r3
 8004528:	ea02 0103 	and.w	r1, r2, r3
 800452c:	68fb      	ldr	r3, [r7, #12]
 800452e:	681b      	ldr	r3, [r3, #0]
 8004530:	697a      	ldr	r2, [r7, #20]
 8004532:	430a      	orrs	r2, r1
 8004534:	605a      	str	r2, [r3, #4]
             ((I2C_CR2_SADD | I2C_CR2_NBYTES | I2C_CR2_RELOAD | I2C_CR2_AUTOEND | \
               (I2C_CR2_RD_WRN & (uint32_t)(Request >> (31U - I2C_CR2_RD_WRN_Pos))) | \
               I2C_CR2_START | I2C_CR2_STOP)), tmp);
}
 8004536:	bf00      	nop
 8004538:	371c      	adds	r7, #28
 800453a:	46bd      	mov	sp, r7
 800453c:	f85d 7b04 	ldr.w	r7, [sp], #4
 8004540:	4770      	bx	lr
 8004542:	bf00      	nop
 8004544:	03ff63ff 	.word	0x03ff63ff

08004548 <HAL_I2CEx_ConfigAnalogFilter>:
  *                the configuration information for the specified I2Cx peripheral.
  * @param  AnalogFilter New state of the Analog filter.
  * @retval HAL status
  */
HAL_StatusTypeDef HAL_I2CEx_ConfigAnalogFilter(I2C_HandleTypeDef *hi2c, uint32_t AnalogFilter)
{
 8004548:	b480      	push	{r7}
 800454a:	b083      	sub	sp, #12
 800454c:	af00      	add	r7, sp, #0
 800454e:	6078      	str	r0, [r7, #4]
 8004550:	6039      	str	r1, [r7, #0]
  /* Check the parameters */
  assert_param(IS_I2C_ALL_INSTANCE(hi2c->Instance));
  assert_param(IS_I2C_ANALOG_FILTER(AnalogFilter));

  if (hi2c->State == HAL_I2C_STATE_READY)
 8004552:	687b      	ldr	r3, [r7, #4]
 8004554:	f893 3041 	ldrb.w	r3, [r3, #65]	@ 0x41
 8004558:	b2db      	uxtb	r3, r3
 800455a:	2b20      	cmp	r3, #32
 800455c:	d138      	bne.n	80045d0 <HAL_I2CEx_ConfigAnalogFilter+0x88>
  {
    /* Process Locked */
    __HAL_LOCK(hi2c);
 800455e:	687b      	ldr	r3, [r7, #4]
 8004560:	f893 3040 	ldrb.w	r3, [r3, #64]	@ 0x40
 8004564:	2b01      	cmp	r3, #1
 8004566:	d101      	bne.n	800456c <HAL_I2CEx_ConfigAnalogFilter+0x24>
 8004568:	2302      	movs	r3, #2
 800456a:	e032      	b.n	80045d2 <HAL_I2CEx_ConfigAnalogFilter+0x8a>
 800456c:	687b      	ldr	r3, [r7, #4]
 800456e:	2201      	movs	r2, #1
 8004570:	f883 2040 	strb.w	r2, [r3, #64]	@ 0x40

    hi2c->State = HAL_I2C_STATE_BUSY;
 8004574:	687b      	ldr	r3, [r7, #4]
 8004576:	2224      	movs	r2, #36	@ 0x24
 8004578:	f883 2041 	strb.w	r2, [r3, #65]	@ 0x41

    /* Disable the selected I2C peripheral */
    __HAL_I2C_DISABLE(hi2c);
 800457c:	687b      	ldr	r3, [r7, #4]
 800457e:	681b      	ldr	r3, [r3, #0]
 8004580:	681a      	ldr	r2, [r3, #0]
 8004582:	687b      	ldr	r3, [r7, #4]
 8004584:	681b      	ldr	r3, [r3, #0]
 8004586:	f022 0201 	bic.w	r2, r2, #1
 800458a:	601a      	str	r2, [r3, #0]

    /* Reset I2Cx ANOFF bit */
    hi2c->Instance->CR1 &= ~(I2C_CR1_ANFOFF);
 800458c:	687b      	ldr	r3, [r7, #4]
 800458e:	681b      	ldr	r3, [r3, #0]
 8004590:	681a      	ldr	r2, [r3, #0]
 8004592:	687b      	ldr	r3, [r7, #4]
 8004594:	681b      	ldr	r3, [r3, #0]
 8004596:	f422 5280 	bic.w	r2, r2, #4096	@ 0x1000
 800459a:	601a      	str	r2, [r3, #0]

    /* Set analog filter bit*/
    hi2c->Instance->CR1 |= AnalogFilter;
 800459c:	687b      	ldr	r3, [r7, #4]
 800459e:	681b      	ldr	r3, [r3, #0]
 80045a0:	6819      	ldr	r1, [r3, #0]
 80045a2:	687b      	ldr	r3, [r7, #4]
 80045a4:	681b      	ldr	r3, [r3, #0]
 80045a6:	683a      	ldr	r2, [r7, #0]
 80045a8:	430a      	orrs	r2, r1
 80045aa:	601a      	str	r2, [r3, #0]

    __HAL_I2C_ENABLE(hi2c);
 80045ac:	687b      	ldr	r3, [r7, #4]
 80045ae:	681b      	ldr	r3, [r3, #0]
 80045b0:	681a      	ldr	r2, [r3, #0]
 80045b2:	687b      	ldr	r3, [r7, #4]
 80045b4:	681b      	ldr	r3, [r3, #0]
 80045b6:	f042 0201 	orr.w	r2, r2, #1
 80045ba:	601a      	str	r2, [r3, #0]

    hi2c->State = HAL_I2C_STATE_READY;
 80045bc:	687b      	ldr	r3, [r7, #4]
 80045be:	2220      	movs	r2, #32
 80045c0:	f883 2041 	strb.w	r2, [r3, #65]	@ 0x41

    /* Process Unlocked */
    __HAL_UNLOCK(hi2c);
 80045c4:	687b      	ldr	r3, [r7, #4]
 80045c6:	2200      	movs	r2, #0
 80045c8:	f883 2040 	strb.w	r2, [r3, #64]	@ 0x40

    return HAL_OK;
 80045cc:	2300      	movs	r3, #0
 80045ce:	e000      	b.n	80045d2 <HAL_I2CEx_ConfigAnalogFilter+0x8a>
  }
  else
  {
    return HAL_BUSY;
 80045d0:	2302      	movs	r3, #2
  }
}
 80045d2:	4618      	mov	r0, r3
 80045d4:	370c      	adds	r7, #12
 80045d6:	46bd      	mov	sp, r7
 80045d8:	f85d 7b04 	ldr.w	r7, [sp], #4
 80045dc:	4770      	bx	lr

080045de <HAL_I2CEx_ConfigDigitalFilter>:
  *                the configuration information for the specified I2Cx peripheral.
  * @param  DigitalFilter Coefficient of digital noise filter between Min_Data=0x00 and Max_Data=0x0F.
  * @retval HAL status
  */
HAL_StatusTypeDef HAL_I2CEx_ConfigDigitalFilter(I2C_HandleTypeDef *hi2c, uint32_t DigitalFilter)
{
 80045de:	b480      	push	{r7}
 80045e0:	b085      	sub	sp, #20
 80045e2:	af00      	add	r7, sp, #0
 80045e4:	6078      	str	r0, [r7, #4]
 80045e6:	6039      	str	r1, [r7, #0]

  /* Check the parameters */
  assert_param(IS_I2C_ALL_INSTANCE(hi2c->Instance));
  assert_param(IS_I2C_DIGITAL_FILTER(DigitalFilter));

  if (hi2c->State == HAL_I2C_STATE_READY)
 80045e8:	687b      	ldr	r3, [r7, #4]
 80045ea:	f893 3041 	ldrb.w	r3, [r3, #65]	@ 0x41
 80045ee:	b2db      	uxtb	r3, r3
 80045f0:	2b20      	cmp	r3, #32
 80045f2:	d139      	bne.n	8004668 <HAL_I2CEx_ConfigDigitalFilter+0x8a>
  {
    /* Process Locked */
    __HAL_LOCK(hi2c);
 80045f4:	687b      	ldr	r3, [r7, #4]
 80045f6:	f893 3040 	ldrb.w	r3, [r3, #64]	@ 0x40
 80045fa:	2b01      	cmp	r3, #1
 80045fc:	d101      	bne.n	8004602 <HAL_I2CEx_ConfigDigitalFilter+0x24>
 80045fe:	2302      	movs	r3, #2
 8004600:	e033      	b.n	800466a <HAL_I2CEx_ConfigDigitalFilter+0x8c>
 8004602:	687b      	ldr	r3, [r7, #4]
 8004604:	2201      	movs	r2, #1
 8004606:	f883 2040 	strb.w	r2, [r3, #64]	@ 0x40

    hi2c->State = HAL_I2C_STATE_BUSY;
 800460a:	687b      	ldr	r3, [r7, #4]
 800460c:	2224      	movs	r2, #36	@ 0x24
 800460e:	f883 2041 	strb.w	r2, [r3, #65]	@ 0x41

    /* Disable the selected I2C peripheral */
    __HAL_I2C_DISABLE(hi2c);
 8004612:	687b      	ldr	r3, [r7, #4]
 8004614:	681b      	ldr	r3, [r3, #0]
 8004616:	681a      	ldr	r2, [r3, #0]
 8004618:	687b      	ldr	r3, [r7, #4]
 800461a:	681b      	ldr	r3, [r3, #0]
 800461c:	f022 0201 	bic.w	r2, r2, #1
 8004620:	601a      	str	r2, [r3, #0]

    /* Get the old register value */
    tmpreg = hi2c->Instance->CR1;
 8004622:	687b      	ldr	r3, [r7, #4]
 8004624:	681b      	ldr	r3, [r3, #0]
 8004626:	681b      	ldr	r3, [r3, #0]
 8004628:	60fb      	str	r3, [r7, #12]

    /* Reset I2Cx DNF bits [11:8] */
    tmpreg &= ~(I2C_CR1_DNF);
 800462a:	68fb      	ldr	r3, [r7, #12]
 800462c:	f423 6370 	bic.w	r3, r3, #3840	@ 0xf00
 8004630:	60fb      	str	r3, [r7, #12]

    /* Set I2Cx DNF coefficient */
    tmpreg |= DigitalFilter << 8U;
 8004632:	683b      	ldr	r3, [r7, #0]
 8004634:	021b      	lsls	r3, r3, #8
 8004636:	68fa      	ldr	r2, [r7, #12]
 8004638:	4313      	orrs	r3, r2
 800463a:	60fb      	str	r3, [r7, #12]

    /* Store the new register value */
    hi2c->Instance->CR1 = tmpreg;
 800463c:	687b      	ldr	r3, [r7, #4]
 800463e:	681b      	ldr	r3, [r3, #0]
 8004640:	68fa      	ldr	r2, [r7, #12]
 8004642:	601a      	str	r2, [r3, #0]

    __HAL_I2C_ENABLE(hi2c);
 8004644:	687b      	ldr	r3, [r7, #4]
 8004646:	681b      	ldr	r3, [r3, #0]
 8004648:	681a      	ldr	r2, [r3, #0]
 800464a:	687b      	ldr	r3, [r7, #4]
 800464c:	681b      	ldr	r3, [r3, #0]
 800464e:	f042 0201 	orr.w	r2, r2, #1
 8004652:	601a      	str	r2, [r3, #0]

    hi2c->State = HAL_I2C_STATE_READY;
 8004654:	687b      	ldr	r3, [r7, #4]
 8004656:	2220      	movs	r2, #32
 8004658:	f883 2041 	strb.w	r2, [r3, #65]	@ 0x41

    /* Process Unlocked */
    __HAL_UNLOCK(hi2c);
 800465c:	687b      	ldr	r3, [r7, #4]
 800465e:	2200      	movs	r2, #0
 8004660:	f883 2040 	strb.w	r2, [r3, #64]	@ 0x40

    return HAL_OK;
 8004664:	2300      	movs	r3, #0
 8004666:	e000      	b.n	800466a <HAL_I2CEx_ConfigDigitalFilter+0x8c>
  }
  else
  {
    return HAL_BUSY;
 8004668:	2302      	movs	r3, #2
  }
}
 800466a:	4618      	mov	r0, r3
 800466c:	3714      	adds	r7, #20
 800466e:	46bd      	mov	sp, r7
 8004670:	f85d 7b04 	ldr.w	r7, [sp], #4
 8004674:	4770      	bx	lr
	...

08004678 <HAL_PWREx_EnableOverDrive>:
  *         During the Over-drive switch activation, no peripheral clocks should be enabled.   
  *         The peripheral clocks must be enabled once the Over-drive mode is activated.   
  * @retval HAL status
  */
HAL_StatusTypeDef HAL_PWREx_EnableOverDrive(void)
{
 8004678:	b580      	push	{r7, lr}
 800467a:	b082      	sub	sp, #8
 800467c:	af00      	add	r7, sp, #0
  uint32_t tickstart = 0;
 800467e:	2300      	movs	r3, #0
 8004680:	607b      	str	r3, [r7, #4]

  __HAL_RCC_PWR_CLK_ENABLE();
 8004682:	4b23      	ldr	r3, [pc, #140]	@ (8004710 <HAL_PWREx_EnableOverDrive+0x98>)
 8004684:	6c1b      	ldr	r3, [r3, #64]	@ 0x40
 8004686:	4a22      	ldr	r2, [pc, #136]	@ (8004710 <HAL_PWREx_EnableOverDrive+0x98>)
 8004688:	f043 5380 	orr.w	r3, r3, #268435456	@ 0x10000000
 800468c:	6413      	str	r3, [r2, #64]	@ 0x40
 800468e:	4b20      	ldr	r3, [pc, #128]	@ (8004710 <HAL_PWREx_EnableOverDrive+0x98>)
 8004690:	6c1b      	ldr	r3, [r3, #64]	@ 0x40
 8004692:	f003 5380 	and.w	r3, r3, #268435456	@ 0x10000000
 8004696:	603b      	str	r3, [r7, #0]
 8004698:	683b      	ldr	r3, [r7, #0]
  
  /* Enable the Over-drive to extend the clock frequency to 216 MHz */
  __HAL_PWR_OVERDRIVE_ENABLE();
 800469a:	4b1e      	ldr	r3, [pc, #120]	@ (8004714 <HAL_PWREx_EnableOverDrive+0x9c>)
 800469c:	681b      	ldr	r3, [r3, #0]
 800469e:	4a1d      	ldr	r2, [pc, #116]	@ (8004714 <HAL_PWREx_EnableOverDrive+0x9c>)
 80046a0:	f443 3380 	orr.w	r3, r3, #65536	@ 0x10000
 80046a4:	6013      	str	r3, [r2, #0]

  /* Get tick */
  tickstart = HAL_GetTick();
 80046a6:	f7fe f9bb 	bl	8002a20 <HAL_GetTick>
 80046aa:	6078      	str	r0, [r7, #4]

  while(!__HAL_PWR_GET_FLAG(PWR_FLAG_ODRDY))
 80046ac:	e009      	b.n	80046c2 <HAL_PWREx_EnableOverDrive+0x4a>
  {
    if((HAL_GetTick() - tickstart ) > PWR_OVERDRIVE_TIMEOUT_VALUE)
 80046ae:	f7fe f9b7 	bl	8002a20 <HAL_GetTick>
 80046b2:	4602      	mov	r2, r0
 80046b4:	687b      	ldr	r3, [r7, #4]
 80046b6:	1ad3      	subs	r3, r2, r3
 80046b8:	f5b3 7f7a 	cmp.w	r3, #1000	@ 0x3e8
 80046bc:	d901      	bls.n	80046c2 <HAL_PWREx_EnableOverDrive+0x4a>
    {
      return HAL_TIMEOUT;
 80046be:	2303      	movs	r3, #3
 80046c0:	e022      	b.n	8004708 <HAL_PWREx_EnableOverDrive+0x90>
  while(!__HAL_PWR_GET_FLAG(PWR_FLAG_ODRDY))
 80046c2:	4b14      	ldr	r3, [pc, #80]	@ (8004714 <HAL_PWREx_EnableOverDrive+0x9c>)
 80046c4:	685b      	ldr	r3, [r3, #4]
 80046c6:	f403 3380 	and.w	r3, r3, #65536	@ 0x10000
 80046ca:	f5b3 3f80 	cmp.w	r3, #65536	@ 0x10000
 80046ce:	d1ee      	bne.n	80046ae <HAL_PWREx_EnableOverDrive+0x36>
    }
  }
  
  /* Enable the Over-drive switch */
  __HAL_PWR_OVERDRIVESWITCHING_ENABLE();
 80046d0:	4b10      	ldr	r3, [pc, #64]	@ (8004714 <HAL_PWREx_EnableOverDrive+0x9c>)
 80046d2:	681b      	ldr	r3, [r3, #0]
 80046d4:	4a0f      	ldr	r2, [pc, #60]	@ (8004714 <HAL_PWREx_EnableOverDrive+0x9c>)
 80046d6:	f443 3300 	orr.w	r3, r3, #131072	@ 0x20000
 80046da:	6013      	str	r3, [r2, #0]

  /* Get tick */
  tickstart = HAL_GetTick();
 80046dc:	f7fe f9a0 	bl	8002a20 <HAL_GetTick>
 80046e0:	6078      	str	r0, [r7, #4]

  while(!__HAL_PWR_GET_FLAG(PWR_FLAG_ODSWRDY))
 80046e2:	e009      	b.n	80046f8 <HAL_PWREx_EnableOverDrive+0x80>
  {
    if((HAL_GetTick() - tickstart ) > PWR_OVERDRIVE_TIMEOUT_VALUE)
 80046e4:	f7fe f99c 	bl	8002a20 <HAL_GetTick>
 80046e8:	4602      	mov	r2, r0
 80046ea:	687b      	ldr	r3, [r7, #4]
 80046ec:	1ad3      	subs	r3, r2, r3
 80046ee:	f5b3 7f7a 	cmp.w	r3, #1000	@ 0x3e8
 80046f2:	d901      	bls.n	80046f8 <HAL_PWREx_EnableOverDrive+0x80>
    {
      return HAL_TIMEOUT;
 80046f4:	2303      	movs	r3, #3
 80046f6:	e007      	b.n	8004708 <HAL_PWREx_EnableOverDrive+0x90>
  while(!__HAL_PWR_GET_FLAG(PWR_FLAG_ODSWRDY))
 80046f8:	4b06      	ldr	r3, [pc, #24]	@ (8004714 <HAL_PWREx_EnableOverDrive+0x9c>)
 80046fa:	685b      	ldr	r3, [r3, #4]
 80046fc:	f403 3300 	and.w	r3, r3, #131072	@ 0x20000
 8004700:	f5b3 3f00 	cmp.w	r3, #131072	@ 0x20000
 8004704:	d1ee      	bne.n	80046e4 <HAL_PWREx_EnableOverDrive+0x6c>
    }
  } 
  return HAL_OK;
 8004706:	2300      	movs	r3, #0
}
 8004708:	4618      	mov	r0, r3
 800470a:	3708      	adds	r7, #8
 800470c:	46bd      	mov	sp, r7
 800470e:	bd80      	pop	{r7, pc}
 8004710:	40023800 	.word	0x40023800
 8004714:	40007000 	.word	0x40007000

08004718 <HAL_RCC_OscConfig>:
  *         supported by this function. User should request a transition to HSE Off
  *         first and then HSE On or HSE Bypass.
  * @retval HAL status
  */
HAL_StatusTypeDef HAL_RCC_OscConfig(const RCC_OscInitTypeDef  *RCC_OscInitStruct)
{
 8004718:	b580      	push	{r7, lr}
 800471a:	b086      	sub	sp, #24
 800471c:	af00      	add	r7, sp, #0
 800471e:	6078      	str	r0, [r7, #4]
  uint32_t tickstart;
  uint32_t pll_config;
  FlagStatus pwrclkchanged = RESET;
 8004720:	2300      	movs	r3, #0
 8004722:	75fb      	strb	r3, [r7, #23]

  /* Check Null pointer */
  if (RCC_OscInitStruct == NULL)
 8004724:	687b      	ldr	r3, [r7, #4]
 8004726:	2b00      	cmp	r3, #0
 8004728:	d101      	bne.n	800472e <HAL_RCC_OscConfig+0x16>
  {
    return HAL_ERROR;
 800472a:	2301      	movs	r3, #1
 800472c:	e29b      	b.n	8004c66 <HAL_RCC_OscConfig+0x54e>

  /* Check the parameters */
  assert_param(IS_RCC_OSCILLATORTYPE(RCC_OscInitStruct->OscillatorType));

  /*------------------------------- HSE Configuration ------------------------*/
  if (((RCC_OscInitStruct->OscillatorType) & RCC_OSCILLATORTYPE_HSE) == RCC_OSCILLATORTYPE_HSE)
 800472e:	687b      	ldr	r3, [r7, #4]
 8004730:	681b      	ldr	r3, [r3, #0]
 8004732:	f003 0301 	and.w	r3, r3, #1
 8004736:	2b00      	cmp	r3, #0
 8004738:	f000 8087 	beq.w	800484a <HAL_RCC_OscConfig+0x132>
  {
    /* Check the parameters */
    assert_param(IS_RCC_HSE(RCC_OscInitStruct->HSEState));
    /* When the HSE is used as system clock or clock source for PLL, It can not be disabled */
    if ((__HAL_RCC_GET_SYSCLK_SOURCE() == RCC_SYSCLKSOURCE_STATUS_HSE)
 800473c:	4b96      	ldr	r3, [pc, #600]	@ (8004998 <HAL_RCC_OscConfig+0x280>)
 800473e:	689b      	ldr	r3, [r3, #8]
 8004740:	f003 030c 	and.w	r3, r3, #12
 8004744:	2b04      	cmp	r3, #4
 8004746:	d00c      	beq.n	8004762 <HAL_RCC_OscConfig+0x4a>
        || ((__HAL_RCC_GET_SYSCLK_SOURCE() == RCC_SYSCLKSOURCE_STATUS_PLLCLK) && ((RCC->PLLCFGR & RCC_PLLCFGR_PLLSRC) == RCC_PLLCFGR_PLLSRC_HSE)))
 8004748:	4b93      	ldr	r3, [pc, #588]	@ (8004998 <HAL_RCC_OscConfig+0x280>)
 800474a:	689b      	ldr	r3, [r3, #8]
 800474c:	f003 030c 	and.w	r3, r3, #12
 8004750:	2b08      	cmp	r3, #8
 8004752:	d112      	bne.n	800477a <HAL_RCC_OscConfig+0x62>
 8004754:	4b90      	ldr	r3, [pc, #576]	@ (8004998 <HAL_RCC_OscConfig+0x280>)
 8004756:	685b      	ldr	r3, [r3, #4]
 8004758:	f403 0380 	and.w	r3, r3, #4194304	@ 0x400000
 800475c:	f5b3 0f80 	cmp.w	r3, #4194304	@ 0x400000
 8004760:	d10b      	bne.n	800477a <HAL_RCC_OscConfig+0x62>
    {
      if ((__HAL_RCC_GET_FLAG(RCC_FLAG_HSERDY) != RESET) && (RCC_OscInitStruct->HSEState == RCC_HSE_OFF))
 8004762:	4b8d      	ldr	r3, [pc, #564]	@ (8004998 <HAL_RCC_OscConfig+0x280>)
 8004764:	681b      	ldr	r3, [r3, #0]
 8004766:	f403 3300 	and.w	r3, r3, #131072	@ 0x20000
 800476a:	2b00      	cmp	r3, #0
 800476c:	d06c      	beq.n	8004848 <HAL_RCC_OscConfig+0x130>
 800476e:	687b      	ldr	r3, [r7, #4]
 8004770:	685b      	ldr	r3, [r3, #4]
 8004772:	2b00      	cmp	r3, #0
 8004774:	d168      	bne.n	8004848 <HAL_RCC_OscConfig+0x130>
      {
        return HAL_ERROR;
 8004776:	2301      	movs	r3, #1
 8004778:	e275      	b.n	8004c66 <HAL_RCC_OscConfig+0x54e>
      }
    }
    else
    {
      /* Set the new HSE configuration ---------------------------------------*/
      __HAL_RCC_HSE_CONFIG(RCC_OscInitStruct->HSEState);
 800477a:	687b      	ldr	r3, [r7, #4]
 800477c:	685b      	ldr	r3, [r3, #4]
 800477e:	f5b3 3f80 	cmp.w	r3, #65536	@ 0x10000
 8004782:	d106      	bne.n	8004792 <HAL_RCC_OscConfig+0x7a>
 8004784:	4b84      	ldr	r3, [pc, #528]	@ (8004998 <HAL_RCC_OscConfig+0x280>)
 8004786:	681b      	ldr	r3, [r3, #0]
 8004788:	4a83      	ldr	r2, [pc, #524]	@ (8004998 <HAL_RCC_OscConfig+0x280>)
 800478a:	f443 3380 	orr.w	r3, r3, #65536	@ 0x10000
 800478e:	6013      	str	r3, [r2, #0]
 8004790:	e02e      	b.n	80047f0 <HAL_RCC_OscConfig+0xd8>
 8004792:	687b      	ldr	r3, [r7, #4]
 8004794:	685b      	ldr	r3, [r3, #4]
 8004796:	2b00      	cmp	r3, #0
 8004798:	d10c      	bne.n	80047b4 <HAL_RCC_OscConfig+0x9c>
 800479a:	4b7f      	ldr	r3, [pc, #508]	@ (8004998 <HAL_RCC_OscConfig+0x280>)
 800479c:	681b      	ldr	r3, [r3, #0]
 800479e:	4a7e      	ldr	r2, [pc, #504]	@ (8004998 <HAL_RCC_OscConfig+0x280>)
 80047a0:	f423 3380 	bic.w	r3, r3, #65536	@ 0x10000
 80047a4:	6013      	str	r3, [r2, #0]
 80047a6:	4b7c      	ldr	r3, [pc, #496]	@ (8004998 <HAL_RCC_OscConfig+0x280>)
 80047a8:	681b      	ldr	r3, [r3, #0]
 80047aa:	4a7b      	ldr	r2, [pc, #492]	@ (8004998 <HAL_RCC_OscConfig+0x280>)
 80047ac:	f423 2380 	bic.w	r3, r3, #262144	@ 0x40000
 80047b0:	6013      	str	r3, [r2, #0]
 80047b2:	e01d      	b.n	80047f0 <HAL_RCC_OscConfig+0xd8>
 80047b4:	687b      	ldr	r3, [r7, #4]
 80047b6:	685b      	ldr	r3, [r3, #4]
 80047b8:	f5b3 2fa0 	cmp.w	r3, #327680	@ 0x50000
 80047bc:	d10c      	bne.n	80047d8 <HAL_RCC_OscConfig+0xc0>
 80047be:	4b76      	ldr	r3, [pc, #472]	@ (8004998 <HAL_RCC_OscConfig+0x280>)
 80047c0:	681b      	ldr	r3, [r3, #0]
 80047c2:	4a75      	ldr	r2, [pc, #468]	@ (8004998 <HAL_RCC_OscConfig+0x280>)
 80047c4:	f443 2380 	orr.w	r3, r3, #262144	@ 0x40000
 80047c8:	6013      	str	r3, [r2, #0]
 80047ca:	4b73      	ldr	r3, [pc, #460]	@ (8004998 <HAL_RCC_OscConfig+0x280>)
 80047cc:	681b      	ldr	r3, [r3, #0]
 80047ce:	4a72      	ldr	r2, [pc, #456]	@ (8004998 <HAL_RCC_OscConfig+0x280>)
 80047d0:	f443 3380 	orr.w	r3, r3, #65536	@ 0x10000
 80047d4:	6013      	str	r3, [r2, #0]
 80047d6:	e00b      	b.n	80047f0 <HAL_RCC_OscConfig+0xd8>
 80047d8:	4b6f      	ldr	r3, [pc, #444]	@ (8004998 <HAL_RCC_OscConfig+0x280>)
 80047da:	681b      	ldr	r3, [r3, #0]
 80047dc:	4a6e      	ldr	r2, [pc, #440]	@ (8004998 <HAL_RCC_OscConfig+0x280>)
 80047de:	f423 3380 	bic.w	r3, r3, #65536	@ 0x10000
 80047e2:	6013      	str	r3, [r2, #0]
 80047e4:	4b6c      	ldr	r3, [pc, #432]	@ (8004998 <HAL_RCC_OscConfig+0x280>)
 80047e6:	681b      	ldr	r3, [r3, #0]
 80047e8:	4a6b      	ldr	r2, [pc, #428]	@ (8004998 <HAL_RCC_OscConfig+0x280>)
 80047ea:	f423 2380 	bic.w	r3, r3, #262144	@ 0x40000
 80047ee:	6013      	str	r3, [r2, #0]

      /* Check the HSE State */
      if (RCC_OscInitStruct->HSEState != RCC_HSE_OFF)
 80047f0:	687b      	ldr	r3, [r7, #4]
 80047f2:	685b      	ldr	r3, [r3, #4]
 80047f4:	2b00      	cmp	r3, #0
 80047f6:	d013      	beq.n	8004820 <HAL_RCC_OscConfig+0x108>
      {
        /* Get Start Tick*/
        tickstart = HAL_GetTick();
 80047f8:	f7fe f912 	bl	8002a20 <HAL_GetTick>
 80047fc:	6138      	str	r0, [r7, #16]

        /* Wait till HSE is ready */
        while (__HAL_RCC_GET_FLAG(RCC_FLAG_HSERDY) == RESET)
 80047fe:	e008      	b.n	8004812 <HAL_RCC_OscConfig+0xfa>
        {
          if ((HAL_GetTick() - tickstart) > HSE_TIMEOUT_VALUE)
 8004800:	f7fe f90e 	bl	8002a20 <HAL_GetTick>
 8004804:	4602      	mov	r2, r0
 8004806:	693b      	ldr	r3, [r7, #16]
 8004808:	1ad3      	subs	r3, r2, r3
 800480a:	2b64      	cmp	r3, #100	@ 0x64
 800480c:	d901      	bls.n	8004812 <HAL_RCC_OscConfig+0xfa>
          {
            return HAL_TIMEOUT;
 800480e:	2303      	movs	r3, #3
 8004810:	e229      	b.n	8004c66 <HAL_RCC_OscConfig+0x54e>
        while (__HAL_RCC_GET_FLAG(RCC_FLAG_HSERDY) == RESET)
 8004812:	4b61      	ldr	r3, [pc, #388]	@ (8004998 <HAL_RCC_OscConfig+0x280>)
 8004814:	681b      	ldr	r3, [r3, #0]
 8004816:	f403 3300 	and.w	r3, r3, #131072	@ 0x20000
 800481a:	2b00      	cmp	r3, #0
 800481c:	d0f0      	beq.n	8004800 <HAL_RCC_OscConfig+0xe8>
 800481e:	e014      	b.n	800484a <HAL_RCC_OscConfig+0x132>
        }
      }
      else
      {
        /* Get Start Tick*/
        tickstart = HAL_GetTick();
 8004820:	f7fe f8fe 	bl	8002a20 <HAL_GetTick>
 8004824:	6138      	str	r0, [r7, #16]

        /* Wait till HSE is bypassed or disabled */
        while (__HAL_RCC_GET_FLAG(RCC_FLAG_HSERDY) != RESET)
 8004826:	e008      	b.n	800483a <HAL_RCC_OscConfig+0x122>
        {
          if ((HAL_GetTick() - tickstart) > HSE_TIMEOUT_VALUE)
 8004828:	f7fe f8fa 	bl	8002a20 <HAL_GetTick>
 800482c:	4602      	mov	r2, r0
 800482e:	693b      	ldr	r3, [r7, #16]
 8004830:	1ad3      	subs	r3, r2, r3
 8004832:	2b64      	cmp	r3, #100	@ 0x64
 8004834:	d901      	bls.n	800483a <HAL_RCC_OscConfig+0x122>
          {
            return HAL_TIMEOUT;
 8004836:	2303      	movs	r3, #3
 8004838:	e215      	b.n	8004c66 <HAL_RCC_OscConfig+0x54e>
        while (__HAL_RCC_GET_FLAG(RCC_FLAG_HSERDY) != RESET)
 800483a:	4b57      	ldr	r3, [pc, #348]	@ (8004998 <HAL_RCC_OscConfig+0x280>)
 800483c:	681b      	ldr	r3, [r3, #0]
 800483e:	f403 3300 	and.w	r3, r3, #131072	@ 0x20000
 8004842:	2b00      	cmp	r3, #0
 8004844:	d1f0      	bne.n	8004828 <HAL_RCC_OscConfig+0x110>
 8004846:	e000      	b.n	800484a <HAL_RCC_OscConfig+0x132>
      if ((__HAL_RCC_GET_FLAG(RCC_FLAG_HSERDY) != RESET) && (RCC_OscInitStruct->HSEState == RCC_HSE_OFF))
 8004848:	bf00      	nop
        }
      }
    }
  }
  /*----------------------------- HSI Configuration --------------------------*/
  if (((RCC_OscInitStruct->OscillatorType) & RCC_OSCILLATORTYPE_HSI) == RCC_OSCILLATORTYPE_HSI)
 800484a:	687b      	ldr	r3, [r7, #4]
 800484c:	681b      	ldr	r3, [r3, #0]
 800484e:	f003 0302 	and.w	r3, r3, #2
 8004852:	2b00      	cmp	r3, #0
 8004854:	d069      	beq.n	800492a <HAL_RCC_OscConfig+0x212>
    /* Check the parameters */
    assert_param(IS_RCC_HSI(RCC_OscInitStruct->HSIState));
    assert_param(IS_RCC_CALIBRATION_VALUE(RCC_OscInitStruct->HSICalibrationValue));

    /* Check if HSI is used as system clock or as PLL source when PLL is selected as system clock */
    if ((__HAL_RCC_GET_SYSCLK_SOURCE() == RCC_SYSCLKSOURCE_STATUS_HSI)
 8004856:	4b50      	ldr	r3, [pc, #320]	@ (8004998 <HAL_RCC_OscConfig+0x280>)
 8004858:	689b      	ldr	r3, [r3, #8]
 800485a:	f003 030c 	and.w	r3, r3, #12
 800485e:	2b00      	cmp	r3, #0
 8004860:	d00b      	beq.n	800487a <HAL_RCC_OscConfig+0x162>
        || ((__HAL_RCC_GET_SYSCLK_SOURCE() == RCC_SYSCLKSOURCE_STATUS_PLLCLK) && ((RCC->PLLCFGR & RCC_PLLCFGR_PLLSRC) == RCC_PLLCFGR_PLLSRC_HSI)))
 8004862:	4b4d      	ldr	r3, [pc, #308]	@ (8004998 <HAL_RCC_OscConfig+0x280>)
 8004864:	689b      	ldr	r3, [r3, #8]
 8004866:	f003 030c 	and.w	r3, r3, #12
 800486a:	2b08      	cmp	r3, #8
 800486c:	d11c      	bne.n	80048a8 <HAL_RCC_OscConfig+0x190>
 800486e:	4b4a      	ldr	r3, [pc, #296]	@ (8004998 <HAL_RCC_OscConfig+0x280>)
 8004870:	685b      	ldr	r3, [r3, #4]
 8004872:	f403 0380 	and.w	r3, r3, #4194304	@ 0x400000
 8004876:	2b00      	cmp	r3, #0
 8004878:	d116      	bne.n	80048a8 <HAL_RCC_OscConfig+0x190>
    {
      /* When HSI is used as system clock it will not disabled */
      if ((__HAL_RCC_GET_FLAG(RCC_FLAG_HSIRDY) != RESET) && (RCC_OscInitStruct->HSIState != RCC_HSI_ON))
 800487a:	4b47      	ldr	r3, [pc, #284]	@ (8004998 <HAL_RCC_OscConfig+0x280>)
 800487c:	681b      	ldr	r3, [r3, #0]
 800487e:	f003 0302 	and.w	r3, r3, #2
 8004882:	2b00      	cmp	r3, #0
 8004884:	d005      	beq.n	8004892 <HAL_RCC_OscConfig+0x17a>
 8004886:	687b      	ldr	r3, [r7, #4]
 8004888:	68db      	ldr	r3, [r3, #12]
 800488a:	2b01      	cmp	r3, #1
 800488c:	d001      	beq.n	8004892 <HAL_RCC_OscConfig+0x17a>
      {
        return HAL_ERROR;
 800488e:	2301      	movs	r3, #1
 8004890:	e1e9      	b.n	8004c66 <HAL_RCC_OscConfig+0x54e>
      }
      /* Otherwise, just the calibration is allowed */
      else
      {
        /* Adjusts the Internal High Speed oscillator (HSI) calibration value.*/
        __HAL_RCC_HSI_CALIBRATIONVALUE_ADJUST(RCC_OscInitStruct->HSICalibrationValue);
 8004892:	4b41      	ldr	r3, [pc, #260]	@ (8004998 <HAL_RCC_OscConfig+0x280>)
 8004894:	681b      	ldr	r3, [r3, #0]
 8004896:	f023 02f8 	bic.w	r2, r3, #248	@ 0xf8
 800489a:	687b      	ldr	r3, [r7, #4]
 800489c:	691b      	ldr	r3, [r3, #16]
 800489e:	00db      	lsls	r3, r3, #3
 80048a0:	493d      	ldr	r1, [pc, #244]	@ (8004998 <HAL_RCC_OscConfig+0x280>)
 80048a2:	4313      	orrs	r3, r2
 80048a4:	600b      	str	r3, [r1, #0]
      if ((__HAL_RCC_GET_FLAG(RCC_FLAG_HSIRDY) != RESET) && (RCC_OscInitStruct->HSIState != RCC_HSI_ON))
 80048a6:	e040      	b.n	800492a <HAL_RCC_OscConfig+0x212>
      }
    }
    else
    {
      /* Check the HSI State */
      if ((RCC_OscInitStruct->HSIState) != RCC_HSI_OFF)
 80048a8:	687b      	ldr	r3, [r7, #4]
 80048aa:	68db      	ldr	r3, [r3, #12]
 80048ac:	2b00      	cmp	r3, #0
 80048ae:	d023      	beq.n	80048f8 <HAL_RCC_OscConfig+0x1e0>
      {
        /* Enable the Internal High Speed oscillator (HSI). */
        __HAL_RCC_HSI_ENABLE();
 80048b0:	4b39      	ldr	r3, [pc, #228]	@ (8004998 <HAL_RCC_OscConfig+0x280>)
 80048b2:	681b      	ldr	r3, [r3, #0]
 80048b4:	4a38      	ldr	r2, [pc, #224]	@ (8004998 <HAL_RCC_OscConfig+0x280>)
 80048b6:	f043 0301 	orr.w	r3, r3, #1
 80048ba:	6013      	str	r3, [r2, #0]

        /* Get Start Tick*/
        tickstart = HAL_GetTick();
 80048bc:	f7fe f8b0 	bl	8002a20 <HAL_GetTick>
 80048c0:	6138      	str	r0, [r7, #16]

        /* Wait till HSI is ready */
        while (__HAL_RCC_GET_FLAG(RCC_FLAG_HSIRDY) == RESET)
 80048c2:	e008      	b.n	80048d6 <HAL_RCC_OscConfig+0x1be>
        {
          if ((HAL_GetTick() - tickstart) > HSI_TIMEOUT_VALUE)
 80048c4:	f7fe f8ac 	bl	8002a20 <HAL_GetTick>
 80048c8:	4602      	mov	r2, r0
 80048ca:	693b      	ldr	r3, [r7, #16]
 80048cc:	1ad3      	subs	r3, r2, r3
 80048ce:	2b02      	cmp	r3, #2
 80048d0:	d901      	bls.n	80048d6 <HAL_RCC_OscConfig+0x1be>
          {
            return HAL_TIMEOUT;
 80048d2:	2303      	movs	r3, #3
 80048d4:	e1c7      	b.n	8004c66 <HAL_RCC_OscConfig+0x54e>
        while (__HAL_RCC_GET_FLAG(RCC_FLAG_HSIRDY) == RESET)
 80048d6:	4b30      	ldr	r3, [pc, #192]	@ (8004998 <HAL_RCC_OscConfig+0x280>)
 80048d8:	681b      	ldr	r3, [r3, #0]
 80048da:	f003 0302 	and.w	r3, r3, #2
 80048de:	2b00      	cmp	r3, #0
 80048e0:	d0f0      	beq.n	80048c4 <HAL_RCC_OscConfig+0x1ac>
          }
        }

        /* Adjusts the Internal High Speed oscillator (HSI) calibration value.*/
        __HAL_RCC_HSI_CALIBRATIONVALUE_ADJUST(RCC_OscInitStruct->HSICalibrationValue);
 80048e2:	4b2d      	ldr	r3, [pc, #180]	@ (8004998 <HAL_RCC_OscConfig+0x280>)
 80048e4:	681b      	ldr	r3, [r3, #0]
 80048e6:	f023 02f8 	bic.w	r2, r3, #248	@ 0xf8
 80048ea:	687b      	ldr	r3, [r7, #4]
 80048ec:	691b      	ldr	r3, [r3, #16]
 80048ee:	00db      	lsls	r3, r3, #3
 80048f0:	4929      	ldr	r1, [pc, #164]	@ (8004998 <HAL_RCC_OscConfig+0x280>)
 80048f2:	4313      	orrs	r3, r2
 80048f4:	600b      	str	r3, [r1, #0]
 80048f6:	e018      	b.n	800492a <HAL_RCC_OscConfig+0x212>
      }
      else
      {
        /* Disable the Internal High Speed oscillator (HSI). */
        __HAL_RCC_HSI_DISABLE();
 80048f8:	4b27      	ldr	r3, [pc, #156]	@ (8004998 <HAL_RCC_OscConfig+0x280>)
 80048fa:	681b      	ldr	r3, [r3, #0]
 80048fc:	4a26      	ldr	r2, [pc, #152]	@ (8004998 <HAL_RCC_OscConfig+0x280>)
 80048fe:	f023 0301 	bic.w	r3, r3, #1
 8004902:	6013      	str	r3, [r2, #0]

        /* Get Start Tick*/
        tickstart = HAL_GetTick();
 8004904:	f7fe f88c 	bl	8002a20 <HAL_GetTick>
 8004908:	6138      	str	r0, [r7, #16]

        /* Wait till HSI is ready */
        while (__HAL_RCC_GET_FLAG(RCC_FLAG_HSIRDY) != RESET)
 800490a:	e008      	b.n	800491e <HAL_RCC_OscConfig+0x206>
        {
          if ((HAL_GetTick() - tickstart) > HSI_TIMEOUT_VALUE)
 800490c:	f7fe f888 	bl	8002a20 <HAL_GetTick>
 8004910:	4602      	mov	r2, r0
 8004912:	693b      	ldr	r3, [r7, #16]
 8004914:	1ad3      	subs	r3, r2, r3
 8004916:	2b02      	cmp	r3, #2
 8004918:	d901      	bls.n	800491e <HAL_RCC_OscConfig+0x206>
          {
            return HAL_TIMEOUT;
 800491a:	2303      	movs	r3, #3
 800491c:	e1a3      	b.n	8004c66 <HAL_RCC_OscConfig+0x54e>
        while (__HAL_RCC_GET_FLAG(RCC_FLAG_HSIRDY) != RESET)
 800491e:	4b1e      	ldr	r3, [pc, #120]	@ (8004998 <HAL_RCC_OscConfig+0x280>)
 8004920:	681b      	ldr	r3, [r3, #0]
 8004922:	f003 0302 	and.w	r3, r3, #2
 8004926:	2b00      	cmp	r3, #0
 8004928:	d1f0      	bne.n	800490c <HAL_RCC_OscConfig+0x1f4>
        }
      }
    }
  }
  /*------------------------------ LSI Configuration -------------------------*/
  if (((RCC_OscInitStruct->OscillatorType) & RCC_OSCILLATORTYPE_LSI) == RCC_OSCILLATORTYPE_LSI)
 800492a:	687b      	ldr	r3, [r7, #4]
 800492c:	681b      	ldr	r3, [r3, #0]
 800492e:	f003 0308 	and.w	r3, r3, #8
 8004932:	2b00      	cmp	r3, #0
 8004934:	d038      	beq.n	80049a8 <HAL_RCC_OscConfig+0x290>
  {
    /* Check the parameters */
    assert_param(IS_RCC_LSI(RCC_OscInitStruct->LSIState));

    /* Check the LSI State */
    if ((RCC_OscInitStruct->LSIState) != RCC_LSI_OFF)
 8004936:	687b      	ldr	r3, [r7, #4]
 8004938:	695b      	ldr	r3, [r3, #20]
 800493a:	2b00      	cmp	r3, #0
 800493c:	d019      	beq.n	8004972 <HAL_RCC_OscConfig+0x25a>
    {
      /* Enable the Internal Low Speed oscillator (LSI). */
      __HAL_RCC_LSI_ENABLE();
 800493e:	4b16      	ldr	r3, [pc, #88]	@ (8004998 <HAL_RCC_OscConfig+0x280>)
 8004940:	6f5b      	ldr	r3, [r3, #116]	@ 0x74
 8004942:	4a15      	ldr	r2, [pc, #84]	@ (8004998 <HAL_RCC_OscConfig+0x280>)
 8004944:	f043 0301 	orr.w	r3, r3, #1
 8004948:	6753      	str	r3, [r2, #116]	@ 0x74

      /* Get Start Tick*/
      tickstart = HAL_GetTick();
 800494a:	f7fe f869 	bl	8002a20 <HAL_GetTick>
 800494e:	6138      	str	r0, [r7, #16]

      /* Wait till LSI is ready */
      while (__HAL_RCC_GET_FLAG(RCC_FLAG_LSIRDY) == RESET)
 8004950:	e008      	b.n	8004964 <HAL_RCC_OscConfig+0x24c>
      {
        if ((HAL_GetTick() - tickstart) > LSI_TIMEOUT_VALUE)
 8004952:	f7fe f865 	bl	8002a20 <HAL_GetTick>
 8004956:	4602      	mov	r2, r0
 8004958:	693b      	ldr	r3, [r7, #16]
 800495a:	1ad3      	subs	r3, r2, r3
 800495c:	2b02      	cmp	r3, #2
 800495e:	d901      	bls.n	8004964 <HAL_RCC_OscConfig+0x24c>
        {
          return HAL_TIMEOUT;
 8004960:	2303      	movs	r3, #3
 8004962:	e180      	b.n	8004c66 <HAL_RCC_OscConfig+0x54e>
      while (__HAL_RCC_GET_FLAG(RCC_FLAG_LSIRDY) == RESET)
 8004964:	4b0c      	ldr	r3, [pc, #48]	@ (8004998 <HAL_RCC_OscConfig+0x280>)
 8004966:	6f5b      	ldr	r3, [r3, #116]	@ 0x74
 8004968:	f003 0302 	and.w	r3, r3, #2
 800496c:	2b00      	cmp	r3, #0
 800496e:	d0f0      	beq.n	8004952 <HAL_RCC_OscConfig+0x23a>
 8004970:	e01a      	b.n	80049a8 <HAL_RCC_OscConfig+0x290>
      }
    }
    else
    {
      /* Disable the Internal Low Speed oscillator (LSI). */
      __HAL_RCC_LSI_DISABLE();
 8004972:	4b09      	ldr	r3, [pc, #36]	@ (8004998 <HAL_RCC_OscConfig+0x280>)
 8004974:	6f5b      	ldr	r3, [r3, #116]	@ 0x74
 8004976:	4a08      	ldr	r2, [pc, #32]	@ (8004998 <HAL_RCC_OscConfig+0x280>)
 8004978:	f023 0301 	bic.w	r3, r3, #1
 800497c:	6753      	str	r3, [r2, #116]	@ 0x74

      /* Get Start Tick*/
      tickstart = HAL_GetTick();
 800497e:	f7fe f84f 	bl	8002a20 <HAL_GetTick>
 8004982:	6138      	str	r0, [r7, #16]

      /* Wait till LSI is ready */
      while (__HAL_RCC_GET_FLAG(RCC_FLAG_LSIRDY) != RESET)
 8004984:	e00a      	b.n	800499c <HAL_RCC_OscConfig+0x284>
      {
        if ((HAL_GetTick() - tickstart) > LSI_TIMEOUT_VALUE)
 8004986:	f7fe f84b 	bl	8002a20 <HAL_GetTick>
 800498a:	4602      	mov	r2, r0
 800498c:	693b      	ldr	r3, [r7, #16]
 800498e:	1ad3      	subs	r3, r2, r3
 8004990:	2b02      	cmp	r3, #2
 8004992:	d903      	bls.n	800499c <HAL_RCC_OscConfig+0x284>
        {
          return HAL_TIMEOUT;
 8004994:	2303      	movs	r3, #3
 8004996:	e166      	b.n	8004c66 <HAL_RCC_OscConfig+0x54e>
 8004998:	40023800 	.word	0x40023800
      while (__HAL_RCC_GET_FLAG(RCC_FLAG_LSIRDY) != RESET)
 800499c:	4b92      	ldr	r3, [pc, #584]	@ (8004be8 <HAL_RCC_OscConfig+0x4d0>)
 800499e:	6f5b      	ldr	r3, [r3, #116]	@ 0x74
 80049a0:	f003 0302 	and.w	r3, r3, #2
 80049a4:	2b00      	cmp	r3, #0
 80049a6:	d1ee      	bne.n	8004986 <HAL_RCC_OscConfig+0x26e>
        }
      }
    }
  }
  /*------------------------------ LSE Configuration -------------------------*/
  if (((RCC_OscInitStruct->OscillatorType) & RCC_OSCILLATORTYPE_LSE) == RCC_OSCILLATORTYPE_LSE)
 80049a8:	687b      	ldr	r3, [r7, #4]
 80049aa:	681b      	ldr	r3, [r3, #0]
 80049ac:	f003 0304 	and.w	r3, r3, #4
 80049b0:	2b00      	cmp	r3, #0
 80049b2:	f000 80a4 	beq.w	8004afe <HAL_RCC_OscConfig+0x3e6>
    /* Check the parameters */
    assert_param(IS_RCC_LSE(RCC_OscInitStruct->LSEState));

    /* Update LSE configuration in Backup Domain control register    */
    /* Requires to enable write access to Backup Domain of necessary */
    if (__HAL_RCC_PWR_IS_CLK_DISABLED())
 80049b6:	4b8c      	ldr	r3, [pc, #560]	@ (8004be8 <HAL_RCC_OscConfig+0x4d0>)
 80049b8:	6c1b      	ldr	r3, [r3, #64]	@ 0x40
 80049ba:	f003 5380 	and.w	r3, r3, #268435456	@ 0x10000000
 80049be:	2b00      	cmp	r3, #0
 80049c0:	d10d      	bne.n	80049de <HAL_RCC_OscConfig+0x2c6>
    {
      /* Enable Power Clock*/
      __HAL_RCC_PWR_CLK_ENABLE();
 80049c2:	4b89      	ldr	r3, [pc, #548]	@ (8004be8 <HAL_RCC_OscConfig+0x4d0>)
 80049c4:	6c1b      	ldr	r3, [r3, #64]	@ 0x40
 80049c6:	4a88      	ldr	r2, [pc, #544]	@ (8004be8 <HAL_RCC_OscConfig+0x4d0>)
 80049c8:	f043 5380 	orr.w	r3, r3, #268435456	@ 0x10000000
 80049cc:	6413      	str	r3, [r2, #64]	@ 0x40
 80049ce:	4b86      	ldr	r3, [pc, #536]	@ (8004be8 <HAL_RCC_OscConfig+0x4d0>)
 80049d0:	6c1b      	ldr	r3, [r3, #64]	@ 0x40
 80049d2:	f003 5380 	and.w	r3, r3, #268435456	@ 0x10000000
 80049d6:	60bb      	str	r3, [r7, #8]
 80049d8:	68bb      	ldr	r3, [r7, #8]
      pwrclkchanged = SET;
 80049da:	2301      	movs	r3, #1
 80049dc:	75fb      	strb	r3, [r7, #23]
    }

    if (HAL_IS_BIT_CLR(PWR->CR1, PWR_CR1_DBP))
 80049de:	4b83      	ldr	r3, [pc, #524]	@ (8004bec <HAL_RCC_OscConfig+0x4d4>)
 80049e0:	681b      	ldr	r3, [r3, #0]
 80049e2:	f403 7380 	and.w	r3, r3, #256	@ 0x100
 80049e6:	2b00      	cmp	r3, #0
 80049e8:	d118      	bne.n	8004a1c <HAL_RCC_OscConfig+0x304>
    {
      /* Enable write access to Backup domain */
      PWR->CR1 |= PWR_CR1_DBP;
 80049ea:	4b80      	ldr	r3, [pc, #512]	@ (8004bec <HAL_RCC_OscConfig+0x4d4>)
 80049ec:	681b      	ldr	r3, [r3, #0]
 80049ee:	4a7f      	ldr	r2, [pc, #508]	@ (8004bec <HAL_RCC_OscConfig+0x4d4>)
 80049f0:	f443 7380 	orr.w	r3, r3, #256	@ 0x100
 80049f4:	6013      	str	r3, [r2, #0]

      /* Wait for Backup domain Write protection disable */
      tickstart = HAL_GetTick();
 80049f6:	f7fe f813 	bl	8002a20 <HAL_GetTick>
 80049fa:	6138      	str	r0, [r7, #16]

      while (HAL_IS_BIT_CLR(PWR->CR1, PWR_CR1_DBP))
 80049fc:	e008      	b.n	8004a10 <HAL_RCC_OscConfig+0x2f8>
      {
        if ((HAL_GetTick() - tickstart) > RCC_DBP_TIMEOUT_VALUE)
 80049fe:	f7fe f80f 	bl	8002a20 <HAL_GetTick>
 8004a02:	4602      	mov	r2, r0
 8004a04:	693b      	ldr	r3, [r7, #16]
 8004a06:	1ad3      	subs	r3, r2, r3
 8004a08:	2b64      	cmp	r3, #100	@ 0x64
 8004a0a:	d901      	bls.n	8004a10 <HAL_RCC_OscConfig+0x2f8>
        {
          return HAL_TIMEOUT;
 8004a0c:	2303      	movs	r3, #3
 8004a0e:	e12a      	b.n	8004c66 <HAL_RCC_OscConfig+0x54e>
      while (HAL_IS_BIT_CLR(PWR->CR1, PWR_CR1_DBP))
 8004a10:	4b76      	ldr	r3, [pc, #472]	@ (8004bec <HAL_RCC_OscConfig+0x4d4>)
 8004a12:	681b      	ldr	r3, [r3, #0]
 8004a14:	f403 7380 	and.w	r3, r3, #256	@ 0x100
 8004a18:	2b00      	cmp	r3, #0
 8004a1a:	d0f0      	beq.n	80049fe <HAL_RCC_OscConfig+0x2e6>
        }
      }
    }

    /* Set the new LSE configuration -----------------------------------------*/
    __HAL_RCC_LSE_CONFIG(RCC_OscInitStruct->LSEState);
 8004a1c:	687b      	ldr	r3, [r7, #4]
 8004a1e:	689b      	ldr	r3, [r3, #8]
 8004a20:	2b01      	cmp	r3, #1
 8004a22:	d106      	bne.n	8004a32 <HAL_RCC_OscConfig+0x31a>
 8004a24:	4b70      	ldr	r3, [pc, #448]	@ (8004be8 <HAL_RCC_OscConfig+0x4d0>)
 8004a26:	6f1b      	ldr	r3, [r3, #112]	@ 0x70
 8004a28:	4a6f      	ldr	r2, [pc, #444]	@ (8004be8 <HAL_RCC_OscConfig+0x4d0>)
 8004a2a:	f043 0301 	orr.w	r3, r3, #1
 8004a2e:	6713      	str	r3, [r2, #112]	@ 0x70
 8004a30:	e02d      	b.n	8004a8e <HAL_RCC_OscConfig+0x376>
 8004a32:	687b      	ldr	r3, [r7, #4]
 8004a34:	689b      	ldr	r3, [r3, #8]
 8004a36:	2b00      	cmp	r3, #0
 8004a38:	d10c      	bne.n	8004a54 <HAL_RCC_OscConfig+0x33c>
 8004a3a:	4b6b      	ldr	r3, [pc, #428]	@ (8004be8 <HAL_RCC_OscConfig+0x4d0>)
 8004a3c:	6f1b      	ldr	r3, [r3, #112]	@ 0x70
 8004a3e:	4a6a      	ldr	r2, [pc, #424]	@ (8004be8 <HAL_RCC_OscConfig+0x4d0>)
 8004a40:	f023 0301 	bic.w	r3, r3, #1
 8004a44:	6713      	str	r3, [r2, #112]	@ 0x70
 8004a46:	4b68      	ldr	r3, [pc, #416]	@ (8004be8 <HAL_RCC_OscConfig+0x4d0>)
 8004a48:	6f1b      	ldr	r3, [r3, #112]	@ 0x70
 8004a4a:	4a67      	ldr	r2, [pc, #412]	@ (8004be8 <HAL_RCC_OscConfig+0x4d0>)
 8004a4c:	f023 0304 	bic.w	r3, r3, #4
 8004a50:	6713      	str	r3, [r2, #112]	@ 0x70
 8004a52:	e01c      	b.n	8004a8e <HAL_RCC_OscConfig+0x376>
 8004a54:	687b      	ldr	r3, [r7, #4]
 8004a56:	689b      	ldr	r3, [r3, #8]
 8004a58:	2b05      	cmp	r3, #5
 8004a5a:	d10c      	bne.n	8004a76 <HAL_RCC_OscConfig+0x35e>
 8004a5c:	4b62      	ldr	r3, [pc, #392]	@ (8004be8 <HAL_RCC_OscConfig+0x4d0>)
 8004a5e:	6f1b      	ldr	r3, [r3, #112]	@ 0x70
 8004a60:	4a61      	ldr	r2, [pc, #388]	@ (8004be8 <HAL_RCC_OscConfig+0x4d0>)
 8004a62:	f043 0304 	orr.w	r3, r3, #4
 8004a66:	6713      	str	r3, [r2, #112]	@ 0x70
 8004a68:	4b5f      	ldr	r3, [pc, #380]	@ (8004be8 <HAL_RCC_OscConfig+0x4d0>)
 8004a6a:	6f1b      	ldr	r3, [r3, #112]	@ 0x70
 8004a6c:	4a5e      	ldr	r2, [pc, #376]	@ (8004be8 <HAL_RCC_OscConfig+0x4d0>)
 8004a6e:	f043 0301 	orr.w	r3, r3, #1
 8004a72:	6713      	str	r3, [r2, #112]	@ 0x70
 8004a74:	e00b      	b.n	8004a8e <HAL_RCC_OscConfig+0x376>
 8004a76:	4b5c      	ldr	r3, [pc, #368]	@ (8004be8 <HAL_RCC_OscConfig+0x4d0>)
 8004a78:	6f1b      	ldr	r3, [r3, #112]	@ 0x70
 8004a7a:	4a5b      	ldr	r2, [pc, #364]	@ (8004be8 <HAL_RCC_OscConfig+0x4d0>)
 8004a7c:	f023 0301 	bic.w	r3, r3, #1
 8004a80:	6713      	str	r3, [r2, #112]	@ 0x70
 8004a82:	4b59      	ldr	r3, [pc, #356]	@ (8004be8 <HAL_RCC_OscConfig+0x4d0>)
 8004a84:	6f1b      	ldr	r3, [r3, #112]	@ 0x70
 8004a86:	4a58      	ldr	r2, [pc, #352]	@ (8004be8 <HAL_RCC_OscConfig+0x4d0>)
 8004a88:	f023 0304 	bic.w	r3, r3, #4
 8004a8c:	6713      	str	r3, [r2, #112]	@ 0x70
    /* Check the LSE State */
    if ((RCC_OscInitStruct->LSEState) != RCC_LSE_OFF)
 8004a8e:	687b      	ldr	r3, [r7, #4]
 8004a90:	689b      	ldr	r3, [r3, #8]
 8004a92:	2b00      	cmp	r3, #0
 8004a94:	d015      	beq.n	8004ac2 <HAL_RCC_OscConfig+0x3aa>
    {
      /* Get Start Tick*/
      tickstart = HAL_GetTick();
 8004a96:	f7fd ffc3 	bl	8002a20 <HAL_GetTick>
 8004a9a:	6138      	str	r0, [r7, #16]

      /* Wait till LSE is ready */
      while (__HAL_RCC_GET_FLAG(RCC_FLAG_LSERDY) == RESET)
 8004a9c:	e00a      	b.n	8004ab4 <HAL_RCC_OscConfig+0x39c>
      {
        if ((HAL_GetTick() - tickstart) > RCC_LSE_TIMEOUT_VALUE)
 8004a9e:	f7fd ffbf 	bl	8002a20 <HAL_GetTick>
 8004aa2:	4602      	mov	r2, r0
 8004aa4:	693b      	ldr	r3, [r7, #16]
 8004aa6:	1ad3      	subs	r3, r2, r3
 8004aa8:	f241 3288 	movw	r2, #5000	@ 0x1388
 8004aac:	4293      	cmp	r3, r2
 8004aae:	d901      	bls.n	8004ab4 <HAL_RCC_OscConfig+0x39c>
        {
          return HAL_TIMEOUT;
 8004ab0:	2303      	movs	r3, #3
 8004ab2:	e0d8      	b.n	8004c66 <HAL_RCC_OscConfig+0x54e>
      while (__HAL_RCC_GET_FLAG(RCC_FLAG_LSERDY) == RESET)
 8004ab4:	4b4c      	ldr	r3, [pc, #304]	@ (8004be8 <HAL_RCC_OscConfig+0x4d0>)
 8004ab6:	6f1b      	ldr	r3, [r3, #112]	@ 0x70
 8004ab8:	f003 0302 	and.w	r3, r3, #2
 8004abc:	2b00      	cmp	r3, #0
 8004abe:	d0ee      	beq.n	8004a9e <HAL_RCC_OscConfig+0x386>
 8004ac0:	e014      	b.n	8004aec <HAL_RCC_OscConfig+0x3d4>
      }
    }
    else
    {
      /* Get Start Tick*/
      tickstart = HAL_GetTick();
 8004ac2:	f7fd ffad 	bl	8002a20 <HAL_GetTick>
 8004ac6:	6138      	str	r0, [r7, #16]

      /* Wait till LSE is ready */
      while (__HAL_RCC_GET_FLAG(RCC_FLAG_LSERDY) != RESET)
 8004ac8:	e00a      	b.n	8004ae0 <HAL_RCC_OscConfig+0x3c8>
      {
        if ((HAL_GetTick() - tickstart) > RCC_LSE_TIMEOUT_VALUE)
 8004aca:	f7fd ffa9 	bl	8002a20 <HAL_GetTick>
 8004ace:	4602      	mov	r2, r0
 8004ad0:	693b      	ldr	r3, [r7, #16]
 8004ad2:	1ad3      	subs	r3, r2, r3
 8004ad4:	f241 3288 	movw	r2, #5000	@ 0x1388
 8004ad8:	4293      	cmp	r3, r2
 8004ada:	d901      	bls.n	8004ae0 <HAL_RCC_OscConfig+0x3c8>
        {
          return HAL_TIMEOUT;
 8004adc:	2303      	movs	r3, #3
 8004ade:	e0c2      	b.n	8004c66 <HAL_RCC_OscConfig+0x54e>
      while (__HAL_RCC_GET_FLAG(RCC_FLAG_LSERDY) != RESET)
 8004ae0:	4b41      	ldr	r3, [pc, #260]	@ (8004be8 <HAL_RCC_OscConfig+0x4d0>)
 8004ae2:	6f1b      	ldr	r3, [r3, #112]	@ 0x70
 8004ae4:	f003 0302 	and.w	r3, r3, #2
 8004ae8:	2b00      	cmp	r3, #0
 8004aea:	d1ee      	bne.n	8004aca <HAL_RCC_OscConfig+0x3b2>
        }
      }
    }

    /* Restore clock configuration if changed */
    if (pwrclkchanged == SET)
 8004aec:	7dfb      	ldrb	r3, [r7, #23]
 8004aee:	2b01      	cmp	r3, #1
 8004af0:	d105      	bne.n	8004afe <HAL_RCC_OscConfig+0x3e6>
    {
      __HAL_RCC_PWR_CLK_DISABLE();
 8004af2:	4b3d      	ldr	r3, [pc, #244]	@ (8004be8 <HAL_RCC_OscConfig+0x4d0>)
 8004af4:	6c1b      	ldr	r3, [r3, #64]	@ 0x40
 8004af6:	4a3c      	ldr	r2, [pc, #240]	@ (8004be8 <HAL_RCC_OscConfig+0x4d0>)
 8004af8:	f023 5380 	bic.w	r3, r3, #268435456	@ 0x10000000
 8004afc:	6413      	str	r3, [r2, #64]	@ 0x40
    }
  }
  /*-------------------------------- PLL Configuration -----------------------*/
  /* Check the parameters */
  assert_param(IS_RCC_PLL(RCC_OscInitStruct->PLL.PLLState));
  if ((RCC_OscInitStruct->PLL.PLLState) != RCC_PLL_NONE)
 8004afe:	687b      	ldr	r3, [r7, #4]
 8004b00:	699b      	ldr	r3, [r3, #24]
 8004b02:	2b00      	cmp	r3, #0
 8004b04:	f000 80ae 	beq.w	8004c64 <HAL_RCC_OscConfig+0x54c>
  {
    /* Check if the PLL is used as system clock or not */
    if (__HAL_RCC_GET_SYSCLK_SOURCE() != RCC_SYSCLKSOURCE_STATUS_PLLCLK)
 8004b08:	4b37      	ldr	r3, [pc, #220]	@ (8004be8 <HAL_RCC_OscConfig+0x4d0>)
 8004b0a:	689b      	ldr	r3, [r3, #8]
 8004b0c:	f003 030c 	and.w	r3, r3, #12
 8004b10:	2b08      	cmp	r3, #8
 8004b12:	d06d      	beq.n	8004bf0 <HAL_RCC_OscConfig+0x4d8>
    {
      if ((RCC_OscInitStruct->PLL.PLLState) == RCC_PLL_ON)
 8004b14:	687b      	ldr	r3, [r7, #4]
 8004b16:	699b      	ldr	r3, [r3, #24]
 8004b18:	2b02      	cmp	r3, #2
 8004b1a:	d14b      	bne.n	8004bb4 <HAL_RCC_OscConfig+0x49c>
#if defined (RCC_PLLCFGR_PLLR)
        assert_param(IS_RCC_PLLR_VALUE(RCC_OscInitStruct->PLL.PLLR));
#endif

        /* Disable the main PLL. */
        __HAL_RCC_PLL_DISABLE();
 8004b1c:	4b32      	ldr	r3, [pc, #200]	@ (8004be8 <HAL_RCC_OscConfig+0x4d0>)
 8004b1e:	681b      	ldr	r3, [r3, #0]
 8004b20:	4a31      	ldr	r2, [pc, #196]	@ (8004be8 <HAL_RCC_OscConfig+0x4d0>)
 8004b22:	f023 7380 	bic.w	r3, r3, #16777216	@ 0x1000000
 8004b26:	6013      	str	r3, [r2, #0]

        /* Get Start Tick*/
        tickstart = HAL_GetTick();
 8004b28:	f7fd ff7a 	bl	8002a20 <HAL_GetTick>
 8004b2c:	6138      	str	r0, [r7, #16]

        /* Wait till PLL is ready */
        while (__HAL_RCC_GET_FLAG(RCC_FLAG_PLLRDY) != RESET)
 8004b2e:	e008      	b.n	8004b42 <HAL_RCC_OscConfig+0x42a>
        {
          if ((HAL_GetTick() - tickstart) > PLL_TIMEOUT_VALUE)
 8004b30:	f7fd ff76 	bl	8002a20 <HAL_GetTick>
 8004b34:	4602      	mov	r2, r0
 8004b36:	693b      	ldr	r3, [r7, #16]
 8004b38:	1ad3      	subs	r3, r2, r3
 8004b3a:	2b02      	cmp	r3, #2
 8004b3c:	d901      	bls.n	8004b42 <HAL_RCC_OscConfig+0x42a>
          {
            return HAL_TIMEOUT;
 8004b3e:	2303      	movs	r3, #3
 8004b40:	e091      	b.n	8004c66 <HAL_RCC_OscConfig+0x54e>
        while (__HAL_RCC_GET_FLAG(RCC_FLAG_PLLRDY) != RESET)
 8004b42:	4b29      	ldr	r3, [pc, #164]	@ (8004be8 <HAL_RCC_OscConfig+0x4d0>)
 8004b44:	681b      	ldr	r3, [r3, #0]
 8004b46:	f003 7300 	and.w	r3, r3, #33554432	@ 0x2000000
 8004b4a:	2b00      	cmp	r3, #0
 8004b4c:	d1f0      	bne.n	8004b30 <HAL_RCC_OscConfig+0x418>
          }
        }

        /* Configure the main PLL clock source, multiplication and division factors. */
#if defined (RCC_PLLCFGR_PLLR)
        __HAL_RCC_PLL_CONFIG(RCC_OscInitStruct->PLL.PLLSource,
 8004b4e:	687b      	ldr	r3, [r7, #4]
 8004b50:	69da      	ldr	r2, [r3, #28]
 8004b52:	687b      	ldr	r3, [r7, #4]
 8004b54:	6a1b      	ldr	r3, [r3, #32]
 8004b56:	431a      	orrs	r2, r3
 8004b58:	687b      	ldr	r3, [r7, #4]
 8004b5a:	6a5b      	ldr	r3, [r3, #36]	@ 0x24
 8004b5c:	019b      	lsls	r3, r3, #6
 8004b5e:	431a      	orrs	r2, r3
 8004b60:	687b      	ldr	r3, [r7, #4]
 8004b62:	6a9b      	ldr	r3, [r3, #40]	@ 0x28
 8004b64:	085b      	lsrs	r3, r3, #1
 8004b66:	3b01      	subs	r3, #1
 8004b68:	041b      	lsls	r3, r3, #16
 8004b6a:	431a      	orrs	r2, r3
 8004b6c:	687b      	ldr	r3, [r7, #4]
 8004b6e:	6adb      	ldr	r3, [r3, #44]	@ 0x2c
 8004b70:	061b      	lsls	r3, r3, #24
 8004b72:	431a      	orrs	r2, r3
 8004b74:	687b      	ldr	r3, [r7, #4]
 8004b76:	6b1b      	ldr	r3, [r3, #48]	@ 0x30
 8004b78:	071b      	lsls	r3, r3, #28
 8004b7a:	491b      	ldr	r1, [pc, #108]	@ (8004be8 <HAL_RCC_OscConfig+0x4d0>)
 8004b7c:	4313      	orrs	r3, r2
 8004b7e:	604b      	str	r3, [r1, #4]
                             RCC_OscInitStruct->PLL.PLLP,
                             RCC_OscInitStruct->PLL.PLLQ);
#endif

        /* Enable the main PLL. */
        __HAL_RCC_PLL_ENABLE();
 8004b80:	4b19      	ldr	r3, [pc, #100]	@ (8004be8 <HAL_RCC_OscConfig+0x4d0>)
 8004b82:	681b      	ldr	r3, [r3, #0]
 8004b84:	4a18      	ldr	r2, [pc, #96]	@ (8004be8 <HAL_RCC_OscConfig+0x4d0>)
 8004b86:	f043 7380 	orr.w	r3, r3, #16777216	@ 0x1000000
 8004b8a:	6013      	str	r3, [r2, #0]

        /* Get Start Tick*/
        tickstart = HAL_GetTick();
 8004b8c:	f7fd ff48 	bl	8002a20 <HAL_GetTick>
 8004b90:	6138      	str	r0, [r7, #16]

        /* Wait till PLL is ready */
        while (__HAL_RCC_GET_FLAG(RCC_FLAG_PLLRDY) == RESET)
 8004b92:	e008      	b.n	8004ba6 <HAL_RCC_OscConfig+0x48e>
        {
          if ((HAL_GetTick() - tickstart) > PLL_TIMEOUT_VALUE)
 8004b94:	f7fd ff44 	bl	8002a20 <HAL_GetTick>
 8004b98:	4602      	mov	r2, r0
 8004b9a:	693b      	ldr	r3, [r7, #16]
 8004b9c:	1ad3      	subs	r3, r2, r3
 8004b9e:	2b02      	cmp	r3, #2
 8004ba0:	d901      	bls.n	8004ba6 <HAL_RCC_OscConfig+0x48e>
          {
            return HAL_TIMEOUT;
 8004ba2:	2303      	movs	r3, #3
 8004ba4:	e05f      	b.n	8004c66 <HAL_RCC_OscConfig+0x54e>
        while (__HAL_RCC_GET_FLAG(RCC_FLAG_PLLRDY) == RESET)
 8004ba6:	4b10      	ldr	r3, [pc, #64]	@ (8004be8 <HAL_RCC_OscConfig+0x4d0>)
 8004ba8:	681b      	ldr	r3, [r3, #0]
 8004baa:	f003 7300 	and.w	r3, r3, #33554432	@ 0x2000000
 8004bae:	2b00      	cmp	r3, #0
 8004bb0:	d0f0      	beq.n	8004b94 <HAL_RCC_OscConfig+0x47c>
 8004bb2:	e057      	b.n	8004c64 <HAL_RCC_OscConfig+0x54c>
        }
      }
      else
      {
        /* Disable the main PLL. */
        __HAL_RCC_PLL_DISABLE();
 8004bb4:	4b0c      	ldr	r3, [pc, #48]	@ (8004be8 <HAL_RCC_OscConfig+0x4d0>)
 8004bb6:	681b      	ldr	r3, [r3, #0]
 8004bb8:	4a0b      	ldr	r2, [pc, #44]	@ (8004be8 <HAL_RCC_OscConfig+0x4d0>)
 8004bba:	f023 7380 	bic.w	r3, r3, #16777216	@ 0x1000000
 8004bbe:	6013      	str	r3, [r2, #0]

        /* Get Start Tick*/
        tickstart = HAL_GetTick();
 8004bc0:	f7fd ff2e 	bl	8002a20 <HAL_GetTick>
 8004bc4:	6138      	str	r0, [r7, #16]

        /* Wait till PLL is ready */
        while (__HAL_RCC_GET_FLAG(RCC_FLAG_PLLRDY) != RESET)
 8004bc6:	e008      	b.n	8004bda <HAL_RCC_OscConfig+0x4c2>
        {
          if ((HAL_GetTick() - tickstart) > PLL_TIMEOUT_VALUE)
 8004bc8:	f7fd ff2a 	bl	8002a20 <HAL_GetTick>
 8004bcc:	4602      	mov	r2, r0
 8004bce:	693b      	ldr	r3, [r7, #16]
 8004bd0:	1ad3      	subs	r3, r2, r3
 8004bd2:	2b02      	cmp	r3, #2
 8004bd4:	d901      	bls.n	8004bda <HAL_RCC_OscConfig+0x4c2>
          {
            return HAL_TIMEOUT;
 8004bd6:	2303      	movs	r3, #3
 8004bd8:	e045      	b.n	8004c66 <HAL_RCC_OscConfig+0x54e>
        while (__HAL_RCC_GET_FLAG(RCC_FLAG_PLLRDY) != RESET)
 8004bda:	4b03      	ldr	r3, [pc, #12]	@ (8004be8 <HAL_RCC_OscConfig+0x4d0>)
 8004bdc:	681b      	ldr	r3, [r3, #0]
 8004bde:	f003 7300 	and.w	r3, r3, #33554432	@ 0x2000000
 8004be2:	2b00      	cmp	r3, #0
 8004be4:	d1f0      	bne.n	8004bc8 <HAL_RCC_OscConfig+0x4b0>
 8004be6:	e03d      	b.n	8004c64 <HAL_RCC_OscConfig+0x54c>
 8004be8:	40023800 	.word	0x40023800
 8004bec:	40007000 	.word	0x40007000
      }
    }
    else
    {
      /* Do not return HAL_ERROR if request repeats the current configuration */
      pll_config = RCC->PLLCFGR;
 8004bf0:	4b1f      	ldr	r3, [pc, #124]	@ (8004c70 <HAL_RCC_OscConfig+0x558>)
 8004bf2:	685b      	ldr	r3, [r3, #4]
 8004bf4:	60fb      	str	r3, [r7, #12]
#if defined (RCC_PLLCFGR_PLLR)
      if (((RCC_OscInitStruct->PLL.PLLState) == RCC_PLL_OFF) ||
 8004bf6:	687b      	ldr	r3, [r7, #4]
 8004bf8:	699b      	ldr	r3, [r3, #24]
 8004bfa:	2b01      	cmp	r3, #1
 8004bfc:	d030      	beq.n	8004c60 <HAL_RCC_OscConfig+0x548>
          (READ_BIT(pll_config, RCC_PLLCFGR_PLLSRC) != RCC_OscInitStruct->PLL.PLLSource) ||
 8004bfe:	68fb      	ldr	r3, [r7, #12]
 8004c00:	f403 0280 	and.w	r2, r3, #4194304	@ 0x400000
 8004c04:	687b      	ldr	r3, [r7, #4]
 8004c06:	69db      	ldr	r3, [r3, #28]
      if (((RCC_OscInitStruct->PLL.PLLState) == RCC_PLL_OFF) ||
 8004c08:	429a      	cmp	r2, r3
 8004c0a:	d129      	bne.n	8004c60 <HAL_RCC_OscConfig+0x548>
          (READ_BIT(pll_config, RCC_PLLCFGR_PLLM) != RCC_OscInitStruct->PLL.PLLM) ||
 8004c0c:	68fb      	ldr	r3, [r7, #12]
 8004c0e:	f003 023f 	and.w	r2, r3, #63	@ 0x3f
 8004c12:	687b      	ldr	r3, [r7, #4]
 8004c14:	6a1b      	ldr	r3, [r3, #32]
          (READ_BIT(pll_config, RCC_PLLCFGR_PLLSRC) != RCC_OscInitStruct->PLL.PLLSource) ||
 8004c16:	429a      	cmp	r2, r3
 8004c18:	d122      	bne.n	8004c60 <HAL_RCC_OscConfig+0x548>
          (READ_BIT(pll_config, RCC_PLLCFGR_PLLN) != (RCC_OscInitStruct->PLL.PLLN << RCC_PLLCFGR_PLLN_Pos)) ||
 8004c1a:	68fa      	ldr	r2, [r7, #12]
 8004c1c:	f647 73c0 	movw	r3, #32704	@ 0x7fc0
 8004c20:	4013      	ands	r3, r2
 8004c22:	687a      	ldr	r2, [r7, #4]
 8004c24:	6a52      	ldr	r2, [r2, #36]	@ 0x24
 8004c26:	0192      	lsls	r2, r2, #6
          (READ_BIT(pll_config, RCC_PLLCFGR_PLLM) != RCC_OscInitStruct->PLL.PLLM) ||
 8004c28:	4293      	cmp	r3, r2
 8004c2a:	d119      	bne.n	8004c60 <HAL_RCC_OscConfig+0x548>
          (READ_BIT(pll_config, RCC_PLLCFGR_PLLP) != ((((RCC_OscInitStruct->PLL.PLLP) >> 1U) - 1U) << RCC_PLLCFGR_PLLP_Pos)) ||
 8004c2c:	68fb      	ldr	r3, [r7, #12]
 8004c2e:	f403 3240 	and.w	r2, r3, #196608	@ 0x30000
 8004c32:	687b      	ldr	r3, [r7, #4]
 8004c34:	6a9b      	ldr	r3, [r3, #40]	@ 0x28
 8004c36:	085b      	lsrs	r3, r3, #1
 8004c38:	3b01      	subs	r3, #1
 8004c3a:	041b      	lsls	r3, r3, #16
          (READ_BIT(pll_config, RCC_PLLCFGR_PLLN) != (RCC_OscInitStruct->PLL.PLLN << RCC_PLLCFGR_PLLN_Pos)) ||
 8004c3c:	429a      	cmp	r2, r3
 8004c3e:	d10f      	bne.n	8004c60 <HAL_RCC_OscConfig+0x548>
          (READ_BIT(pll_config, RCC_PLLCFGR_PLLQ) != (RCC_OscInitStruct->PLL.PLLQ << RCC_PLLCFGR_PLLQ_Pos)) ||
 8004c40:	68fb      	ldr	r3, [r7, #12]
 8004c42:	f003 6270 	and.w	r2, r3, #251658240	@ 0xf000000
 8004c46:	687b      	ldr	r3, [r7, #4]
 8004c48:	6adb      	ldr	r3, [r3, #44]	@ 0x2c
 8004c4a:	061b      	lsls	r3, r3, #24
          (READ_BIT(pll_config, RCC_PLLCFGR_PLLP) != ((((RCC_OscInitStruct->PLL.PLLP) >> 1U) - 1U) << RCC_PLLCFGR_PLLP_Pos)) ||
 8004c4c:	429a      	cmp	r2, r3
 8004c4e:	d107      	bne.n	8004c60 <HAL_RCC_OscConfig+0x548>
          (READ_BIT(pll_config, RCC_PLLCFGR_PLLR) != (RCC_OscInitStruct->PLL.PLLR << RCC_PLLCFGR_PLLR_Pos)))
 8004c50:	68fb      	ldr	r3, [r7, #12]
 8004c52:	f003 42e0 	and.w	r2, r3, #1879048192	@ 0x70000000
 8004c56:	687b      	ldr	r3, [r7, #4]
 8004c58:	6b1b      	ldr	r3, [r3, #48]	@ 0x30
 8004c5a:	071b      	lsls	r3, r3, #28
          (READ_BIT(pll_config, RCC_PLLCFGR_PLLQ) != (RCC_OscInitStruct->PLL.PLLQ << RCC_PLLCFGR_PLLQ_Pos)) ||
 8004c5c:	429a      	cmp	r2, r3
 8004c5e:	d001      	beq.n	8004c64 <HAL_RCC_OscConfig+0x54c>
          (READ_BIT(pll_config, RCC_PLLCFGR_PLLN) != (RCC_OscInitStruct->PLL.PLLN << RCC_PLLCFGR_PLLN_Pos)) ||
          (READ_BIT(pll_config, RCC_PLLCFGR_PLLP) != ((((RCC_OscInitStruct->PLL.PLLP) >> 1U) - 1U) << RCC_PLLCFGR_PLLP_Pos)) ||
          (READ_BIT(pll_config, RCC_PLLCFGR_PLLQ) != (RCC_OscInitStruct->PLL.PLLQ << RCC_PLLCFGR_PLLQ_Pos)))
#endif
      {
        return HAL_ERROR;
 8004c60:	2301      	movs	r3, #1
 8004c62:	e000      	b.n	8004c66 <HAL_RCC_OscConfig+0x54e>
      }
    }
  }
  return HAL_OK;
 8004c64:	2300      	movs	r3, #0
}
 8004c66:	4618      	mov	r0, r3
 8004c68:	3718      	adds	r7, #24
 8004c6a:	46bd      	mov	sp, r7
 8004c6c:	bd80      	pop	{r7, pc}
 8004c6e:	bf00      	nop
 8004c70:	40023800 	.word	0x40023800

08004c74 <HAL_RCC_ClockConfig>:
  *         HPRE[3:0] bits to ensure that HCLK not exceed the maximum allowed frequency
  *         (for more details refer to section above "Initialization/de-initialization functions")
  * @retval None
  */
HAL_StatusTypeDef HAL_RCC_ClockConfig(const RCC_ClkInitTypeDef  *RCC_ClkInitStruct, uint32_t FLatency)
{
 8004c74:	b580      	push	{r7, lr}
 8004c76:	b084      	sub	sp, #16
 8004c78:	af00      	add	r7, sp, #0
 8004c7a:	6078      	str	r0, [r7, #4]
 8004c7c:	6039      	str	r1, [r7, #0]
  uint32_t tickstart = 0;
 8004c7e:	2300      	movs	r3, #0
 8004c80:	60fb      	str	r3, [r7, #12]

  /* Check Null pointer */
  if (RCC_ClkInitStruct == NULL)
 8004c82:	687b      	ldr	r3, [r7, #4]
 8004c84:	2b00      	cmp	r3, #0
 8004c86:	d101      	bne.n	8004c8c <HAL_RCC_ClockConfig+0x18>
  {
    return HAL_ERROR;
 8004c88:	2301      	movs	r3, #1
 8004c8a:	e0d0      	b.n	8004e2e <HAL_RCC_ClockConfig+0x1ba>
  /* To correctly read data from FLASH memory, the number of wait states (LATENCY)
     must be correctly programmed according to the frequency of the CPU clock
     (HCLK) and the supply voltage of the device. */

  /* Increasing the CPU frequency */
  if (FLatency > __HAL_FLASH_GET_LATENCY())
 8004c8c:	4b6a      	ldr	r3, [pc, #424]	@ (8004e38 <HAL_RCC_ClockConfig+0x1c4>)
 8004c8e:	681b      	ldr	r3, [r3, #0]
 8004c90:	f003 030f 	and.w	r3, r3, #15
 8004c94:	683a      	ldr	r2, [r7, #0]
 8004c96:	429a      	cmp	r2, r3
 8004c98:	d910      	bls.n	8004cbc <HAL_RCC_ClockConfig+0x48>
  {
    /* Program the new number of wait states to the LATENCY bits in the FLASH_ACR register */
    __HAL_FLASH_SET_LATENCY(FLatency);
 8004c9a:	4b67      	ldr	r3, [pc, #412]	@ (8004e38 <HAL_RCC_ClockConfig+0x1c4>)
 8004c9c:	681b      	ldr	r3, [r3, #0]
 8004c9e:	f023 020f 	bic.w	r2, r3, #15
 8004ca2:	4965      	ldr	r1, [pc, #404]	@ (8004e38 <HAL_RCC_ClockConfig+0x1c4>)
 8004ca4:	683b      	ldr	r3, [r7, #0]
 8004ca6:	4313      	orrs	r3, r2
 8004ca8:	600b      	str	r3, [r1, #0]

    /* Check that the new number of wait states is taken into account to access the Flash
    memory by reading the FLASH_ACR register */
    if (__HAL_FLASH_GET_LATENCY() != FLatency)
 8004caa:	4b63      	ldr	r3, [pc, #396]	@ (8004e38 <HAL_RCC_ClockConfig+0x1c4>)
 8004cac:	681b      	ldr	r3, [r3, #0]
 8004cae:	f003 030f 	and.w	r3, r3, #15
 8004cb2:	683a      	ldr	r2, [r7, #0]
 8004cb4:	429a      	cmp	r2, r3
 8004cb6:	d001      	beq.n	8004cbc <HAL_RCC_ClockConfig+0x48>
    {
      return HAL_ERROR;
 8004cb8:	2301      	movs	r3, #1
 8004cba:	e0b8      	b.n	8004e2e <HAL_RCC_ClockConfig+0x1ba>
    }
  }

  /*-------------------------- HCLK Configuration --------------------------*/
  if (((RCC_ClkInitStruct->ClockType) & RCC_CLOCKTYPE_HCLK) == RCC_CLOCKTYPE_HCLK)
 8004cbc:	687b      	ldr	r3, [r7, #4]
 8004cbe:	681b      	ldr	r3, [r3, #0]
 8004cc0:	f003 0302 	and.w	r3, r3, #2
 8004cc4:	2b00      	cmp	r3, #0
 8004cc6:	d020      	beq.n	8004d0a <HAL_RCC_ClockConfig+0x96>
  {
    /* Set the highest APBx dividers in order to ensure that we do not go through
       a non-spec phase whatever we decrease or increase HCLK. */
    if (((RCC_ClkInitStruct->ClockType) & RCC_CLOCKTYPE_PCLK1) == RCC_CLOCKTYPE_PCLK1)
 8004cc8:	687b      	ldr	r3, [r7, #4]
 8004cca:	681b      	ldr	r3, [r3, #0]
 8004ccc:	f003 0304 	and.w	r3, r3, #4
 8004cd0:	2b00      	cmp	r3, #0
 8004cd2:	d005      	beq.n	8004ce0 <HAL_RCC_ClockConfig+0x6c>
    {
      MODIFY_REG(RCC->CFGR, RCC_CFGR_PPRE1, RCC_HCLK_DIV16);
 8004cd4:	4b59      	ldr	r3, [pc, #356]	@ (8004e3c <HAL_RCC_ClockConfig+0x1c8>)
 8004cd6:	689b      	ldr	r3, [r3, #8]
 8004cd8:	4a58      	ldr	r2, [pc, #352]	@ (8004e3c <HAL_RCC_ClockConfig+0x1c8>)
 8004cda:	f443 53e0 	orr.w	r3, r3, #7168	@ 0x1c00
 8004cde:	6093      	str	r3, [r2, #8]
    }

    if (((RCC_ClkInitStruct->ClockType) & RCC_CLOCKTYPE_PCLK2) == RCC_CLOCKTYPE_PCLK2)
 8004ce0:	687b      	ldr	r3, [r7, #4]
 8004ce2:	681b      	ldr	r3, [r3, #0]
 8004ce4:	f003 0308 	and.w	r3, r3, #8
 8004ce8:	2b00      	cmp	r3, #0
 8004cea:	d005      	beq.n	8004cf8 <HAL_RCC_ClockConfig+0x84>
    {
      MODIFY_REG(RCC->CFGR, RCC_CFGR_PPRE2, (RCC_HCLK_DIV16 << 3));
 8004cec:	4b53      	ldr	r3, [pc, #332]	@ (8004e3c <HAL_RCC_ClockConfig+0x1c8>)
 8004cee:	689b      	ldr	r3, [r3, #8]
 8004cf0:	4a52      	ldr	r2, [pc, #328]	@ (8004e3c <HAL_RCC_ClockConfig+0x1c8>)
 8004cf2:	f443 4360 	orr.w	r3, r3, #57344	@ 0xe000
 8004cf6:	6093      	str	r3, [r2, #8]
    }

    /* Set the new HCLK clock divider */
    assert_param(IS_RCC_HCLK(RCC_ClkInitStruct->AHBCLKDivider));
    MODIFY_REG(RCC->CFGR, RCC_CFGR_HPRE, RCC_ClkInitStruct->AHBCLKDivider);
 8004cf8:	4b50      	ldr	r3, [pc, #320]	@ (8004e3c <HAL_RCC_ClockConfig+0x1c8>)
 8004cfa:	689b      	ldr	r3, [r3, #8]
 8004cfc:	f023 02f0 	bic.w	r2, r3, #240	@ 0xf0
 8004d00:	687b      	ldr	r3, [r7, #4]
 8004d02:	689b      	ldr	r3, [r3, #8]
 8004d04:	494d      	ldr	r1, [pc, #308]	@ (8004e3c <HAL_RCC_ClockConfig+0x1c8>)
 8004d06:	4313      	orrs	r3, r2
 8004d08:	608b      	str	r3, [r1, #8]
  }

  /*------------------------- SYSCLK Configuration ---------------------------*/
  if (((RCC_ClkInitStruct->ClockType) & RCC_CLOCKTYPE_SYSCLK) == RCC_CLOCKTYPE_SYSCLK)
 8004d0a:	687b      	ldr	r3, [r7, #4]
 8004d0c:	681b      	ldr	r3, [r3, #0]
 8004d0e:	f003 0301 	and.w	r3, r3, #1
 8004d12:	2b00      	cmp	r3, #0
 8004d14:	d040      	beq.n	8004d98 <HAL_RCC_ClockConfig+0x124>
  {
    assert_param(IS_RCC_SYSCLKSOURCE(RCC_ClkInitStruct->SYSCLKSource));

    /* HSE is selected as System Clock Source */
    if (RCC_ClkInitStruct->SYSCLKSource == RCC_SYSCLKSOURCE_HSE)
 8004d16:	687b      	ldr	r3, [r7, #4]
 8004d18:	685b      	ldr	r3, [r3, #4]
 8004d1a:	2b01      	cmp	r3, #1
 8004d1c:	d107      	bne.n	8004d2e <HAL_RCC_ClockConfig+0xba>
    {
      /* Check the HSE ready flag */
      if (__HAL_RCC_GET_FLAG(RCC_FLAG_HSERDY) == RESET)
 8004d1e:	4b47      	ldr	r3, [pc, #284]	@ (8004e3c <HAL_RCC_ClockConfig+0x1c8>)
 8004d20:	681b      	ldr	r3, [r3, #0]
 8004d22:	f403 3300 	and.w	r3, r3, #131072	@ 0x20000
 8004d26:	2b00      	cmp	r3, #0
 8004d28:	d115      	bne.n	8004d56 <HAL_RCC_ClockConfig+0xe2>
      {
        return HAL_ERROR;
 8004d2a:	2301      	movs	r3, #1
 8004d2c:	e07f      	b.n	8004e2e <HAL_RCC_ClockConfig+0x1ba>
      }
    }
    /* PLL is selected as System Clock Source */
    else if (RCC_ClkInitStruct->SYSCLKSource == RCC_SYSCLKSOURCE_PLLCLK)
 8004d2e:	687b      	ldr	r3, [r7, #4]
 8004d30:	685b      	ldr	r3, [r3, #4]
 8004d32:	2b02      	cmp	r3, #2
 8004d34:	d107      	bne.n	8004d46 <HAL_RCC_ClockConfig+0xd2>
    {
      /* Check the PLL ready flag */
      if (__HAL_RCC_GET_FLAG(RCC_FLAG_PLLRDY) == RESET)
 8004d36:	4b41      	ldr	r3, [pc, #260]	@ (8004e3c <HAL_RCC_ClockConfig+0x1c8>)
 8004d38:	681b      	ldr	r3, [r3, #0]
 8004d3a:	f003 7300 	and.w	r3, r3, #33554432	@ 0x2000000
 8004d3e:	2b00      	cmp	r3, #0
 8004d40:	d109      	bne.n	8004d56 <HAL_RCC_ClockConfig+0xe2>
      {
        return HAL_ERROR;
 8004d42:	2301      	movs	r3, #1
 8004d44:	e073      	b.n	8004e2e <HAL_RCC_ClockConfig+0x1ba>
    }
    /* HSI is selected as System Clock Source */
    else
    {
      /* Check the HSI ready flag */
      if (__HAL_RCC_GET_FLAG(RCC_FLAG_HSIRDY) == RESET)
 8004d46:	4b3d      	ldr	r3, [pc, #244]	@ (8004e3c <HAL_RCC_ClockConfig+0x1c8>)
 8004d48:	681b      	ldr	r3, [r3, #0]
 8004d4a:	f003 0302 	and.w	r3, r3, #2
 8004d4e:	2b00      	cmp	r3, #0
 8004d50:	d101      	bne.n	8004d56 <HAL_RCC_ClockConfig+0xe2>
      {
        return HAL_ERROR;
 8004d52:	2301      	movs	r3, #1
 8004d54:	e06b      	b.n	8004e2e <HAL_RCC_ClockConfig+0x1ba>
      }
    }

    __HAL_RCC_SYSCLK_CONFIG(RCC_ClkInitStruct->SYSCLKSource);
 8004d56:	4b39      	ldr	r3, [pc, #228]	@ (8004e3c <HAL_RCC_ClockConfig+0x1c8>)
 8004d58:	689b      	ldr	r3, [r3, #8]
 8004d5a:	f023 0203 	bic.w	r2, r3, #3
 8004d5e:	687b      	ldr	r3, [r7, #4]
 8004d60:	685b      	ldr	r3, [r3, #4]
 8004d62:	4936      	ldr	r1, [pc, #216]	@ (8004e3c <HAL_RCC_ClockConfig+0x1c8>)
 8004d64:	4313      	orrs	r3, r2
 8004d66:	608b      	str	r3, [r1, #8]

    /* Get Start Tick*/
    tickstart = HAL_GetTick();
 8004d68:	f7fd fe5a 	bl	8002a20 <HAL_GetTick>
 8004d6c:	60f8      	str	r0, [r7, #12]

    while (__HAL_RCC_GET_SYSCLK_SOURCE() != (RCC_ClkInitStruct->SYSCLKSource << RCC_CFGR_SWS_Pos))
 8004d6e:	e00a      	b.n	8004d86 <HAL_RCC_ClockConfig+0x112>
    {
      if ((HAL_GetTick() - tickstart) > CLOCKSWITCH_TIMEOUT_VALUE)
 8004d70:	f7fd fe56 	bl	8002a20 <HAL_GetTick>
 8004d74:	4602      	mov	r2, r0
 8004d76:	68fb      	ldr	r3, [r7, #12]
 8004d78:	1ad3      	subs	r3, r2, r3
 8004d7a:	f241 3288 	movw	r2, #5000	@ 0x1388
 8004d7e:	4293      	cmp	r3, r2
 8004d80:	d901      	bls.n	8004d86 <HAL_RCC_ClockConfig+0x112>
      {
        return HAL_TIMEOUT;
 8004d82:	2303      	movs	r3, #3
 8004d84:	e053      	b.n	8004e2e <HAL_RCC_ClockConfig+0x1ba>
    while (__HAL_RCC_GET_SYSCLK_SOURCE() != (RCC_ClkInitStruct->SYSCLKSource << RCC_CFGR_SWS_Pos))
 8004d86:	4b2d      	ldr	r3, [pc, #180]	@ (8004e3c <HAL_RCC_ClockConfig+0x1c8>)
 8004d88:	689b      	ldr	r3, [r3, #8]
 8004d8a:	f003 020c 	and.w	r2, r3, #12
 8004d8e:	687b      	ldr	r3, [r7, #4]
 8004d90:	685b      	ldr	r3, [r3, #4]
 8004d92:	009b      	lsls	r3, r3, #2
 8004d94:	429a      	cmp	r2, r3
 8004d96:	d1eb      	bne.n	8004d70 <HAL_RCC_ClockConfig+0xfc>
      }
    }
  }

  /* Decreasing the number of wait states because of lower CPU frequency */
  if (FLatency < __HAL_FLASH_GET_LATENCY())
 8004d98:	4b27      	ldr	r3, [pc, #156]	@ (8004e38 <HAL_RCC_ClockConfig+0x1c4>)
 8004d9a:	681b      	ldr	r3, [r3, #0]
 8004d9c:	f003 030f 	and.w	r3, r3, #15
 8004da0:	683a      	ldr	r2, [r7, #0]
 8004da2:	429a      	cmp	r2, r3
 8004da4:	d210      	bcs.n	8004dc8 <HAL_RCC_ClockConfig+0x154>
  {
    /* Program the new number of wait states to the LATENCY bits in the FLASH_ACR register */
    __HAL_FLASH_SET_LATENCY(FLatency);
 8004da6:	4b24      	ldr	r3, [pc, #144]	@ (8004e38 <HAL_RCC_ClockConfig+0x1c4>)
 8004da8:	681b      	ldr	r3, [r3, #0]
 8004daa:	f023 020f 	bic.w	r2, r3, #15
 8004dae:	4922      	ldr	r1, [pc, #136]	@ (8004e38 <HAL_RCC_ClockConfig+0x1c4>)
 8004db0:	683b      	ldr	r3, [r7, #0]
 8004db2:	4313      	orrs	r3, r2
 8004db4:	600b      	str	r3, [r1, #0]

    /* Check that the new number of wait states is taken into account to access the Flash
    memory by reading the FLASH_ACR register */
    if (__HAL_FLASH_GET_LATENCY() != FLatency)
 8004db6:	4b20      	ldr	r3, [pc, #128]	@ (8004e38 <HAL_RCC_ClockConfig+0x1c4>)
 8004db8:	681b      	ldr	r3, [r3, #0]
 8004dba:	f003 030f 	and.w	r3, r3, #15
 8004dbe:	683a      	ldr	r2, [r7, #0]
 8004dc0:	429a      	cmp	r2, r3
 8004dc2:	d001      	beq.n	8004dc8 <HAL_RCC_ClockConfig+0x154>
    {
      return HAL_ERROR;
 8004dc4:	2301      	movs	r3, #1
 8004dc6:	e032      	b.n	8004e2e <HAL_RCC_ClockConfig+0x1ba>
    }
  }

  /*-------------------------- PCLK1 Configuration ---------------------------*/
  if (((RCC_ClkInitStruct->ClockType) & RCC_CLOCKTYPE_PCLK1) == RCC_CLOCKTYPE_PCLK1)
 8004dc8:	687b      	ldr	r3, [r7, #4]
 8004dca:	681b      	ldr	r3, [r3, #0]
 8004dcc:	f003 0304 	and.w	r3, r3, #4
 8004dd0:	2b00      	cmp	r3, #0
 8004dd2:	d008      	beq.n	8004de6 <HAL_RCC_ClockConfig+0x172>
  {
    assert_param(IS_RCC_PCLK(RCC_ClkInitStruct->APB1CLKDivider));
    MODIFY_REG(RCC->CFGR, RCC_CFGR_PPRE1, RCC_ClkInitStruct->APB1CLKDivider);
 8004dd4:	4b19      	ldr	r3, [pc, #100]	@ (8004e3c <HAL_RCC_ClockConfig+0x1c8>)
 8004dd6:	689b      	ldr	r3, [r3, #8]
 8004dd8:	f423 52e0 	bic.w	r2, r3, #7168	@ 0x1c00
 8004ddc:	687b      	ldr	r3, [r7, #4]
 8004dde:	68db      	ldr	r3, [r3, #12]
 8004de0:	4916      	ldr	r1, [pc, #88]	@ (8004e3c <HAL_RCC_ClockConfig+0x1c8>)
 8004de2:	4313      	orrs	r3, r2
 8004de4:	608b      	str	r3, [r1, #8]
  }

  /*-------------------------- PCLK2 Configuration ---------------------------*/
  if (((RCC_ClkInitStruct->ClockType) & RCC_CLOCKTYPE_PCLK2) == RCC_CLOCKTYPE_PCLK2)
 8004de6:	687b      	ldr	r3, [r7, #4]
 8004de8:	681b      	ldr	r3, [r3, #0]
 8004dea:	f003 0308 	and.w	r3, r3, #8
 8004dee:	2b00      	cmp	r3, #0
 8004df0:	d009      	beq.n	8004e06 <HAL_RCC_ClockConfig+0x192>
  {
    assert_param(IS_RCC_PCLK(RCC_ClkInitStruct->APB2CLKDivider));
    MODIFY_REG(RCC->CFGR, RCC_CFGR_PPRE2, ((RCC_ClkInitStruct->APB2CLKDivider) << 3));
 8004df2:	4b12      	ldr	r3, [pc, #72]	@ (8004e3c <HAL_RCC_ClockConfig+0x1c8>)
 8004df4:	689b      	ldr	r3, [r3, #8]
 8004df6:	f423 4260 	bic.w	r2, r3, #57344	@ 0xe000
 8004dfa:	687b      	ldr	r3, [r7, #4]
 8004dfc:	691b      	ldr	r3, [r3, #16]
 8004dfe:	00db      	lsls	r3, r3, #3
 8004e00:	490e      	ldr	r1, [pc, #56]	@ (8004e3c <HAL_RCC_ClockConfig+0x1c8>)
 8004e02:	4313      	orrs	r3, r2
 8004e04:	608b      	str	r3, [r1, #8]
  }

  /* Update the SystemCoreClock global variable */
  SystemCoreClock = HAL_RCC_GetSysClockFreq() >> AHBPrescTable[(RCC->CFGR & RCC_CFGR_HPRE) >> RCC_CFGR_HPRE_Pos];
 8004e06:	f000 f821 	bl	8004e4c <HAL_RCC_GetSysClockFreq>
 8004e0a:	4602      	mov	r2, r0
 8004e0c:	4b0b      	ldr	r3, [pc, #44]	@ (8004e3c <HAL_RCC_ClockConfig+0x1c8>)
 8004e0e:	689b      	ldr	r3, [r3, #8]
 8004e10:	091b      	lsrs	r3, r3, #4
 8004e12:	f003 030f 	and.w	r3, r3, #15
 8004e16:	490a      	ldr	r1, [pc, #40]	@ (8004e40 <HAL_RCC_ClockConfig+0x1cc>)
 8004e18:	5ccb      	ldrb	r3, [r1, r3]
 8004e1a:	fa22 f303 	lsr.w	r3, r2, r3
 8004e1e:	4a09      	ldr	r2, [pc, #36]	@ (8004e44 <HAL_RCC_ClockConfig+0x1d0>)
 8004e20:	6013      	str	r3, [r2, #0]

  /* Configure the source of time base considering new system clocks settings*/
  HAL_InitTick(uwTickPrio);
 8004e22:	4b09      	ldr	r3, [pc, #36]	@ (8004e48 <HAL_RCC_ClockConfig+0x1d4>)
 8004e24:	681b      	ldr	r3, [r3, #0]
 8004e26:	4618      	mov	r0, r3
 8004e28:	f7fd fdb6 	bl	8002998 <HAL_InitTick>

  return HAL_OK;
 8004e2c:	2300      	movs	r3, #0
}
 8004e2e:	4618      	mov	r0, r3
 8004e30:	3710      	adds	r7, #16
 8004e32:	46bd      	mov	sp, r7
 8004e34:	bd80      	pop	{r7, pc}
 8004e36:	bf00      	nop
 8004e38:	40023c00 	.word	0x40023c00
 8004e3c:	40023800 	.word	0x40023800
 8004e40:	08007108 	.word	0x08007108
 8004e44:	20000000 	.word	0x20000000
 8004e48:	20000004 	.word	0x20000004

08004e4c <HAL_RCC_GetSysClockFreq>:
  *
  *
  * @retval SYSCLK frequency
  */
uint32_t HAL_RCC_GetSysClockFreq(void)
{
 8004e4c:	e92d 4fb0 	stmdb	sp!, {r4, r5, r7, r8, r9, sl, fp, lr}
 8004e50:	b090      	sub	sp, #64	@ 0x40
 8004e52:	af00      	add	r7, sp, #0
  uint32_t pllm = 0, pllvco = 0, pllp = 0;
 8004e54:	2300      	movs	r3, #0
 8004e56:	637b      	str	r3, [r7, #52]	@ 0x34
 8004e58:	2300      	movs	r3, #0
 8004e5a:	63fb      	str	r3, [r7, #60]	@ 0x3c
 8004e5c:	2300      	movs	r3, #0
 8004e5e:	633b      	str	r3, [r7, #48]	@ 0x30
  uint32_t sysclockfreq = 0;
 8004e60:	2300      	movs	r3, #0
 8004e62:	63bb      	str	r3, [r7, #56]	@ 0x38

  /* Get SYSCLK source -------------------------------------------------------*/
  switch (RCC->CFGR & RCC_CFGR_SWS)
 8004e64:	4b59      	ldr	r3, [pc, #356]	@ (8004fcc <HAL_RCC_GetSysClockFreq+0x180>)
 8004e66:	689b      	ldr	r3, [r3, #8]
 8004e68:	f003 030c 	and.w	r3, r3, #12
 8004e6c:	2b08      	cmp	r3, #8
 8004e6e:	d00d      	beq.n	8004e8c <HAL_RCC_GetSysClockFreq+0x40>
 8004e70:	2b08      	cmp	r3, #8
 8004e72:	f200 80a1 	bhi.w	8004fb8 <HAL_RCC_GetSysClockFreq+0x16c>
 8004e76:	2b00      	cmp	r3, #0
 8004e78:	d002      	beq.n	8004e80 <HAL_RCC_GetSysClockFreq+0x34>
 8004e7a:	2b04      	cmp	r3, #4
 8004e7c:	d003      	beq.n	8004e86 <HAL_RCC_GetSysClockFreq+0x3a>
 8004e7e:	e09b      	b.n	8004fb8 <HAL_RCC_GetSysClockFreq+0x16c>
  {
    case RCC_SYSCLKSOURCE_STATUS_HSI:  /* HSI used as system clock source */
    {
      sysclockfreq = HSI_VALUE;
 8004e80:	4b53      	ldr	r3, [pc, #332]	@ (8004fd0 <HAL_RCC_GetSysClockFreq+0x184>)
 8004e82:	63bb      	str	r3, [r7, #56]	@ 0x38
      break;
 8004e84:	e09b      	b.n	8004fbe <HAL_RCC_GetSysClockFreq+0x172>
    }
    case RCC_SYSCLKSOURCE_STATUS_HSE:  /* HSE used as system clock  source */
    {
      sysclockfreq = HSE_VALUE;
 8004e86:	4b53      	ldr	r3, [pc, #332]	@ (8004fd4 <HAL_RCC_GetSysClockFreq+0x188>)
 8004e88:	63bb      	str	r3, [r7, #56]	@ 0x38
      break;
 8004e8a:	e098      	b.n	8004fbe <HAL_RCC_GetSysClockFreq+0x172>
    }
    case RCC_SYSCLKSOURCE_STATUS_PLLCLK:  /* PLL used as system clock  source */
    {
      /* PLL_VCO = (HSE_VALUE or HSI_VALUE / PLLM) * PLLN
      SYSCLK = PLL_VCO / PLLP */
      pllm = RCC->PLLCFGR & RCC_PLLCFGR_PLLM;
 8004e8c:	4b4f      	ldr	r3, [pc, #316]	@ (8004fcc <HAL_RCC_GetSysClockFreq+0x180>)
 8004e8e:	685b      	ldr	r3, [r3, #4]
 8004e90:	f003 033f 	and.w	r3, r3, #63	@ 0x3f
 8004e94:	637b      	str	r3, [r7, #52]	@ 0x34
      if (__HAL_RCC_GET_PLL_OSCSOURCE() != RCC_PLLCFGR_PLLSRC_HSI)
 8004e96:	4b4d      	ldr	r3, [pc, #308]	@ (8004fcc <HAL_RCC_GetSysClockFreq+0x180>)
 8004e98:	685b      	ldr	r3, [r3, #4]
 8004e9a:	f403 0380 	and.w	r3, r3, #4194304	@ 0x400000
 8004e9e:	2b00      	cmp	r3, #0
 8004ea0:	d028      	beq.n	8004ef4 <HAL_RCC_GetSysClockFreq+0xa8>
      {
        /* HSE used as PLL clock source */
        pllvco = (uint32_t)((((uint64_t) HSE_VALUE * ((uint64_t)((RCC->PLLCFGR & RCC_PLLCFGR_PLLN) >> RCC_PLLCFGR_PLLN_Pos)))) / (uint64_t)pllm);
 8004ea2:	4b4a      	ldr	r3, [pc, #296]	@ (8004fcc <HAL_RCC_GetSysClockFreq+0x180>)
 8004ea4:	685b      	ldr	r3, [r3, #4]
 8004ea6:	099b      	lsrs	r3, r3, #6
 8004ea8:	2200      	movs	r2, #0
 8004eaa:	623b      	str	r3, [r7, #32]
 8004eac:	627a      	str	r2, [r7, #36]	@ 0x24
 8004eae:	6a3b      	ldr	r3, [r7, #32]
 8004eb0:	f3c3 0008 	ubfx	r0, r3, #0, #9
 8004eb4:	2100      	movs	r1, #0
 8004eb6:	4b47      	ldr	r3, [pc, #284]	@ (8004fd4 <HAL_RCC_GetSysClockFreq+0x188>)
 8004eb8:	fb03 f201 	mul.w	r2, r3, r1
 8004ebc:	2300      	movs	r3, #0
 8004ebe:	fb00 f303 	mul.w	r3, r0, r3
 8004ec2:	4413      	add	r3, r2
 8004ec4:	4a43      	ldr	r2, [pc, #268]	@ (8004fd4 <HAL_RCC_GetSysClockFreq+0x188>)
 8004ec6:	fba0 1202 	umull	r1, r2, r0, r2
 8004eca:	62fa      	str	r2, [r7, #44]	@ 0x2c
 8004ecc:	460a      	mov	r2, r1
 8004ece:	62ba      	str	r2, [r7, #40]	@ 0x28
 8004ed0:	6afa      	ldr	r2, [r7, #44]	@ 0x2c
 8004ed2:	4413      	add	r3, r2
 8004ed4:	62fb      	str	r3, [r7, #44]	@ 0x2c
 8004ed6:	6b7b      	ldr	r3, [r7, #52]	@ 0x34
 8004ed8:	2200      	movs	r2, #0
 8004eda:	61bb      	str	r3, [r7, #24]
 8004edc:	61fa      	str	r2, [r7, #28]
 8004ede:	e9d7 2306 	ldrd	r2, r3, [r7, #24]
 8004ee2:	e9d7 010a 	ldrd	r0, r1, [r7, #40]	@ 0x28
 8004ee6:	f7fb fb05 	bl	80004f4 <__aeabi_uldivmod>
 8004eea:	4602      	mov	r2, r0
 8004eec:	460b      	mov	r3, r1
 8004eee:	4613      	mov	r3, r2
 8004ef0:	63fb      	str	r3, [r7, #60]	@ 0x3c
 8004ef2:	e053      	b.n	8004f9c <HAL_RCC_GetSysClockFreq+0x150>
      }
      else
      {
        /* HSI used as PLL clock source */
        pllvco = (uint32_t)((((uint64_t) HSI_VALUE * ((uint64_t)((RCC->PLLCFGR & RCC_PLLCFGR_PLLN) >> RCC_PLLCFGR_PLLN_Pos)))) / (uint64_t)pllm);
 8004ef4:	4b35      	ldr	r3, [pc, #212]	@ (8004fcc <HAL_RCC_GetSysClockFreq+0x180>)
 8004ef6:	685b      	ldr	r3, [r3, #4]
 8004ef8:	099b      	lsrs	r3, r3, #6
 8004efa:	2200      	movs	r2, #0
 8004efc:	613b      	str	r3, [r7, #16]
 8004efe:	617a      	str	r2, [r7, #20]
 8004f00:	693b      	ldr	r3, [r7, #16]
 8004f02:	f3c3 0a08 	ubfx	sl, r3, #0, #9
 8004f06:	f04f 0b00 	mov.w	fp, #0
 8004f0a:	4652      	mov	r2, sl
 8004f0c:	465b      	mov	r3, fp
 8004f0e:	f04f 0000 	mov.w	r0, #0
 8004f12:	f04f 0100 	mov.w	r1, #0
 8004f16:	0159      	lsls	r1, r3, #5
 8004f18:	ea41 61d2 	orr.w	r1, r1, r2, lsr #27
 8004f1c:	0150      	lsls	r0, r2, #5
 8004f1e:	4602      	mov	r2, r0
 8004f20:	460b      	mov	r3, r1
 8004f22:	ebb2 080a 	subs.w	r8, r2, sl
 8004f26:	eb63 090b 	sbc.w	r9, r3, fp
 8004f2a:	f04f 0200 	mov.w	r2, #0
 8004f2e:	f04f 0300 	mov.w	r3, #0
 8004f32:	ea4f 1389 	mov.w	r3, r9, lsl #6
 8004f36:	ea43 6398 	orr.w	r3, r3, r8, lsr #26
 8004f3a:	ea4f 1288 	mov.w	r2, r8, lsl #6
 8004f3e:	ebb2 0408 	subs.w	r4, r2, r8
 8004f42:	eb63 0509 	sbc.w	r5, r3, r9
 8004f46:	f04f 0200 	mov.w	r2, #0
 8004f4a:	f04f 0300 	mov.w	r3, #0
 8004f4e:	00eb      	lsls	r3, r5, #3
 8004f50:	ea43 7354 	orr.w	r3, r3, r4, lsr #29
 8004f54:	00e2      	lsls	r2, r4, #3
 8004f56:	4614      	mov	r4, r2
 8004f58:	461d      	mov	r5, r3
 8004f5a:	eb14 030a 	adds.w	r3, r4, sl
 8004f5e:	603b      	str	r3, [r7, #0]
 8004f60:	eb45 030b 	adc.w	r3, r5, fp
 8004f64:	607b      	str	r3, [r7, #4]
 8004f66:	f04f 0200 	mov.w	r2, #0
 8004f6a:	f04f 0300 	mov.w	r3, #0
 8004f6e:	e9d7 4500 	ldrd	r4, r5, [r7]
 8004f72:	4629      	mov	r1, r5
 8004f74:	028b      	lsls	r3, r1, #10
 8004f76:	4621      	mov	r1, r4
 8004f78:	ea43 5391 	orr.w	r3, r3, r1, lsr #22
 8004f7c:	4621      	mov	r1, r4
 8004f7e:	028a      	lsls	r2, r1, #10
 8004f80:	4610      	mov	r0, r2
 8004f82:	4619      	mov	r1, r3
 8004f84:	6b7b      	ldr	r3, [r7, #52]	@ 0x34
 8004f86:	2200      	movs	r2, #0
 8004f88:	60bb      	str	r3, [r7, #8]
 8004f8a:	60fa      	str	r2, [r7, #12]
 8004f8c:	e9d7 2302 	ldrd	r2, r3, [r7, #8]
 8004f90:	f7fb fab0 	bl	80004f4 <__aeabi_uldivmod>
 8004f94:	4602      	mov	r2, r0
 8004f96:	460b      	mov	r3, r1
 8004f98:	4613      	mov	r3, r2
 8004f9a:	63fb      	str	r3, [r7, #60]	@ 0x3c
      }
      pllp = ((((RCC->PLLCFGR & RCC_PLLCFGR_PLLP) >> RCC_PLLCFGR_PLLP_Pos) + 1) * 2);
 8004f9c:	4b0b      	ldr	r3, [pc, #44]	@ (8004fcc <HAL_RCC_GetSysClockFreq+0x180>)
 8004f9e:	685b      	ldr	r3, [r3, #4]
 8004fa0:	0c1b      	lsrs	r3, r3, #16
 8004fa2:	f003 0303 	and.w	r3, r3, #3
 8004fa6:	3301      	adds	r3, #1
 8004fa8:	005b      	lsls	r3, r3, #1
 8004faa:	633b      	str	r3, [r7, #48]	@ 0x30

      sysclockfreq = pllvco / pllp;
 8004fac:	6bfa      	ldr	r2, [r7, #60]	@ 0x3c
 8004fae:	6b3b      	ldr	r3, [r7, #48]	@ 0x30
 8004fb0:	fbb2 f3f3 	udiv	r3, r2, r3
 8004fb4:	63bb      	str	r3, [r7, #56]	@ 0x38
      break;
 8004fb6:	e002      	b.n	8004fbe <HAL_RCC_GetSysClockFreq+0x172>
    }
    default:
    {
      sysclockfreq = HSI_VALUE;
 8004fb8:	4b05      	ldr	r3, [pc, #20]	@ (8004fd0 <HAL_RCC_GetSysClockFreq+0x184>)
 8004fba:	63bb      	str	r3, [r7, #56]	@ 0x38
      break;
 8004fbc:	bf00      	nop
    }
  }
  return sysclockfreq;
 8004fbe:	6bbb      	ldr	r3, [r7, #56]	@ 0x38
}
 8004fc0:	4618      	mov	r0, r3
 8004fc2:	3740      	adds	r7, #64	@ 0x40
 8004fc4:	46bd      	mov	sp, r7
 8004fc6:	e8bd 8fb0 	ldmia.w	sp!, {r4, r5, r7, r8, r9, sl, fp, pc}
 8004fca:	bf00      	nop
 8004fcc:	40023800 	.word	0x40023800
 8004fd0:	00f42400 	.word	0x00f42400
 8004fd4:	017d7840 	.word	0x017d7840

08004fd8 <HAL_RCCEx_PeriphCLKConfig>:
  *         the backup registers) are set to their reset values.
  *
  * @retval HAL status
  */
HAL_StatusTypeDef HAL_RCCEx_PeriphCLKConfig(RCC_PeriphCLKInitTypeDef  *PeriphClkInit)
{
 8004fd8:	b580      	push	{r7, lr}
 8004fda:	b088      	sub	sp, #32
 8004fdc:	af00      	add	r7, sp, #0
 8004fde:	6078      	str	r0, [r7, #4]
  uint32_t tickstart = 0;
 8004fe0:	2300      	movs	r3, #0
 8004fe2:	617b      	str	r3, [r7, #20]
  uint32_t tmpreg0 = 0;
 8004fe4:	2300      	movs	r3, #0
 8004fe6:	613b      	str	r3, [r7, #16]
  uint32_t tmpreg1 = 0;
 8004fe8:	2300      	movs	r3, #0
 8004fea:	60fb      	str	r3, [r7, #12]
  uint32_t plli2sused = 0;
 8004fec:	2300      	movs	r3, #0
 8004fee:	61fb      	str	r3, [r7, #28]
  uint32_t pllsaiused = 0;
 8004ff0:	2300      	movs	r3, #0
 8004ff2:	61bb      	str	r3, [r7, #24]

  /* Check the parameters */
  assert_param(IS_RCC_PERIPHCLOCK(PeriphClkInit->PeriphClockSelection));

  /*----------------------------------- I2S configuration ----------------------------------*/
  if(((PeriphClkInit->PeriphClockSelection) & RCC_PERIPHCLK_I2S) == (RCC_PERIPHCLK_I2S))
 8004ff4:	687b      	ldr	r3, [r7, #4]
 8004ff6:	681b      	ldr	r3, [r3, #0]
 8004ff8:	f003 0301 	and.w	r3, r3, #1
 8004ffc:	2b00      	cmp	r3, #0
 8004ffe:	d012      	beq.n	8005026 <HAL_RCCEx_PeriphCLKConfig+0x4e>
  {
    /* Check the parameters */
    assert_param(IS_RCC_I2SCLKSOURCE(PeriphClkInit->I2sClockSelection));

    /* Configure I2S Clock source */
    __HAL_RCC_I2S_CONFIG(PeriphClkInit->I2sClockSelection);
 8005000:	4b69      	ldr	r3, [pc, #420]	@ (80051a8 <HAL_RCCEx_PeriphCLKConfig+0x1d0>)
 8005002:	689b      	ldr	r3, [r3, #8]
 8005004:	4a68      	ldr	r2, [pc, #416]	@ (80051a8 <HAL_RCCEx_PeriphCLKConfig+0x1d0>)
 8005006:	f423 0300 	bic.w	r3, r3, #8388608	@ 0x800000
 800500a:	6093      	str	r3, [r2, #8]
 800500c:	4b66      	ldr	r3, [pc, #408]	@ (80051a8 <HAL_RCCEx_PeriphCLKConfig+0x1d0>)
 800500e:	689a      	ldr	r2, [r3, #8]
 8005010:	687b      	ldr	r3, [r7, #4]
 8005012:	6b5b      	ldr	r3, [r3, #52]	@ 0x34
 8005014:	4964      	ldr	r1, [pc, #400]	@ (80051a8 <HAL_RCCEx_PeriphCLKConfig+0x1d0>)
 8005016:	4313      	orrs	r3, r2
 8005018:	608b      	str	r3, [r1, #8]

    /* Enable the PLLI2S when it's used as clock source for I2S */
    if(PeriphClkInit->I2sClockSelection == RCC_I2SCLKSOURCE_PLLI2S)
 800501a:	687b      	ldr	r3, [r7, #4]
 800501c:	6b5b      	ldr	r3, [r3, #52]	@ 0x34
 800501e:	2b00      	cmp	r3, #0
 8005020:	d101      	bne.n	8005026 <HAL_RCCEx_PeriphCLKConfig+0x4e>
    {
      plli2sused = 1;
 8005022:	2301      	movs	r3, #1
 8005024:	61fb      	str	r3, [r7, #28]
    }
  }

  /*------------------------------------ SAI1 configuration --------------------------------------*/
  if(((PeriphClkInit->PeriphClockSelection) & RCC_PERIPHCLK_SAI1) == (RCC_PERIPHCLK_SAI1))
 8005026:	687b      	ldr	r3, [r7, #4]
 8005028:	681b      	ldr	r3, [r3, #0]
 800502a:	f403 2300 	and.w	r3, r3, #524288	@ 0x80000
 800502e:	2b00      	cmp	r3, #0
 8005030:	d017      	beq.n	8005062 <HAL_RCCEx_PeriphCLKConfig+0x8a>
  {
    /* Check the parameters */
    assert_param(IS_RCC_SAI1CLKSOURCE(PeriphClkInit->Sai1ClockSelection));

    /* Configure SAI1 Clock source */
    __HAL_RCC_SAI1_CONFIG(PeriphClkInit->Sai1ClockSelection);
 8005032:	4b5d      	ldr	r3, [pc, #372]	@ (80051a8 <HAL_RCCEx_PeriphCLKConfig+0x1d0>)
 8005034:	f8d3 308c 	ldr.w	r3, [r3, #140]	@ 0x8c
 8005038:	f423 1240 	bic.w	r2, r3, #3145728	@ 0x300000
 800503c:	687b      	ldr	r3, [r7, #4]
 800503e:	6bdb      	ldr	r3, [r3, #60]	@ 0x3c
 8005040:	4959      	ldr	r1, [pc, #356]	@ (80051a8 <HAL_RCCEx_PeriphCLKConfig+0x1d0>)
 8005042:	4313      	orrs	r3, r2
 8005044:	f8c1 308c 	str.w	r3, [r1, #140]	@ 0x8c
    /* Enable the PLLI2S when it's used as clock source for SAI */
    if(PeriphClkInit->Sai1ClockSelection == RCC_SAI1CLKSOURCE_PLLI2S)
 8005048:	687b      	ldr	r3, [r7, #4]
 800504a:	6bdb      	ldr	r3, [r3, #60]	@ 0x3c
 800504c:	f5b3 1f80 	cmp.w	r3, #1048576	@ 0x100000
 8005050:	d101      	bne.n	8005056 <HAL_RCCEx_PeriphCLKConfig+0x7e>
    {
      plli2sused = 1;
 8005052:	2301      	movs	r3, #1
 8005054:	61fb      	str	r3, [r7, #28]
    }
    /* Enable the PLLSAI when it's used as clock source for SAI */
    if(PeriphClkInit->Sai1ClockSelection == RCC_SAI1CLKSOURCE_PLLSAI)
 8005056:	687b      	ldr	r3, [r7, #4]
 8005058:	6bdb      	ldr	r3, [r3, #60]	@ 0x3c
 800505a:	2b00      	cmp	r3, #0
 800505c:	d101      	bne.n	8005062 <HAL_RCCEx_PeriphCLKConfig+0x8a>
    {
      pllsaiused = 1;
 800505e:	2301      	movs	r3, #1
 8005060:	61bb      	str	r3, [r7, #24]
    }
  }

  /*------------------------------------ SAI2 configuration --------------------------------------*/
  if(((PeriphClkInit->PeriphClockSelection) & RCC_PERIPHCLK_SAI2) == (RCC_PERIPHCLK_SAI2))
 8005062:	687b      	ldr	r3, [r7, #4]
 8005064:	681b      	ldr	r3, [r3, #0]
 8005066:	f403 1380 	and.w	r3, r3, #1048576	@ 0x100000
 800506a:	2b00      	cmp	r3, #0
 800506c:	d017      	beq.n	800509e <HAL_RCCEx_PeriphCLKConfig+0xc6>
  {
    /* Check the parameters */
    assert_param(IS_RCC_SAI2CLKSOURCE(PeriphClkInit->Sai2ClockSelection));

    /* Configure SAI2 Clock source */
    __HAL_RCC_SAI2_CONFIG(PeriphClkInit->Sai2ClockSelection);
 800506e:	4b4e      	ldr	r3, [pc, #312]	@ (80051a8 <HAL_RCCEx_PeriphCLKConfig+0x1d0>)
 8005070:	f8d3 308c 	ldr.w	r3, [r3, #140]	@ 0x8c
 8005074:	f423 0240 	bic.w	r2, r3, #12582912	@ 0xc00000
 8005078:	687b      	ldr	r3, [r7, #4]
 800507a:	6c1b      	ldr	r3, [r3, #64]	@ 0x40
 800507c:	494a      	ldr	r1, [pc, #296]	@ (80051a8 <HAL_RCCEx_PeriphCLKConfig+0x1d0>)
 800507e:	4313      	orrs	r3, r2
 8005080:	f8c1 308c 	str.w	r3, [r1, #140]	@ 0x8c

    /* Enable the PLLI2S when it's used as clock source for SAI */
    if(PeriphClkInit->Sai2ClockSelection == RCC_SAI2CLKSOURCE_PLLI2S)
 8005084:	687b      	ldr	r3, [r7, #4]
 8005086:	6c1b      	ldr	r3, [r3, #64]	@ 0x40
 8005088:	f5b3 0f80 	cmp.w	r3, #4194304	@ 0x400000
 800508c:	d101      	bne.n	8005092 <HAL_RCCEx_PeriphCLKConfig+0xba>
    {
      plli2sused = 1;
 800508e:	2301      	movs	r3, #1
 8005090:	61fb      	str	r3, [r7, #28]
    }
    /* Enable the PLLSAI when it's used as clock source for SAI */
    if(PeriphClkInit->Sai2ClockSelection == RCC_SAI2CLKSOURCE_PLLSAI)
 8005092:	687b      	ldr	r3, [r7, #4]
 8005094:	6c1b      	ldr	r3, [r3, #64]	@ 0x40
 8005096:	2b00      	cmp	r3, #0
 8005098:	d101      	bne.n	800509e <HAL_RCCEx_PeriphCLKConfig+0xc6>
    {
      pllsaiused = 1;
 800509a:	2301      	movs	r3, #1
 800509c:	61bb      	str	r3, [r7, #24]
    }
  }

  /*-------------------------------------- SPDIF-RX Configuration -----------------------------------*/
  if(((PeriphClkInit->PeriphClockSelection) & RCC_PERIPHCLK_SPDIFRX) == RCC_PERIPHCLK_SPDIFRX)
 800509e:	687b      	ldr	r3, [r7, #4]
 80050a0:	681b      	ldr	r3, [r3, #0]
 80050a2:	f003 7380 	and.w	r3, r3, #16777216	@ 0x1000000
 80050a6:	2b00      	cmp	r3, #0
 80050a8:	d001      	beq.n	80050ae <HAL_RCCEx_PeriphCLKConfig+0xd6>
  {
      plli2sused = 1;
 80050aa:	2301      	movs	r3, #1
 80050ac:	61fb      	str	r3, [r7, #28]
  }

  /*------------------------------------ RTC configuration --------------------------------------*/
  if(((PeriphClkInit->PeriphClockSelection) & RCC_PERIPHCLK_RTC) == (RCC_PERIPHCLK_RTC))
 80050ae:	687b      	ldr	r3, [r7, #4]
 80050b0:	681b      	ldr	r3, [r3, #0]
 80050b2:	f003 0320 	and.w	r3, r3, #32
 80050b6:	2b00      	cmp	r3, #0
 80050b8:	f000 808b 	beq.w	80051d2 <HAL_RCCEx_PeriphCLKConfig+0x1fa>
  {
    /* Check for RTC Parameters used to output RTCCLK */
    assert_param(IS_RCC_RTCCLKSOURCE(PeriphClkInit->RTCClockSelection));

    /* Enable Power Clock*/
    __HAL_RCC_PWR_CLK_ENABLE();
 80050bc:	4b3a      	ldr	r3, [pc, #232]	@ (80051a8 <HAL_RCCEx_PeriphCLKConfig+0x1d0>)
 80050be:	6c1b      	ldr	r3, [r3, #64]	@ 0x40
 80050c0:	4a39      	ldr	r2, [pc, #228]	@ (80051a8 <HAL_RCCEx_PeriphCLKConfig+0x1d0>)
 80050c2:	f043 5380 	orr.w	r3, r3, #268435456	@ 0x10000000
 80050c6:	6413      	str	r3, [r2, #64]	@ 0x40
 80050c8:	4b37      	ldr	r3, [pc, #220]	@ (80051a8 <HAL_RCCEx_PeriphCLKConfig+0x1d0>)
 80050ca:	6c1b      	ldr	r3, [r3, #64]	@ 0x40
 80050cc:	f003 5380 	and.w	r3, r3, #268435456	@ 0x10000000
 80050d0:	60bb      	str	r3, [r7, #8]
 80050d2:	68bb      	ldr	r3, [r7, #8]

    /* Enable write access to Backup domain */
    PWR->CR1 |= PWR_CR1_DBP;
 80050d4:	4b35      	ldr	r3, [pc, #212]	@ (80051ac <HAL_RCCEx_PeriphCLKConfig+0x1d4>)
 80050d6:	681b      	ldr	r3, [r3, #0]
 80050d8:	4a34      	ldr	r2, [pc, #208]	@ (80051ac <HAL_RCCEx_PeriphCLKConfig+0x1d4>)
 80050da:	f443 7380 	orr.w	r3, r3, #256	@ 0x100
 80050de:	6013      	str	r3, [r2, #0]

    /* Get Start Tick*/
    tickstart = HAL_GetTick();
 80050e0:	f7fd fc9e 	bl	8002a20 <HAL_GetTick>
 80050e4:	6178      	str	r0, [r7, #20]

    /* Wait for Backup domain Write protection disable */
    while((PWR->CR1 & PWR_CR1_DBP) == RESET)
 80050e6:	e008      	b.n	80050fa <HAL_RCCEx_PeriphCLKConfig+0x122>
    {
      if((HAL_GetTick() - tickstart) > RCC_DBP_TIMEOUT_VALUE)
 80050e8:	f7fd fc9a 	bl	8002a20 <HAL_GetTick>
 80050ec:	4602      	mov	r2, r0
 80050ee:	697b      	ldr	r3, [r7, #20]
 80050f0:	1ad3      	subs	r3, r2, r3
 80050f2:	2b64      	cmp	r3, #100	@ 0x64
 80050f4:	d901      	bls.n	80050fa <HAL_RCCEx_PeriphCLKConfig+0x122>
      {
        return HAL_TIMEOUT;
 80050f6:	2303      	movs	r3, #3
 80050f8:	e38f      	b.n	800581a <HAL_RCCEx_PeriphCLKConfig+0x842>
    while((PWR->CR1 & PWR_CR1_DBP) == RESET)
 80050fa:	4b2c      	ldr	r3, [pc, #176]	@ (80051ac <HAL_RCCEx_PeriphCLKConfig+0x1d4>)
 80050fc:	681b      	ldr	r3, [r3, #0]
 80050fe:	f403 7380 	and.w	r3, r3, #256	@ 0x100
 8005102:	2b00      	cmp	r3, #0
 8005104:	d0f0      	beq.n	80050e8 <HAL_RCCEx_PeriphCLKConfig+0x110>
      }
    }

    /* Reset the Backup domain only if the RTC Clock source selection is modified */
    tmpreg0 = (RCC->BDCR & RCC_BDCR_RTCSEL);
 8005106:	4b28      	ldr	r3, [pc, #160]	@ (80051a8 <HAL_RCCEx_PeriphCLKConfig+0x1d0>)
 8005108:	6f1b      	ldr	r3, [r3, #112]	@ 0x70
 800510a:	f403 7340 	and.w	r3, r3, #768	@ 0x300
 800510e:	613b      	str	r3, [r7, #16]

    if((tmpreg0 != 0x00000000U) && (tmpreg0 != (PeriphClkInit->RTCClockSelection & RCC_BDCR_RTCSEL)))
 8005110:	693b      	ldr	r3, [r7, #16]
 8005112:	2b00      	cmp	r3, #0
 8005114:	d035      	beq.n	8005182 <HAL_RCCEx_PeriphCLKConfig+0x1aa>
 8005116:	687b      	ldr	r3, [r7, #4]
 8005118:	6b1b      	ldr	r3, [r3, #48]	@ 0x30
 800511a:	f403 7340 	and.w	r3, r3, #768	@ 0x300
 800511e:	693a      	ldr	r2, [r7, #16]
 8005120:	429a      	cmp	r2, r3
 8005122:	d02e      	beq.n	8005182 <HAL_RCCEx_PeriphCLKConfig+0x1aa>
    {
      /* Store the content of BDCR register before the reset of Backup Domain */
      tmpreg0 = (RCC->BDCR & ~(RCC_BDCR_RTCSEL));
 8005124:	4b20      	ldr	r3, [pc, #128]	@ (80051a8 <HAL_RCCEx_PeriphCLKConfig+0x1d0>)
 8005126:	6f1b      	ldr	r3, [r3, #112]	@ 0x70
 8005128:	f423 7340 	bic.w	r3, r3, #768	@ 0x300
 800512c:	613b      	str	r3, [r7, #16]

      /* RTC Clock selection can be changed only if the Backup Domain is reset */
      __HAL_RCC_BACKUPRESET_FORCE();
 800512e:	4b1e      	ldr	r3, [pc, #120]	@ (80051a8 <HAL_RCCEx_PeriphCLKConfig+0x1d0>)
 8005130:	6f1b      	ldr	r3, [r3, #112]	@ 0x70
 8005132:	4a1d      	ldr	r2, [pc, #116]	@ (80051a8 <HAL_RCCEx_PeriphCLKConfig+0x1d0>)
 8005134:	f443 3380 	orr.w	r3, r3, #65536	@ 0x10000
 8005138:	6713      	str	r3, [r2, #112]	@ 0x70
      __HAL_RCC_BACKUPRESET_RELEASE();
 800513a:	4b1b      	ldr	r3, [pc, #108]	@ (80051a8 <HAL_RCCEx_PeriphCLKConfig+0x1d0>)
 800513c:	6f1b      	ldr	r3, [r3, #112]	@ 0x70
 800513e:	4a1a      	ldr	r2, [pc, #104]	@ (80051a8 <HAL_RCCEx_PeriphCLKConfig+0x1d0>)
 8005140:	f423 3380 	bic.w	r3, r3, #65536	@ 0x10000
 8005144:	6713      	str	r3, [r2, #112]	@ 0x70

      /* Restore the Content of BDCR register */
      RCC->BDCR = tmpreg0;
 8005146:	4a18      	ldr	r2, [pc, #96]	@ (80051a8 <HAL_RCCEx_PeriphCLKConfig+0x1d0>)
 8005148:	693b      	ldr	r3, [r7, #16]
 800514a:	6713      	str	r3, [r2, #112]	@ 0x70

      /* Wait for LSE reactivation if LSE was enable prior to Backup Domain reset */
      if (HAL_IS_BIT_SET(RCC->BDCR, RCC_BDCR_LSEON))
 800514c:	4b16      	ldr	r3, [pc, #88]	@ (80051a8 <HAL_RCCEx_PeriphCLKConfig+0x1d0>)
 800514e:	6f1b      	ldr	r3, [r3, #112]	@ 0x70
 8005150:	f003 0301 	and.w	r3, r3, #1
 8005154:	2b01      	cmp	r3, #1
 8005156:	d114      	bne.n	8005182 <HAL_RCCEx_PeriphCLKConfig+0x1aa>
      {
        /* Get Start Tick*/
        tickstart = HAL_GetTick();
 8005158:	f7fd fc62 	bl	8002a20 <HAL_GetTick>
 800515c:	6178      	str	r0, [r7, #20]

        /* Wait till LSE is ready */
        while(__HAL_RCC_GET_FLAG(RCC_FLAG_LSERDY) == RESET)
 800515e:	e00a      	b.n	8005176 <HAL_RCCEx_PeriphCLKConfig+0x19e>
        {
          if((HAL_GetTick() - tickstart ) > RCC_LSE_TIMEOUT_VALUE)
 8005160:	f7fd fc5e 	bl	8002a20 <HAL_GetTick>
 8005164:	4602      	mov	r2, r0
 8005166:	697b      	ldr	r3, [r7, #20]
 8005168:	1ad3      	subs	r3, r2, r3
 800516a:	f241 3288 	movw	r2, #5000	@ 0x1388
 800516e:	4293      	cmp	r3, r2
 8005170:	d901      	bls.n	8005176 <HAL_RCCEx_PeriphCLKConfig+0x19e>
          {
            return HAL_TIMEOUT;
 8005172:	2303      	movs	r3, #3
 8005174:	e351      	b.n	800581a <HAL_RCCEx_PeriphCLKConfig+0x842>
        while(__HAL_RCC_GET_FLAG(RCC_FLAG_LSERDY) == RESET)
 8005176:	4b0c      	ldr	r3, [pc, #48]	@ (80051a8 <HAL_RCCEx_PeriphCLKConfig+0x1d0>)
 8005178:	6f1b      	ldr	r3, [r3, #112]	@ 0x70
 800517a:	f003 0302 	and.w	r3, r3, #2
 800517e:	2b00      	cmp	r3, #0
 8005180:	d0ee      	beq.n	8005160 <HAL_RCCEx_PeriphCLKConfig+0x188>
          }
        }
      }
    }
    __HAL_RCC_RTC_CONFIG(PeriphClkInit->RTCClockSelection);
 8005182:	687b      	ldr	r3, [r7, #4]
 8005184:	6b1b      	ldr	r3, [r3, #48]	@ 0x30
 8005186:	f403 7340 	and.w	r3, r3, #768	@ 0x300
 800518a:	f5b3 7f40 	cmp.w	r3, #768	@ 0x300
 800518e:	d111      	bne.n	80051b4 <HAL_RCCEx_PeriphCLKConfig+0x1dc>
 8005190:	4b05      	ldr	r3, [pc, #20]	@ (80051a8 <HAL_RCCEx_PeriphCLKConfig+0x1d0>)
 8005192:	689b      	ldr	r3, [r3, #8]
 8005194:	f423 12f8 	bic.w	r2, r3, #2031616	@ 0x1f0000
 8005198:	687b      	ldr	r3, [r7, #4]
 800519a:	6b19      	ldr	r1, [r3, #48]	@ 0x30
 800519c:	4b04      	ldr	r3, [pc, #16]	@ (80051b0 <HAL_RCCEx_PeriphCLKConfig+0x1d8>)
 800519e:	400b      	ands	r3, r1
 80051a0:	4901      	ldr	r1, [pc, #4]	@ (80051a8 <HAL_RCCEx_PeriphCLKConfig+0x1d0>)
 80051a2:	4313      	orrs	r3, r2
 80051a4:	608b      	str	r3, [r1, #8]
 80051a6:	e00b      	b.n	80051c0 <HAL_RCCEx_PeriphCLKConfig+0x1e8>
 80051a8:	40023800 	.word	0x40023800
 80051ac:	40007000 	.word	0x40007000
 80051b0:	0ffffcff 	.word	0x0ffffcff
 80051b4:	4bac      	ldr	r3, [pc, #688]	@ (8005468 <HAL_RCCEx_PeriphCLKConfig+0x490>)
 80051b6:	689b      	ldr	r3, [r3, #8]
 80051b8:	4aab      	ldr	r2, [pc, #684]	@ (8005468 <HAL_RCCEx_PeriphCLKConfig+0x490>)
 80051ba:	f423 13f8 	bic.w	r3, r3, #2031616	@ 0x1f0000
 80051be:	6093      	str	r3, [r2, #8]
 80051c0:	4ba9      	ldr	r3, [pc, #676]	@ (8005468 <HAL_RCCEx_PeriphCLKConfig+0x490>)
 80051c2:	6f1a      	ldr	r2, [r3, #112]	@ 0x70
 80051c4:	687b      	ldr	r3, [r7, #4]
 80051c6:	6b1b      	ldr	r3, [r3, #48]	@ 0x30
 80051c8:	f3c3 030b 	ubfx	r3, r3, #0, #12
 80051cc:	49a6      	ldr	r1, [pc, #664]	@ (8005468 <HAL_RCCEx_PeriphCLKConfig+0x490>)
 80051ce:	4313      	orrs	r3, r2
 80051d0:	670b      	str	r3, [r1, #112]	@ 0x70
  }

  /*------------------------------------ TIM configuration --------------------------------------*/
  if(((PeriphClkInit->PeriphClockSelection) & RCC_PERIPHCLK_TIM) == (RCC_PERIPHCLK_TIM))
 80051d2:	687b      	ldr	r3, [r7, #4]
 80051d4:	681b      	ldr	r3, [r3, #0]
 80051d6:	f003 0310 	and.w	r3, r3, #16
 80051da:	2b00      	cmp	r3, #0
 80051dc:	d010      	beq.n	8005200 <HAL_RCCEx_PeriphCLKConfig+0x228>
  {
    /* Check the parameters */
    assert_param(IS_RCC_TIMPRES(PeriphClkInit->TIMPresSelection));

    /* Configure Timer Prescaler */
    __HAL_RCC_TIMCLKPRESCALER(PeriphClkInit->TIMPresSelection);
 80051de:	4ba2      	ldr	r3, [pc, #648]	@ (8005468 <HAL_RCCEx_PeriphCLKConfig+0x490>)
 80051e0:	f8d3 308c 	ldr.w	r3, [r3, #140]	@ 0x8c
 80051e4:	4aa0      	ldr	r2, [pc, #640]	@ (8005468 <HAL_RCCEx_PeriphCLKConfig+0x490>)
 80051e6:	f023 7380 	bic.w	r3, r3, #16777216	@ 0x1000000
 80051ea:	f8c2 308c 	str.w	r3, [r2, #140]	@ 0x8c
 80051ee:	4b9e      	ldr	r3, [pc, #632]	@ (8005468 <HAL_RCCEx_PeriphCLKConfig+0x490>)
 80051f0:	f8d3 208c 	ldr.w	r2, [r3, #140]	@ 0x8c
 80051f4:	687b      	ldr	r3, [r7, #4]
 80051f6:	6b9b      	ldr	r3, [r3, #56]	@ 0x38
 80051f8:	499b      	ldr	r1, [pc, #620]	@ (8005468 <HAL_RCCEx_PeriphCLKConfig+0x490>)
 80051fa:	4313      	orrs	r3, r2
 80051fc:	f8c1 308c 	str.w	r3, [r1, #140]	@ 0x8c
  }

  /*-------------------------------------- I2C1 Configuration -----------------------------------*/
  if(((PeriphClkInit->PeriphClockSelection) & RCC_PERIPHCLK_I2C1) == RCC_PERIPHCLK_I2C1)
 8005200:	687b      	ldr	r3, [r7, #4]
 8005202:	681b      	ldr	r3, [r3, #0]
 8005204:	f403 4380 	and.w	r3, r3, #16384	@ 0x4000
 8005208:	2b00      	cmp	r3, #0
 800520a:	d00a      	beq.n	8005222 <HAL_RCCEx_PeriphCLKConfig+0x24a>
  {
    /* Check the parameters */
    assert_param(IS_RCC_I2C1CLKSOURCE(PeriphClkInit->I2c1ClockSelection));

    /* Configure the I2C1 clock source */
    __HAL_RCC_I2C1_CONFIG(PeriphClkInit->I2c1ClockSelection);
 800520c:	4b96      	ldr	r3, [pc, #600]	@ (8005468 <HAL_RCCEx_PeriphCLKConfig+0x490>)
 800520e:	f8d3 3090 	ldr.w	r3, [r3, #144]	@ 0x90
 8005212:	f423 3240 	bic.w	r2, r3, #196608	@ 0x30000
 8005216:	687b      	ldr	r3, [r7, #4]
 8005218:	6e5b      	ldr	r3, [r3, #100]	@ 0x64
 800521a:	4993      	ldr	r1, [pc, #588]	@ (8005468 <HAL_RCCEx_PeriphCLKConfig+0x490>)
 800521c:	4313      	orrs	r3, r2
 800521e:	f8c1 3090 	str.w	r3, [r1, #144]	@ 0x90
  }

  /*-------------------------------------- I2C2 Configuration -----------------------------------*/
  if(((PeriphClkInit->PeriphClockSelection) & RCC_PERIPHCLK_I2C2) == RCC_PERIPHCLK_I2C2)
 8005222:	687b      	ldr	r3, [r7, #4]
 8005224:	681b      	ldr	r3, [r3, #0]
 8005226:	f403 4300 	and.w	r3, r3, #32768	@ 0x8000
 800522a:	2b00      	cmp	r3, #0
 800522c:	d00a      	beq.n	8005244 <HAL_RCCEx_PeriphCLKConfig+0x26c>
  {
    /* Check the parameters */
    assert_param(IS_RCC_I2C2CLKSOURCE(PeriphClkInit->I2c2ClockSelection));

    /* Configure the I2C2 clock source */
    __HAL_RCC_I2C2_CONFIG(PeriphClkInit->I2c2ClockSelection);
 800522e:	4b8e      	ldr	r3, [pc, #568]	@ (8005468 <HAL_RCCEx_PeriphCLKConfig+0x490>)
 8005230:	f8d3 3090 	ldr.w	r3, [r3, #144]	@ 0x90
 8005234:	f423 2240 	bic.w	r2, r3, #786432	@ 0xc0000
 8005238:	687b      	ldr	r3, [r7, #4]
 800523a:	6e9b      	ldr	r3, [r3, #104]	@ 0x68
 800523c:	498a      	ldr	r1, [pc, #552]	@ (8005468 <HAL_RCCEx_PeriphCLKConfig+0x490>)
 800523e:	4313      	orrs	r3, r2
 8005240:	f8c1 3090 	str.w	r3, [r1, #144]	@ 0x90
  }

  /*-------------------------------------- I2C3 Configuration -----------------------------------*/
  if(((PeriphClkInit->PeriphClockSelection) & RCC_PERIPHCLK_I2C3) == RCC_PERIPHCLK_I2C3)
 8005244:	687b      	ldr	r3, [r7, #4]
 8005246:	681b      	ldr	r3, [r3, #0]
 8005248:	f403 3380 	and.w	r3, r3, #65536	@ 0x10000
 800524c:	2b00      	cmp	r3, #0
 800524e:	d00a      	beq.n	8005266 <HAL_RCCEx_PeriphCLKConfig+0x28e>
  {
    /* Check the parameters */
    assert_param(IS_RCC_I2C3CLKSOURCE(PeriphClkInit->I2c3ClockSelection));

    /* Configure the I2C3 clock source */
    __HAL_RCC_I2C3_CONFIG(PeriphClkInit->I2c3ClockSelection);
 8005250:	4b85      	ldr	r3, [pc, #532]	@ (8005468 <HAL_RCCEx_PeriphCLKConfig+0x490>)
 8005252:	f8d3 3090 	ldr.w	r3, [r3, #144]	@ 0x90
 8005256:	f423 1240 	bic.w	r2, r3, #3145728	@ 0x300000
 800525a:	687b      	ldr	r3, [r7, #4]
 800525c:	6edb      	ldr	r3, [r3, #108]	@ 0x6c
 800525e:	4982      	ldr	r1, [pc, #520]	@ (8005468 <HAL_RCCEx_PeriphCLKConfig+0x490>)
 8005260:	4313      	orrs	r3, r2
 8005262:	f8c1 3090 	str.w	r3, [r1, #144]	@ 0x90
  }

  /*-------------------------------------- I2C4 Configuration -----------------------------------*/
  if(((PeriphClkInit->PeriphClockSelection) & RCC_PERIPHCLK_I2C4) == RCC_PERIPHCLK_I2C4)
 8005266:	687b      	ldr	r3, [r7, #4]
 8005268:	681b      	ldr	r3, [r3, #0]
 800526a:	f403 3300 	and.w	r3, r3, #131072	@ 0x20000
 800526e:	2b00      	cmp	r3, #0
 8005270:	d00a      	beq.n	8005288 <HAL_RCCEx_PeriphCLKConfig+0x2b0>
  {
    /* Check the parameters */
    assert_param(IS_RCC_I2C4CLKSOURCE(PeriphClkInit->I2c4ClockSelection));

    /* Configure the I2C4 clock source */
    __HAL_RCC_I2C4_CONFIG(PeriphClkInit->I2c4ClockSelection);
 8005272:	4b7d      	ldr	r3, [pc, #500]	@ (8005468 <HAL_RCCEx_PeriphCLKConfig+0x490>)
 8005274:	f8d3 3090 	ldr.w	r3, [r3, #144]	@ 0x90
 8005278:	f423 0240 	bic.w	r2, r3, #12582912	@ 0xc00000
 800527c:	687b      	ldr	r3, [r7, #4]
 800527e:	6f1b      	ldr	r3, [r3, #112]	@ 0x70
 8005280:	4979      	ldr	r1, [pc, #484]	@ (8005468 <HAL_RCCEx_PeriphCLKConfig+0x490>)
 8005282:	4313      	orrs	r3, r2
 8005284:	f8c1 3090 	str.w	r3, [r1, #144]	@ 0x90
  }

  /*-------------------------------------- USART1 Configuration -----------------------------------*/
  if(((PeriphClkInit->PeriphClockSelection) & RCC_PERIPHCLK_USART1) == RCC_PERIPHCLK_USART1)
 8005288:	687b      	ldr	r3, [r7, #4]
 800528a:	681b      	ldr	r3, [r3, #0]
 800528c:	f003 0340 	and.w	r3, r3, #64	@ 0x40
 8005290:	2b00      	cmp	r3, #0
 8005292:	d00a      	beq.n	80052aa <HAL_RCCEx_PeriphCLKConfig+0x2d2>
  {
    /* Check the parameters */
    assert_param(IS_RCC_USART1CLKSOURCE(PeriphClkInit->Usart1ClockSelection));

    /* Configure the USART1 clock source */
    __HAL_RCC_USART1_CONFIG(PeriphClkInit->Usart1ClockSelection);
 8005294:	4b74      	ldr	r3, [pc, #464]	@ (8005468 <HAL_RCCEx_PeriphCLKConfig+0x490>)
 8005296:	f8d3 3090 	ldr.w	r3, [r3, #144]	@ 0x90
 800529a:	f023 0203 	bic.w	r2, r3, #3
 800529e:	687b      	ldr	r3, [r7, #4]
 80052a0:	6c5b      	ldr	r3, [r3, #68]	@ 0x44
 80052a2:	4971      	ldr	r1, [pc, #452]	@ (8005468 <HAL_RCCEx_PeriphCLKConfig+0x490>)
 80052a4:	4313      	orrs	r3, r2
 80052a6:	f8c1 3090 	str.w	r3, [r1, #144]	@ 0x90
  }

  /*-------------------------------------- USART2 Configuration -----------------------------------*/
  if(((PeriphClkInit->PeriphClockSelection) & RCC_PERIPHCLK_USART2) == RCC_PERIPHCLK_USART2)
 80052aa:	687b      	ldr	r3, [r7, #4]
 80052ac:	681b      	ldr	r3, [r3, #0]
 80052ae:	f003 0380 	and.w	r3, r3, #128	@ 0x80
 80052b2:	2b00      	cmp	r3, #0
 80052b4:	d00a      	beq.n	80052cc <HAL_RCCEx_PeriphCLKConfig+0x2f4>
  {
    /* Check the parameters */
    assert_param(IS_RCC_USART2CLKSOURCE(PeriphClkInit->Usart2ClockSelection));

    /* Configure the USART2 clock source */
    __HAL_RCC_USART2_CONFIG(PeriphClkInit->Usart2ClockSelection);
 80052b6:	4b6c      	ldr	r3, [pc, #432]	@ (8005468 <HAL_RCCEx_PeriphCLKConfig+0x490>)
 80052b8:	f8d3 3090 	ldr.w	r3, [r3, #144]	@ 0x90
 80052bc:	f023 020c 	bic.w	r2, r3, #12
 80052c0:	687b      	ldr	r3, [r7, #4]
 80052c2:	6c9b      	ldr	r3, [r3, #72]	@ 0x48
 80052c4:	4968      	ldr	r1, [pc, #416]	@ (8005468 <HAL_RCCEx_PeriphCLKConfig+0x490>)
 80052c6:	4313      	orrs	r3, r2
 80052c8:	f8c1 3090 	str.w	r3, [r1, #144]	@ 0x90
  }

  /*-------------------------------------- USART3 Configuration -----------------------------------*/
  if(((PeriphClkInit->PeriphClockSelection) & RCC_PERIPHCLK_USART3) == RCC_PERIPHCLK_USART3)
 80052cc:	687b      	ldr	r3, [r7, #4]
 80052ce:	681b      	ldr	r3, [r3, #0]
 80052d0:	f403 7380 	and.w	r3, r3, #256	@ 0x100
 80052d4:	2b00      	cmp	r3, #0
 80052d6:	d00a      	beq.n	80052ee <HAL_RCCEx_PeriphCLKConfig+0x316>
  {
    /* Check the parameters */
    assert_param(IS_RCC_USART3CLKSOURCE(PeriphClkInit->Usart3ClockSelection));

    /* Configure the USART3 clock source */
    __HAL_RCC_USART3_CONFIG(PeriphClkInit->Usart3ClockSelection);
 80052d8:	4b63      	ldr	r3, [pc, #396]	@ (8005468 <HAL_RCCEx_PeriphCLKConfig+0x490>)
 80052da:	f8d3 3090 	ldr.w	r3, [r3, #144]	@ 0x90
 80052de:	f023 0230 	bic.w	r2, r3, #48	@ 0x30
 80052e2:	687b      	ldr	r3, [r7, #4]
 80052e4:	6cdb      	ldr	r3, [r3, #76]	@ 0x4c
 80052e6:	4960      	ldr	r1, [pc, #384]	@ (8005468 <HAL_RCCEx_PeriphCLKConfig+0x490>)
 80052e8:	4313      	orrs	r3, r2
 80052ea:	f8c1 3090 	str.w	r3, [r1, #144]	@ 0x90
  }

  /*-------------------------------------- UART4 Configuration -----------------------------------*/
  if(((PeriphClkInit->PeriphClockSelection) & RCC_PERIPHCLK_UART4) == RCC_PERIPHCLK_UART4)
 80052ee:	687b      	ldr	r3, [r7, #4]
 80052f0:	681b      	ldr	r3, [r3, #0]
 80052f2:	f403 7300 	and.w	r3, r3, #512	@ 0x200
 80052f6:	2b00      	cmp	r3, #0
 80052f8:	d00a      	beq.n	8005310 <HAL_RCCEx_PeriphCLKConfig+0x338>
  {
    /* Check the parameters */
    assert_param(IS_RCC_UART4CLKSOURCE(PeriphClkInit->Uart4ClockSelection));

    /* Configure the UART4 clock source */
    __HAL_RCC_UART4_CONFIG(PeriphClkInit->Uart4ClockSelection);
 80052fa:	4b5b      	ldr	r3, [pc, #364]	@ (8005468 <HAL_RCCEx_PeriphCLKConfig+0x490>)
 80052fc:	f8d3 3090 	ldr.w	r3, [r3, #144]	@ 0x90
 8005300:	f023 02c0 	bic.w	r2, r3, #192	@ 0xc0
 8005304:	687b      	ldr	r3, [r7, #4]
 8005306:	6d1b      	ldr	r3, [r3, #80]	@ 0x50
 8005308:	4957      	ldr	r1, [pc, #348]	@ (8005468 <HAL_RCCEx_PeriphCLKConfig+0x490>)
 800530a:	4313      	orrs	r3, r2
 800530c:	f8c1 3090 	str.w	r3, [r1, #144]	@ 0x90
  }

  /*-------------------------------------- UART5 Configuration -----------------------------------*/
  if(((PeriphClkInit->PeriphClockSelection) & RCC_PERIPHCLK_UART5) == RCC_PERIPHCLK_UART5)
 8005310:	687b      	ldr	r3, [r7, #4]
 8005312:	681b      	ldr	r3, [r3, #0]
 8005314:	f403 6380 	and.w	r3, r3, #1024	@ 0x400
 8005318:	2b00      	cmp	r3, #0
 800531a:	d00a      	beq.n	8005332 <HAL_RCCEx_PeriphCLKConfig+0x35a>
  {
    /* Check the parameters */
    assert_param(IS_RCC_UART5CLKSOURCE(PeriphClkInit->Uart5ClockSelection));

    /* Configure the UART5 clock source */
    __HAL_RCC_UART5_CONFIG(PeriphClkInit->Uart5ClockSelection);
 800531c:	4b52      	ldr	r3, [pc, #328]	@ (8005468 <HAL_RCCEx_PeriphCLKConfig+0x490>)
 800531e:	f8d3 3090 	ldr.w	r3, [r3, #144]	@ 0x90
 8005322:	f423 7240 	bic.w	r2, r3, #768	@ 0x300
 8005326:	687b      	ldr	r3, [r7, #4]
 8005328:	6d5b      	ldr	r3, [r3, #84]	@ 0x54
 800532a:	494f      	ldr	r1, [pc, #316]	@ (8005468 <HAL_RCCEx_PeriphCLKConfig+0x490>)
 800532c:	4313      	orrs	r3, r2
 800532e:	f8c1 3090 	str.w	r3, [r1, #144]	@ 0x90
  }

  /*-------------------------------------- USART6 Configuration -----------------------------------*/
  if(((PeriphClkInit->PeriphClockSelection) & RCC_PERIPHCLK_USART6) == RCC_PERIPHCLK_USART6)
 8005332:	687b      	ldr	r3, [r7, #4]
 8005334:	681b      	ldr	r3, [r3, #0]
 8005336:	f403 6300 	and.w	r3, r3, #2048	@ 0x800
 800533a:	2b00      	cmp	r3, #0
 800533c:	d00a      	beq.n	8005354 <HAL_RCCEx_PeriphCLKConfig+0x37c>
  {
    /* Check the parameters */
    assert_param(IS_RCC_USART6CLKSOURCE(PeriphClkInit->Usart6ClockSelection));

    /* Configure the USART6 clock source */
    __HAL_RCC_USART6_CONFIG(PeriphClkInit->Usart6ClockSelection);
 800533e:	4b4a      	ldr	r3, [pc, #296]	@ (8005468 <HAL_RCCEx_PeriphCLKConfig+0x490>)
 8005340:	f8d3 3090 	ldr.w	r3, [r3, #144]	@ 0x90
 8005344:	f423 6240 	bic.w	r2, r3, #3072	@ 0xc00
 8005348:	687b      	ldr	r3, [r7, #4]
 800534a:	6d9b      	ldr	r3, [r3, #88]	@ 0x58
 800534c:	4946      	ldr	r1, [pc, #280]	@ (8005468 <HAL_RCCEx_PeriphCLKConfig+0x490>)
 800534e:	4313      	orrs	r3, r2
 8005350:	f8c1 3090 	str.w	r3, [r1, #144]	@ 0x90
  }

  /*-------------------------------------- UART7 Configuration -----------------------------------*/
  if(((PeriphClkInit->PeriphClockSelection) & RCC_PERIPHCLK_UART7) == RCC_PERIPHCLK_UART7)
 8005354:	687b      	ldr	r3, [r7, #4]
 8005356:	681b      	ldr	r3, [r3, #0]
 8005358:	f403 5380 	and.w	r3, r3, #4096	@ 0x1000
 800535c:	2b00      	cmp	r3, #0
 800535e:	d00a      	beq.n	8005376 <HAL_RCCEx_PeriphCLKConfig+0x39e>
  {
    /* Check the parameters */
    assert_param(IS_RCC_UART7CLKSOURCE(PeriphClkInit->Uart7ClockSelection));

    /* Configure the UART7 clock source */
    __HAL_RCC_UART7_CONFIG(PeriphClkInit->Uart7ClockSelection);
 8005360:	4b41      	ldr	r3, [pc, #260]	@ (8005468 <HAL_RCCEx_PeriphCLKConfig+0x490>)
 8005362:	f8d3 3090 	ldr.w	r3, [r3, #144]	@ 0x90
 8005366:	f423 5240 	bic.w	r2, r3, #12288	@ 0x3000
 800536a:	687b      	ldr	r3, [r7, #4]
 800536c:	6ddb      	ldr	r3, [r3, #92]	@ 0x5c
 800536e:	493e      	ldr	r1, [pc, #248]	@ (8005468 <HAL_RCCEx_PeriphCLKConfig+0x490>)
 8005370:	4313      	orrs	r3, r2
 8005372:	f8c1 3090 	str.w	r3, [r1, #144]	@ 0x90
  }

  /*-------------------------------------- UART8 Configuration -----------------------------------*/
  if(((PeriphClkInit->PeriphClockSelection) & RCC_PERIPHCLK_UART8) == RCC_PERIPHCLK_UART8)
 8005376:	687b      	ldr	r3, [r7, #4]
 8005378:	681b      	ldr	r3, [r3, #0]
 800537a:	f403 5300 	and.w	r3, r3, #8192	@ 0x2000
 800537e:	2b00      	cmp	r3, #0
 8005380:	d00a      	beq.n	8005398 <HAL_RCCEx_PeriphCLKConfig+0x3c0>
  {
    /* Check the parameters */
    assert_param(IS_RCC_UART8CLKSOURCE(PeriphClkInit->Uart8ClockSelection));

    /* Configure the UART8 clock source */
    __HAL_RCC_UART8_CONFIG(PeriphClkInit->Uart8ClockSelection);
 8005382:	4b39      	ldr	r3, [pc, #228]	@ (8005468 <HAL_RCCEx_PeriphCLKConfig+0x490>)
 8005384:	f8d3 3090 	ldr.w	r3, [r3, #144]	@ 0x90
 8005388:	f423 4240 	bic.w	r2, r3, #49152	@ 0xc000
 800538c:	687b      	ldr	r3, [r7, #4]
 800538e:	6e1b      	ldr	r3, [r3, #96]	@ 0x60
 8005390:	4935      	ldr	r1, [pc, #212]	@ (8005468 <HAL_RCCEx_PeriphCLKConfig+0x490>)
 8005392:	4313      	orrs	r3, r2
 8005394:	f8c1 3090 	str.w	r3, [r1, #144]	@ 0x90
  }

  /*--------------------------------------- CEC Configuration -----------------------------------*/
  if(((PeriphClkInit->PeriphClockSelection) & RCC_PERIPHCLK_CEC) == RCC_PERIPHCLK_CEC)
 8005398:	687b      	ldr	r3, [r7, #4]
 800539a:	681b      	ldr	r3, [r3, #0]
 800539c:	f403 0380 	and.w	r3, r3, #4194304	@ 0x400000
 80053a0:	2b00      	cmp	r3, #0
 80053a2:	d00a      	beq.n	80053ba <HAL_RCCEx_PeriphCLKConfig+0x3e2>
  {
    /* Check the parameters */
    assert_param(IS_RCC_CECCLKSOURCE(PeriphClkInit->CecClockSelection));

    /* Configure the CEC clock source */
    __HAL_RCC_CEC_CONFIG(PeriphClkInit->CecClockSelection);
 80053a4:	4b30      	ldr	r3, [pc, #192]	@ (8005468 <HAL_RCCEx_PeriphCLKConfig+0x490>)
 80053a6:	f8d3 3090 	ldr.w	r3, [r3, #144]	@ 0x90
 80053aa:	f023 6280 	bic.w	r2, r3, #67108864	@ 0x4000000
 80053ae:	687b      	ldr	r3, [r7, #4]
 80053b0:	6f9b      	ldr	r3, [r3, #120]	@ 0x78
 80053b2:	492d      	ldr	r1, [pc, #180]	@ (8005468 <HAL_RCCEx_PeriphCLKConfig+0x490>)
 80053b4:	4313      	orrs	r3, r2
 80053b6:	f8c1 3090 	str.w	r3, [r1, #144]	@ 0x90
  }

  /*-------------------------------------- CK48 Configuration -----------------------------------*/
  if(((PeriphClkInit->PeriphClockSelection) & RCC_PERIPHCLK_CLK48) == RCC_PERIPHCLK_CLK48)
 80053ba:	687b      	ldr	r3, [r7, #4]
 80053bc:	681b      	ldr	r3, [r3, #0]
 80053be:	f403 1300 	and.w	r3, r3, #2097152	@ 0x200000
 80053c2:	2b00      	cmp	r3, #0
 80053c4:	d011      	beq.n	80053ea <HAL_RCCEx_PeriphCLKConfig+0x412>
  {
    /* Check the parameters */
    assert_param(IS_RCC_CLK48SOURCE(PeriphClkInit->Clk48ClockSelection));

    /* Configure the CLK48 source */
    __HAL_RCC_CLK48_CONFIG(PeriphClkInit->Clk48ClockSelection);
 80053c6:	4b28      	ldr	r3, [pc, #160]	@ (8005468 <HAL_RCCEx_PeriphCLKConfig+0x490>)
 80053c8:	f8d3 3090 	ldr.w	r3, [r3, #144]	@ 0x90
 80053cc:	f023 6200 	bic.w	r2, r3, #134217728	@ 0x8000000
 80053d0:	687b      	ldr	r3, [r7, #4]
 80053d2:	6fdb      	ldr	r3, [r3, #124]	@ 0x7c
 80053d4:	4924      	ldr	r1, [pc, #144]	@ (8005468 <HAL_RCCEx_PeriphCLKConfig+0x490>)
 80053d6:	4313      	orrs	r3, r2
 80053d8:	f8c1 3090 	str.w	r3, [r1, #144]	@ 0x90

    /* Enable the PLLSAI when it's used as clock source for CK48 */
    if(PeriphClkInit->Clk48ClockSelection == RCC_CLK48SOURCE_PLLSAIP)
 80053dc:	687b      	ldr	r3, [r7, #4]
 80053de:	6fdb      	ldr	r3, [r3, #124]	@ 0x7c
 80053e0:	f1b3 6f00 	cmp.w	r3, #134217728	@ 0x8000000
 80053e4:	d101      	bne.n	80053ea <HAL_RCCEx_PeriphCLKConfig+0x412>
    {
      pllsaiused = 1;
 80053e6:	2301      	movs	r3, #1
 80053e8:	61bb      	str	r3, [r7, #24]
    }
  }

  /*-------------------------------------- LTDC Configuration -----------------------------------*/
#if defined(STM32F746xx) || defined(STM32F756xx) || defined (STM32F767xx) || defined (STM32F769xx) || defined (STM32F777xx) || defined (STM32F779xx) || defined (STM32F750xx)
  if(((PeriphClkInit->PeriphClockSelection) & RCC_PERIPHCLK_LTDC) == RCC_PERIPHCLK_LTDC)
 80053ea:	687b      	ldr	r3, [r7, #4]
 80053ec:	681b      	ldr	r3, [r3, #0]
 80053ee:	f003 0308 	and.w	r3, r3, #8
 80053f2:	2b00      	cmp	r3, #0
 80053f4:	d001      	beq.n	80053fa <HAL_RCCEx_PeriphCLKConfig+0x422>
  {
    pllsaiused = 1;
 80053f6:	2301      	movs	r3, #1
 80053f8:	61bb      	str	r3, [r7, #24]
  }
#endif /* STM32F746xx || STM32F756xx || STM32F767xx || STM32F769xx || STM32F777xx || STM32F779xx || STM32F750xx */

  /*-------------------------------------- LPTIM1 Configuration -----------------------------------*/
  if(((PeriphClkInit->PeriphClockSelection) & RCC_PERIPHCLK_LPTIM1) == RCC_PERIPHCLK_LPTIM1)
 80053fa:	687b      	ldr	r3, [r7, #4]
 80053fc:	681b      	ldr	r3, [r3, #0]
 80053fe:	f403 2380 	and.w	r3, r3, #262144	@ 0x40000
 8005402:	2b00      	cmp	r3, #0
 8005404:	d00a      	beq.n	800541c <HAL_RCCEx_PeriphCLKConfig+0x444>
  {
    /* Check the parameters */
    assert_param(IS_RCC_LPTIM1CLK(PeriphClkInit->Lptim1ClockSelection));

    /* Configure the LTPIM1 clock source */
    __HAL_RCC_LPTIM1_CONFIG(PeriphClkInit->Lptim1ClockSelection);
 8005406:	4b18      	ldr	r3, [pc, #96]	@ (8005468 <HAL_RCCEx_PeriphCLKConfig+0x490>)
 8005408:	f8d3 3090 	ldr.w	r3, [r3, #144]	@ 0x90
 800540c:	f023 7240 	bic.w	r2, r3, #50331648	@ 0x3000000
 8005410:	687b      	ldr	r3, [r7, #4]
 8005412:	6f5b      	ldr	r3, [r3, #116]	@ 0x74
 8005414:	4914      	ldr	r1, [pc, #80]	@ (8005468 <HAL_RCCEx_PeriphCLKConfig+0x490>)
 8005416:	4313      	orrs	r3, r2
 8005418:	f8c1 3090 	str.w	r3, [r1, #144]	@ 0x90
   }

  /*------------------------------------- SDMMC1 Configuration ------------------------------------*/
  if(((PeriphClkInit->PeriphClockSelection) & RCC_PERIPHCLK_SDMMC1) == RCC_PERIPHCLK_SDMMC1)
 800541c:	687b      	ldr	r3, [r7, #4]
 800541e:	681b      	ldr	r3, [r3, #0]
 8005420:	f403 0300 	and.w	r3, r3, #8388608	@ 0x800000
 8005424:	2b00      	cmp	r3, #0
 8005426:	d00b      	beq.n	8005440 <HAL_RCCEx_PeriphCLKConfig+0x468>
  {
    /* Check the parameters */
    assert_param(IS_RCC_SDMMC1CLKSOURCE(PeriphClkInit->Sdmmc1ClockSelection));

    /* Configure the SDMMC1 clock source */
    __HAL_RCC_SDMMC1_CONFIG(PeriphClkInit->Sdmmc1ClockSelection);
 8005428:	4b0f      	ldr	r3, [pc, #60]	@ (8005468 <HAL_RCCEx_PeriphCLKConfig+0x490>)
 800542a:	f8d3 3090 	ldr.w	r3, [r3, #144]	@ 0x90
 800542e:	f023 5280 	bic.w	r2, r3, #268435456	@ 0x10000000
 8005432:	687b      	ldr	r3, [r7, #4]
 8005434:	f8d3 3080 	ldr.w	r3, [r3, #128]	@ 0x80
 8005438:	490b      	ldr	r1, [pc, #44]	@ (8005468 <HAL_RCCEx_PeriphCLKConfig+0x490>)
 800543a:	4313      	orrs	r3, r2
 800543c:	f8c1 3090 	str.w	r3, [r1, #144]	@ 0x90
  }

#if defined (STM32F765xx) || defined (STM32F767xx) || defined (STM32F769xx) || defined (STM32F777xx) || defined (STM32F779xx)
  /*------------------------------------- SDMMC2 Configuration ------------------------------------*/
  if(((PeriphClkInit->PeriphClockSelection) & RCC_PERIPHCLK_SDMMC2) == RCC_PERIPHCLK_SDMMC2)
 8005440:	687b      	ldr	r3, [r7, #4]
 8005442:	681b      	ldr	r3, [r3, #0]
 8005444:	f003 6380 	and.w	r3, r3, #67108864	@ 0x4000000
 8005448:	2b00      	cmp	r3, #0
 800544a:	d00f      	beq.n	800546c <HAL_RCCEx_PeriphCLKConfig+0x494>
  {
    /* Check the parameters */
    assert_param(IS_RCC_SDMMC2CLKSOURCE(PeriphClkInit->Sdmmc2ClockSelection));

    /* Configure the SDMMC2 clock source */
    __HAL_RCC_SDMMC2_CONFIG(PeriphClkInit->Sdmmc2ClockSelection);
 800544c:	4b06      	ldr	r3, [pc, #24]	@ (8005468 <HAL_RCCEx_PeriphCLKConfig+0x490>)
 800544e:	f8d3 3090 	ldr.w	r3, [r3, #144]	@ 0x90
 8005452:	f023 5200 	bic.w	r2, r3, #536870912	@ 0x20000000
 8005456:	687b      	ldr	r3, [r7, #4]
 8005458:	f8d3 3084 	ldr.w	r3, [r3, #132]	@ 0x84
 800545c:	4902      	ldr	r1, [pc, #8]	@ (8005468 <HAL_RCCEx_PeriphCLKConfig+0x490>)
 800545e:	4313      	orrs	r3, r2
 8005460:	f8c1 3090 	str.w	r3, [r1, #144]	@ 0x90
 8005464:	e002      	b.n	800546c <HAL_RCCEx_PeriphCLKConfig+0x494>
 8005466:	bf00      	nop
 8005468:	40023800 	.word	0x40023800
  }

  /*------------------------------------- DFSDM1 Configuration -------------------------------------*/
  if(((PeriphClkInit->PeriphClockSelection) & RCC_PERIPHCLK_DFSDM1) == RCC_PERIPHCLK_DFSDM1)
 800546c:	687b      	ldr	r3, [r7, #4]
 800546e:	681b      	ldr	r3, [r3, #0]
 8005470:	f003 6300 	and.w	r3, r3, #134217728	@ 0x8000000
 8005474:	2b00      	cmp	r3, #0
 8005476:	d00b      	beq.n	8005490 <HAL_RCCEx_PeriphCLKConfig+0x4b8>
  {
    /* Check the parameters */
    assert_param(IS_RCC_DFSDM1CLKSOURCE(PeriphClkInit->Dfsdm1ClockSelection));

    /* Configure the DFSDM1 interface clock source */
    __HAL_RCC_DFSDM1_CONFIG(PeriphClkInit->Dfsdm1ClockSelection);
 8005478:	4b8a      	ldr	r3, [pc, #552]	@ (80056a4 <HAL_RCCEx_PeriphCLKConfig+0x6cc>)
 800547a:	f8d3 308c 	ldr.w	r3, [r3, #140]	@ 0x8c
 800547e:	f023 7200 	bic.w	r2, r3, #33554432	@ 0x2000000
 8005482:	687b      	ldr	r3, [r7, #4]
 8005484:	f8d3 3088 	ldr.w	r3, [r3, #136]	@ 0x88
 8005488:	4986      	ldr	r1, [pc, #536]	@ (80056a4 <HAL_RCCEx_PeriphCLKConfig+0x6cc>)
 800548a:	4313      	orrs	r3, r2
 800548c:	f8c1 308c 	str.w	r3, [r1, #140]	@ 0x8c
  }

  /*------------------------------------- DFSDM AUDIO Configuration -------------------------------------*/
  if(((PeriphClkInit->PeriphClockSelection) & RCC_PERIPHCLK_DFSDM1_AUDIO) == RCC_PERIPHCLK_DFSDM1_AUDIO)
 8005490:	687b      	ldr	r3, [r7, #4]
 8005492:	681b      	ldr	r3, [r3, #0]
 8005494:	f003 5380 	and.w	r3, r3, #268435456	@ 0x10000000
 8005498:	2b00      	cmp	r3, #0
 800549a:	d00b      	beq.n	80054b4 <HAL_RCCEx_PeriphCLKConfig+0x4dc>
  {
    /* Check the parameters */
    assert_param(IS_RCC_DFSDM1AUDIOCLKSOURCE(PeriphClkInit->Dfsdm1AudioClockSelection));

    /* Configure the DFSDM interface clock source */
    __HAL_RCC_DFSDM1AUDIO_CONFIG(PeriphClkInit->Dfsdm1AudioClockSelection);
 800549c:	4b81      	ldr	r3, [pc, #516]	@ (80056a4 <HAL_RCCEx_PeriphCLKConfig+0x6cc>)
 800549e:	f8d3 308c 	ldr.w	r3, [r3, #140]	@ 0x8c
 80054a2:	f023 6280 	bic.w	r2, r3, #67108864	@ 0x4000000
 80054a6:	687b      	ldr	r3, [r7, #4]
 80054a8:	f8d3 308c 	ldr.w	r3, [r3, #140]	@ 0x8c
 80054ac:	497d      	ldr	r1, [pc, #500]	@ (80056a4 <HAL_RCCEx_PeriphCLKConfig+0x6cc>)
 80054ae:	4313      	orrs	r3, r2
 80054b0:	f8c1 308c 	str.w	r3, [r1, #140]	@ 0x8c
  }
#endif /* STM32F767xx || STM32F769xx || STM32F777xx || STM32F779xx */

  /*-------------------------------------- PLLI2S Configuration ---------------------------------*/
  /* PLLI2S is configured when a peripheral will use it as source clock : SAI1, SAI2, I2S or SPDIF-RX */
  if((plli2sused == 1) || ((PeriphClkInit->PeriphClockSelection & RCC_PERIPHCLK_PLLI2S) == RCC_PERIPHCLK_PLLI2S))
 80054b4:	69fb      	ldr	r3, [r7, #28]
 80054b6:	2b01      	cmp	r3, #1
 80054b8:	d006      	beq.n	80054c8 <HAL_RCCEx_PeriphCLKConfig+0x4f0>
 80054ba:	687b      	ldr	r3, [r7, #4]
 80054bc:	681b      	ldr	r3, [r3, #0]
 80054be:	f003 7300 	and.w	r3, r3, #33554432	@ 0x2000000
 80054c2:	2b00      	cmp	r3, #0
 80054c4:	f000 80d6 	beq.w	8005674 <HAL_RCCEx_PeriphCLKConfig+0x69c>
  {
    /* Disable the PLLI2S */
    __HAL_RCC_PLLI2S_DISABLE();
 80054c8:	4b76      	ldr	r3, [pc, #472]	@ (80056a4 <HAL_RCCEx_PeriphCLKConfig+0x6cc>)
 80054ca:	681b      	ldr	r3, [r3, #0]
 80054cc:	4a75      	ldr	r2, [pc, #468]	@ (80056a4 <HAL_RCCEx_PeriphCLKConfig+0x6cc>)
 80054ce:	f023 6380 	bic.w	r3, r3, #67108864	@ 0x4000000
 80054d2:	6013      	str	r3, [r2, #0]

    /* Get Start Tick*/
    tickstart = HAL_GetTick();
 80054d4:	f7fd faa4 	bl	8002a20 <HAL_GetTick>
 80054d8:	6178      	str	r0, [r7, #20]

    /* Wait till PLLI2S is disabled */
    while(__HAL_RCC_GET_FLAG(RCC_FLAG_PLLI2SRDY)  != RESET)
 80054da:	e008      	b.n	80054ee <HAL_RCCEx_PeriphCLKConfig+0x516>
    {
      if((HAL_GetTick() - tickstart) > PLLI2S_TIMEOUT_VALUE)
 80054dc:	f7fd faa0 	bl	8002a20 <HAL_GetTick>
 80054e0:	4602      	mov	r2, r0
 80054e2:	697b      	ldr	r3, [r7, #20]
 80054e4:	1ad3      	subs	r3, r2, r3
 80054e6:	2b64      	cmp	r3, #100	@ 0x64
 80054e8:	d901      	bls.n	80054ee <HAL_RCCEx_PeriphCLKConfig+0x516>
      {
        /* return in case of Timeout detected */
        return HAL_TIMEOUT;
 80054ea:	2303      	movs	r3, #3
 80054ec:	e195      	b.n	800581a <HAL_RCCEx_PeriphCLKConfig+0x842>
    while(__HAL_RCC_GET_FLAG(RCC_FLAG_PLLI2SRDY)  != RESET)
 80054ee:	4b6d      	ldr	r3, [pc, #436]	@ (80056a4 <HAL_RCCEx_PeriphCLKConfig+0x6cc>)
 80054f0:	681b      	ldr	r3, [r3, #0]
 80054f2:	f003 6300 	and.w	r3, r3, #134217728	@ 0x8000000
 80054f6:	2b00      	cmp	r3, #0
 80054f8:	d1f0      	bne.n	80054dc <HAL_RCCEx_PeriphCLKConfig+0x504>

    /* check for common PLLI2S Parameters */
    assert_param(IS_RCC_PLLI2SN_VALUE(PeriphClkInit->PLLI2S.PLLI2SN));

    /*----------------- In Case of PLLI2S is selected as source clock for I2S -------------------*/
    if(((((PeriphClkInit->PeriphClockSelection) & RCC_PERIPHCLK_I2S) == RCC_PERIPHCLK_I2S) && (PeriphClkInit->I2sClockSelection == RCC_I2SCLKSOURCE_PLLI2S)))
 80054fa:	687b      	ldr	r3, [r7, #4]
 80054fc:	681b      	ldr	r3, [r3, #0]
 80054fe:	f003 0301 	and.w	r3, r3, #1
 8005502:	2b00      	cmp	r3, #0
 8005504:	d021      	beq.n	800554a <HAL_RCCEx_PeriphCLKConfig+0x572>
 8005506:	687b      	ldr	r3, [r7, #4]
 8005508:	6b5b      	ldr	r3, [r3, #52]	@ 0x34
 800550a:	2b00      	cmp	r3, #0
 800550c:	d11d      	bne.n	800554a <HAL_RCCEx_PeriphCLKConfig+0x572>
    {
      /* check for Parameters */
      assert_param(IS_RCC_PLLI2SR_VALUE(PeriphClkInit->PLLI2S.PLLI2SR));

      /* Read PLLI2SP and PLLI2SQ value from PLLI2SCFGR register (this value is not needed for I2S configuration) */
      tmpreg0 = ((RCC->PLLI2SCFGR & RCC_PLLI2SCFGR_PLLI2SP) >> RCC_PLLI2SCFGR_PLLI2SP_Pos);
 800550e:	4b65      	ldr	r3, [pc, #404]	@ (80056a4 <HAL_RCCEx_PeriphCLKConfig+0x6cc>)
 8005510:	f8d3 3084 	ldr.w	r3, [r3, #132]	@ 0x84
 8005514:	0c1b      	lsrs	r3, r3, #16
 8005516:	f003 0303 	and.w	r3, r3, #3
 800551a:	613b      	str	r3, [r7, #16]
      tmpreg1 = ((RCC->PLLI2SCFGR & RCC_PLLI2SCFGR_PLLI2SQ) >> RCC_PLLI2SCFGR_PLLI2SQ_Pos);
 800551c:	4b61      	ldr	r3, [pc, #388]	@ (80056a4 <HAL_RCCEx_PeriphCLKConfig+0x6cc>)
 800551e:	f8d3 3084 	ldr.w	r3, [r3, #132]	@ 0x84
 8005522:	0e1b      	lsrs	r3, r3, #24
 8005524:	f003 030f 	and.w	r3, r3, #15
 8005528:	60fb      	str	r3, [r7, #12]
      /* Configure the PLLI2S division factors */
      /* PLLI2S_VCO = f(VCO clock) = f(PLLI2S clock input) x (PLLI2SN/PLLM) */
      /* I2SCLK = f(PLLI2S clock output) = f(VCO clock) / PLLI2SR */
      __HAL_RCC_PLLI2S_CONFIG(PeriphClkInit->PLLI2S.PLLI2SN , tmpreg0, tmpreg1, PeriphClkInit->PLLI2S.PLLI2SR);
 800552a:	687b      	ldr	r3, [r7, #4]
 800552c:	685b      	ldr	r3, [r3, #4]
 800552e:	019a      	lsls	r2, r3, #6
 8005530:	693b      	ldr	r3, [r7, #16]
 8005532:	041b      	lsls	r3, r3, #16
 8005534:	431a      	orrs	r2, r3
 8005536:	68fb      	ldr	r3, [r7, #12]
 8005538:	061b      	lsls	r3, r3, #24
 800553a:	431a      	orrs	r2, r3
 800553c:	687b      	ldr	r3, [r7, #4]
 800553e:	689b      	ldr	r3, [r3, #8]
 8005540:	071b      	lsls	r3, r3, #28
 8005542:	4958      	ldr	r1, [pc, #352]	@ (80056a4 <HAL_RCCEx_PeriphCLKConfig+0x6cc>)
 8005544:	4313      	orrs	r3, r2
 8005546:	f8c1 3084 	str.w	r3, [r1, #132]	@ 0x84
    }

    /*----------------- In Case of PLLI2S is selected as source clock for SAI -------------------*/
    if(((((PeriphClkInit->PeriphClockSelection) & RCC_PERIPHCLK_SAI1) == RCC_PERIPHCLK_SAI1) && (PeriphClkInit->Sai1ClockSelection == RCC_SAI1CLKSOURCE_PLLI2S)) ||
 800554a:	687b      	ldr	r3, [r7, #4]
 800554c:	681b      	ldr	r3, [r3, #0]
 800554e:	f403 2300 	and.w	r3, r3, #524288	@ 0x80000
 8005552:	2b00      	cmp	r3, #0
 8005554:	d004      	beq.n	8005560 <HAL_RCCEx_PeriphCLKConfig+0x588>
 8005556:	687b      	ldr	r3, [r7, #4]
 8005558:	6bdb      	ldr	r3, [r3, #60]	@ 0x3c
 800555a:	f5b3 1f80 	cmp.w	r3, #1048576	@ 0x100000
 800555e:	d00a      	beq.n	8005576 <HAL_RCCEx_PeriphCLKConfig+0x59e>
       ((((PeriphClkInit->PeriphClockSelection) & RCC_PERIPHCLK_SAI2) == RCC_PERIPHCLK_SAI2) && (PeriphClkInit->Sai2ClockSelection == RCC_SAI2CLKSOURCE_PLLI2S)))
 8005560:	687b      	ldr	r3, [r7, #4]
 8005562:	681b      	ldr	r3, [r3, #0]
 8005564:	f403 1380 	and.w	r3, r3, #1048576	@ 0x100000
    if(((((PeriphClkInit->PeriphClockSelection) & RCC_PERIPHCLK_SAI1) == RCC_PERIPHCLK_SAI1) && (PeriphClkInit->Sai1ClockSelection == RCC_SAI1CLKSOURCE_PLLI2S)) ||
 8005568:	2b00      	cmp	r3, #0
 800556a:	d02e      	beq.n	80055ca <HAL_RCCEx_PeriphCLKConfig+0x5f2>
       ((((PeriphClkInit->PeriphClockSelection) & RCC_PERIPHCLK_SAI2) == RCC_PERIPHCLK_SAI2) && (PeriphClkInit->Sai2ClockSelection == RCC_SAI2CLKSOURCE_PLLI2S)))
 800556c:	687b      	ldr	r3, [r7, #4]
 800556e:	6c1b      	ldr	r3, [r3, #64]	@ 0x40
 8005570:	f5b3 0f80 	cmp.w	r3, #4194304	@ 0x400000
 8005574:	d129      	bne.n	80055ca <HAL_RCCEx_PeriphCLKConfig+0x5f2>
      assert_param(IS_RCC_PLLI2SQ_VALUE(PeriphClkInit->PLLI2S.PLLI2SQ));
      /* Check for PLLI2S/DIVQ parameters */
      assert_param(IS_RCC_PLLI2S_DIVQ_VALUE(PeriphClkInit->PLLI2SDivQ));

      /* Read PLLI2SP and PLLI2SR values from PLLI2SCFGR register (this value is not needed for SAI configuration) */
      tmpreg0 = ((RCC->PLLI2SCFGR & RCC_PLLI2SCFGR_PLLI2SP) >> RCC_PLLI2SCFGR_PLLI2SP_Pos);
 8005576:	4b4b      	ldr	r3, [pc, #300]	@ (80056a4 <HAL_RCCEx_PeriphCLKConfig+0x6cc>)
 8005578:	f8d3 3084 	ldr.w	r3, [r3, #132]	@ 0x84
 800557c:	0c1b      	lsrs	r3, r3, #16
 800557e:	f003 0303 	and.w	r3, r3, #3
 8005582:	613b      	str	r3, [r7, #16]
      tmpreg1 = ((RCC->PLLI2SCFGR & RCC_PLLI2SCFGR_PLLI2SR) >> RCC_PLLI2SCFGR_PLLI2SR_Pos);
 8005584:	4b47      	ldr	r3, [pc, #284]	@ (80056a4 <HAL_RCCEx_PeriphCLKConfig+0x6cc>)
 8005586:	f8d3 3084 	ldr.w	r3, [r3, #132]	@ 0x84
 800558a:	0f1b      	lsrs	r3, r3, #28
 800558c:	f003 0307 	and.w	r3, r3, #7
 8005590:	60fb      	str	r3, [r7, #12]
      /* Configure the PLLI2S division factors */
      /* PLLI2S_VCO Input  = PLL_SOURCE/PLLM */
      /* PLLI2S_VCO Output = PLLI2S_VCO Input * PLLI2SN */
      /* SAI_CLK(first level) = PLLI2S_VCO Output/PLLI2SQ */
      __HAL_RCC_PLLI2S_CONFIG(PeriphClkInit->PLLI2S.PLLI2SN, tmpreg0, PeriphClkInit->PLLI2S.PLLI2SQ, tmpreg1);
 8005592:	687b      	ldr	r3, [r7, #4]
 8005594:	685b      	ldr	r3, [r3, #4]
 8005596:	019a      	lsls	r2, r3, #6
 8005598:	693b      	ldr	r3, [r7, #16]
 800559a:	041b      	lsls	r3, r3, #16
 800559c:	431a      	orrs	r2, r3
 800559e:	687b      	ldr	r3, [r7, #4]
 80055a0:	68db      	ldr	r3, [r3, #12]
 80055a2:	061b      	lsls	r3, r3, #24
 80055a4:	431a      	orrs	r2, r3
 80055a6:	68fb      	ldr	r3, [r7, #12]
 80055a8:	071b      	lsls	r3, r3, #28
 80055aa:	493e      	ldr	r1, [pc, #248]	@ (80056a4 <HAL_RCCEx_PeriphCLKConfig+0x6cc>)
 80055ac:	4313      	orrs	r3, r2
 80055ae:	f8c1 3084 	str.w	r3, [r1, #132]	@ 0x84

      /* SAI_CLK_x = SAI_CLK(first level)/PLLI2SDIVQ */
      __HAL_RCC_PLLI2S_PLLSAICLKDIVQ_CONFIG(PeriphClkInit->PLLI2SDivQ);
 80055b2:	4b3c      	ldr	r3, [pc, #240]	@ (80056a4 <HAL_RCCEx_PeriphCLKConfig+0x6cc>)
 80055b4:	f8d3 308c 	ldr.w	r3, [r3, #140]	@ 0x8c
 80055b8:	f023 021f 	bic.w	r2, r3, #31
 80055bc:	687b      	ldr	r3, [r7, #4]
 80055be:	6a5b      	ldr	r3, [r3, #36]	@ 0x24
 80055c0:	3b01      	subs	r3, #1
 80055c2:	4938      	ldr	r1, [pc, #224]	@ (80056a4 <HAL_RCCEx_PeriphCLKConfig+0x6cc>)
 80055c4:	4313      	orrs	r3, r2
 80055c6:	f8c1 308c 	str.w	r3, [r1, #140]	@ 0x8c
    }

    /*----------------- In Case of PLLI2S is selected as source clock for SPDIF-RX -------------------*/
    if(((PeriphClkInit->PeriphClockSelection) & RCC_PERIPHCLK_SPDIFRX) == RCC_PERIPHCLK_SPDIFRX)
 80055ca:	687b      	ldr	r3, [r7, #4]
 80055cc:	681b      	ldr	r3, [r3, #0]
 80055ce:	f003 7380 	and.w	r3, r3, #16777216	@ 0x1000000
 80055d2:	2b00      	cmp	r3, #0
 80055d4:	d01d      	beq.n	8005612 <HAL_RCCEx_PeriphCLKConfig+0x63a>
    {
      /* check for Parameters */
      assert_param(IS_RCC_PLLI2SP_VALUE(PeriphClkInit->PLLI2S.PLLI2SP));

     /* Read PLLI2SR value from PLLI2SCFGR register (this value is not needed for SPDIF-RX configuration) */
      tmpreg0 = ((RCC->PLLI2SCFGR & RCC_PLLI2SCFGR_PLLI2SQ) >> RCC_PLLI2SCFGR_PLLI2SQ_Pos);
 80055d6:	4b33      	ldr	r3, [pc, #204]	@ (80056a4 <HAL_RCCEx_PeriphCLKConfig+0x6cc>)
 80055d8:	f8d3 3084 	ldr.w	r3, [r3, #132]	@ 0x84
 80055dc:	0e1b      	lsrs	r3, r3, #24
 80055de:	f003 030f 	and.w	r3, r3, #15
 80055e2:	613b      	str	r3, [r7, #16]
      tmpreg1 = ((RCC->PLLI2SCFGR & RCC_PLLI2SCFGR_PLLI2SR) >> RCC_PLLI2SCFGR_PLLI2SR_Pos);
 80055e4:	4b2f      	ldr	r3, [pc, #188]	@ (80056a4 <HAL_RCCEx_PeriphCLKConfig+0x6cc>)
 80055e6:	f8d3 3084 	ldr.w	r3, [r3, #132]	@ 0x84
 80055ea:	0f1b      	lsrs	r3, r3, #28
 80055ec:	f003 0307 	and.w	r3, r3, #7
 80055f0:	60fb      	str	r3, [r7, #12]
      /* Configure the PLLI2S division factors */
      /* PLLI2S_VCO = f(VCO clock) = f(PLLI2S clock input) x (PLLI2SN/PLLM) */
      /* SPDIFCLK = f(PLLI2S clock output) = f(VCO clock) / PLLI2SP */
      __HAL_RCC_PLLI2S_CONFIG(PeriphClkInit->PLLI2S.PLLI2SN , PeriphClkInit->PLLI2S.PLLI2SP, tmpreg0, tmpreg1);
 80055f2:	687b      	ldr	r3, [r7, #4]
 80055f4:	685b      	ldr	r3, [r3, #4]
 80055f6:	019a      	lsls	r2, r3, #6
 80055f8:	687b      	ldr	r3, [r7, #4]
 80055fa:	691b      	ldr	r3, [r3, #16]
 80055fc:	041b      	lsls	r3, r3, #16
 80055fe:	431a      	orrs	r2, r3
 8005600:	693b      	ldr	r3, [r7, #16]
 8005602:	061b      	lsls	r3, r3, #24
 8005604:	431a      	orrs	r2, r3
 8005606:	68fb      	ldr	r3, [r7, #12]
 8005608:	071b      	lsls	r3, r3, #28
 800560a:	4926      	ldr	r1, [pc, #152]	@ (80056a4 <HAL_RCCEx_PeriphCLKConfig+0x6cc>)
 800560c:	4313      	orrs	r3, r2
 800560e:	f8c1 3084 	str.w	r3, [r1, #132]	@ 0x84
    }

    /*----------------- In Case of PLLI2S is just selected  -----------------*/
    if((PeriphClkInit->PeriphClockSelection & RCC_PERIPHCLK_PLLI2S) == RCC_PERIPHCLK_PLLI2S)
 8005612:	687b      	ldr	r3, [r7, #4]
 8005614:	681b      	ldr	r3, [r3, #0]
 8005616:	f003 7300 	and.w	r3, r3, #33554432	@ 0x2000000
 800561a:	2b00      	cmp	r3, #0
 800561c:	d011      	beq.n	8005642 <HAL_RCCEx_PeriphCLKConfig+0x66a>
      assert_param(IS_RCC_PLLI2SQ_VALUE(PeriphClkInit->PLLI2S.PLLI2SQ));

      /* Configure the PLLI2S division factors */
      /* PLLI2S_VCO = f(VCO clock) = f(PLLI2S clock input) x (PLLI2SN/PLLI2SM) */
      /* SPDIFRXCLK = f(PLLI2S clock output) = f(VCO clock) / PLLI2SP */
      __HAL_RCC_PLLI2S_CONFIG(PeriphClkInit->PLLI2S.PLLI2SN , PeriphClkInit->PLLI2S.PLLI2SP, PeriphClkInit->PLLI2S.PLLI2SQ, PeriphClkInit->PLLI2S.PLLI2SR);
 800561e:	687b      	ldr	r3, [r7, #4]
 8005620:	685b      	ldr	r3, [r3, #4]
 8005622:	019a      	lsls	r2, r3, #6
 8005624:	687b      	ldr	r3, [r7, #4]
 8005626:	691b      	ldr	r3, [r3, #16]
 8005628:	041b      	lsls	r3, r3, #16
 800562a:	431a      	orrs	r2, r3
 800562c:	687b      	ldr	r3, [r7, #4]
 800562e:	68db      	ldr	r3, [r3, #12]
 8005630:	061b      	lsls	r3, r3, #24
 8005632:	431a      	orrs	r2, r3
 8005634:	687b      	ldr	r3, [r7, #4]
 8005636:	689b      	ldr	r3, [r3, #8]
 8005638:	071b      	lsls	r3, r3, #28
 800563a:	491a      	ldr	r1, [pc, #104]	@ (80056a4 <HAL_RCCEx_PeriphCLKConfig+0x6cc>)
 800563c:	4313      	orrs	r3, r2
 800563e:	f8c1 3084 	str.w	r3, [r1, #132]	@ 0x84
    }

    /* Enable the PLLI2S */
    __HAL_RCC_PLLI2S_ENABLE();
 8005642:	4b18      	ldr	r3, [pc, #96]	@ (80056a4 <HAL_RCCEx_PeriphCLKConfig+0x6cc>)
 8005644:	681b      	ldr	r3, [r3, #0]
 8005646:	4a17      	ldr	r2, [pc, #92]	@ (80056a4 <HAL_RCCEx_PeriphCLKConfig+0x6cc>)
 8005648:	f043 6380 	orr.w	r3, r3, #67108864	@ 0x4000000
 800564c:	6013      	str	r3, [r2, #0]

    /* Get Start Tick*/
    tickstart = HAL_GetTick();
 800564e:	f7fd f9e7 	bl	8002a20 <HAL_GetTick>
 8005652:	6178      	str	r0, [r7, #20]

    /* Wait till PLLI2S is ready */
    while(__HAL_RCC_GET_FLAG(RCC_FLAG_PLLI2SRDY)  == RESET)
 8005654:	e008      	b.n	8005668 <HAL_RCCEx_PeriphCLKConfig+0x690>
    {
      if((HAL_GetTick() - tickstart) > PLLI2S_TIMEOUT_VALUE)
 8005656:	f7fd f9e3 	bl	8002a20 <HAL_GetTick>
 800565a:	4602      	mov	r2, r0
 800565c:	697b      	ldr	r3, [r7, #20]
 800565e:	1ad3      	subs	r3, r2, r3
 8005660:	2b64      	cmp	r3, #100	@ 0x64
 8005662:	d901      	bls.n	8005668 <HAL_RCCEx_PeriphCLKConfig+0x690>
      {
        /* return in case of Timeout detected */
        return HAL_TIMEOUT;
 8005664:	2303      	movs	r3, #3
 8005666:	e0d8      	b.n	800581a <HAL_RCCEx_PeriphCLKConfig+0x842>
    while(__HAL_RCC_GET_FLAG(RCC_FLAG_PLLI2SRDY)  == RESET)
 8005668:	4b0e      	ldr	r3, [pc, #56]	@ (80056a4 <HAL_RCCEx_PeriphCLKConfig+0x6cc>)
 800566a:	681b      	ldr	r3, [r3, #0]
 800566c:	f003 6300 	and.w	r3, r3, #134217728	@ 0x8000000
 8005670:	2b00      	cmp	r3, #0
 8005672:	d0f0      	beq.n	8005656 <HAL_RCCEx_PeriphCLKConfig+0x67e>
    }
  }

  /*-------------------------------------- PLLSAI Configuration ---------------------------------*/
  /* PLLSAI is configured when a peripheral will use it as source clock : SAI1, SAI2, LTDC or CK48 */
  if(pllsaiused == 1)
 8005674:	69bb      	ldr	r3, [r7, #24]
 8005676:	2b01      	cmp	r3, #1
 8005678:	f040 80ce 	bne.w	8005818 <HAL_RCCEx_PeriphCLKConfig+0x840>
  {
    /* Disable PLLSAI Clock */
    __HAL_RCC_PLLSAI_DISABLE();
 800567c:	4b09      	ldr	r3, [pc, #36]	@ (80056a4 <HAL_RCCEx_PeriphCLKConfig+0x6cc>)
 800567e:	681b      	ldr	r3, [r3, #0]
 8005680:	4a08      	ldr	r2, [pc, #32]	@ (80056a4 <HAL_RCCEx_PeriphCLKConfig+0x6cc>)
 8005682:	f023 5380 	bic.w	r3, r3, #268435456	@ 0x10000000
 8005686:	6013      	str	r3, [r2, #0]

    /* Get Start Tick*/
    tickstart = HAL_GetTick();
 8005688:	f7fd f9ca 	bl	8002a20 <HAL_GetTick>
 800568c:	6178      	str	r0, [r7, #20]

    /* Wait till PLLSAI is disabled */
    while(__HAL_RCC_PLLSAI_GET_FLAG() != RESET)
 800568e:	e00b      	b.n	80056a8 <HAL_RCCEx_PeriphCLKConfig+0x6d0>
    {
      if((HAL_GetTick() - tickstart) > PLLSAI_TIMEOUT_VALUE)
 8005690:	f7fd f9c6 	bl	8002a20 <HAL_GetTick>
 8005694:	4602      	mov	r2, r0
 8005696:	697b      	ldr	r3, [r7, #20]
 8005698:	1ad3      	subs	r3, r2, r3
 800569a:	2b64      	cmp	r3, #100	@ 0x64
 800569c:	d904      	bls.n	80056a8 <HAL_RCCEx_PeriphCLKConfig+0x6d0>
      {
        /* return in case of Timeout detected */
        return HAL_TIMEOUT;
 800569e:	2303      	movs	r3, #3
 80056a0:	e0bb      	b.n	800581a <HAL_RCCEx_PeriphCLKConfig+0x842>
 80056a2:	bf00      	nop
 80056a4:	40023800 	.word	0x40023800
    while(__HAL_RCC_PLLSAI_GET_FLAG() != RESET)
 80056a8:	4b5e      	ldr	r3, [pc, #376]	@ (8005824 <HAL_RCCEx_PeriphCLKConfig+0x84c>)
 80056aa:	681b      	ldr	r3, [r3, #0]
 80056ac:	f003 5300 	and.w	r3, r3, #536870912	@ 0x20000000
 80056b0:	f1b3 5f00 	cmp.w	r3, #536870912	@ 0x20000000
 80056b4:	d0ec      	beq.n	8005690 <HAL_RCCEx_PeriphCLKConfig+0x6b8>

    /* Check the PLLSAI division factors */
    assert_param(IS_RCC_PLLSAIN_VALUE(PeriphClkInit->PLLSAI.PLLSAIN));

    /*----------------- In Case of PLLSAI is selected as source clock for SAI -------------------*/
    if(((((PeriphClkInit->PeriphClockSelection) & RCC_PERIPHCLK_SAI1) == RCC_PERIPHCLK_SAI1) && (PeriphClkInit->Sai1ClockSelection == RCC_SAI1CLKSOURCE_PLLSAI)) ||\
 80056b6:	687b      	ldr	r3, [r7, #4]
 80056b8:	681b      	ldr	r3, [r3, #0]
 80056ba:	f403 2300 	and.w	r3, r3, #524288	@ 0x80000
 80056be:	2b00      	cmp	r3, #0
 80056c0:	d003      	beq.n	80056ca <HAL_RCCEx_PeriphCLKConfig+0x6f2>
 80056c2:	687b      	ldr	r3, [r7, #4]
 80056c4:	6bdb      	ldr	r3, [r3, #60]	@ 0x3c
 80056c6:	2b00      	cmp	r3, #0
 80056c8:	d009      	beq.n	80056de <HAL_RCCEx_PeriphCLKConfig+0x706>
       ((((PeriphClkInit->PeriphClockSelection) & RCC_PERIPHCLK_SAI2) == RCC_PERIPHCLK_SAI2) && (PeriphClkInit->Sai2ClockSelection == RCC_SAI2CLKSOURCE_PLLSAI)))
 80056ca:	687b      	ldr	r3, [r7, #4]
 80056cc:	681b      	ldr	r3, [r3, #0]
 80056ce:	f403 1380 	and.w	r3, r3, #1048576	@ 0x100000
    if(((((PeriphClkInit->PeriphClockSelection) & RCC_PERIPHCLK_SAI1) == RCC_PERIPHCLK_SAI1) && (PeriphClkInit->Sai1ClockSelection == RCC_SAI1CLKSOURCE_PLLSAI)) ||\
 80056d2:	2b00      	cmp	r3, #0
 80056d4:	d02e      	beq.n	8005734 <HAL_RCCEx_PeriphCLKConfig+0x75c>
       ((((PeriphClkInit->PeriphClockSelection) & RCC_PERIPHCLK_SAI2) == RCC_PERIPHCLK_SAI2) && (PeriphClkInit->Sai2ClockSelection == RCC_SAI2CLKSOURCE_PLLSAI)))
 80056d6:	687b      	ldr	r3, [r7, #4]
 80056d8:	6c1b      	ldr	r3, [r3, #64]	@ 0x40
 80056da:	2b00      	cmp	r3, #0
 80056dc:	d12a      	bne.n	8005734 <HAL_RCCEx_PeriphCLKConfig+0x75c>
      assert_param(IS_RCC_PLLSAIQ_VALUE(PeriphClkInit->PLLSAI.PLLSAIQ));
      /* check for PLLSAI/DIVQ Parameter */
      assert_param(IS_RCC_PLLSAI_DIVQ_VALUE(PeriphClkInit->PLLSAIDivQ));

      /* Read PLLSAIP value from PLLSAICFGR register (this value is not needed for SAI configuration) */
      tmpreg0 = ((RCC->PLLSAICFGR & RCC_PLLSAICFGR_PLLSAIP) >> RCC_PLLSAICFGR_PLLSAIP_Pos);
 80056de:	4b51      	ldr	r3, [pc, #324]	@ (8005824 <HAL_RCCEx_PeriphCLKConfig+0x84c>)
 80056e0:	f8d3 3088 	ldr.w	r3, [r3, #136]	@ 0x88
 80056e4:	0c1b      	lsrs	r3, r3, #16
 80056e6:	f003 0303 	and.w	r3, r3, #3
 80056ea:	613b      	str	r3, [r7, #16]
      tmpreg1 = ((RCC->PLLSAICFGR & RCC_PLLI2SCFGR_PLLI2SR) >> RCC_PLLSAICFGR_PLLSAIR_Pos);
 80056ec:	4b4d      	ldr	r3, [pc, #308]	@ (8005824 <HAL_RCCEx_PeriphCLKConfig+0x84c>)
 80056ee:	f8d3 3088 	ldr.w	r3, [r3, #136]	@ 0x88
 80056f2:	0f1b      	lsrs	r3, r3, #28
 80056f4:	f003 0307 	and.w	r3, r3, #7
 80056f8:	60fb      	str	r3, [r7, #12]
      /* PLLSAI_VCO Input  = PLL_SOURCE/PLLM */
      /* PLLSAI_VCO Output = PLLSAI_VCO Input * PLLSAIN */
      /* SAI_CLK(first level) = PLLSAI_VCO Output/PLLSAIQ */
      __HAL_RCC_PLLSAI_CONFIG(PeriphClkInit->PLLSAI.PLLSAIN , tmpreg0, PeriphClkInit->PLLSAI.PLLSAIQ, tmpreg1);
 80056fa:	687b      	ldr	r3, [r7, #4]
 80056fc:	695b      	ldr	r3, [r3, #20]
 80056fe:	019a      	lsls	r2, r3, #6
 8005700:	693b      	ldr	r3, [r7, #16]
 8005702:	041b      	lsls	r3, r3, #16
 8005704:	431a      	orrs	r2, r3
 8005706:	687b      	ldr	r3, [r7, #4]
 8005708:	699b      	ldr	r3, [r3, #24]
 800570a:	061b      	lsls	r3, r3, #24
 800570c:	431a      	orrs	r2, r3
 800570e:	68fb      	ldr	r3, [r7, #12]
 8005710:	071b      	lsls	r3, r3, #28
 8005712:	4944      	ldr	r1, [pc, #272]	@ (8005824 <HAL_RCCEx_PeriphCLKConfig+0x84c>)
 8005714:	4313      	orrs	r3, r2
 8005716:	f8c1 3088 	str.w	r3, [r1, #136]	@ 0x88

      /* SAI_CLK_x = SAI_CLK(first level)/PLLSAIDIVQ */
      __HAL_RCC_PLLSAI_PLLSAICLKDIVQ_CONFIG(PeriphClkInit->PLLSAIDivQ);
 800571a:	4b42      	ldr	r3, [pc, #264]	@ (8005824 <HAL_RCCEx_PeriphCLKConfig+0x84c>)
 800571c:	f8d3 308c 	ldr.w	r3, [r3, #140]	@ 0x8c
 8005720:	f423 52f8 	bic.w	r2, r3, #7936	@ 0x1f00
 8005724:	687b      	ldr	r3, [r7, #4]
 8005726:	6a9b      	ldr	r3, [r3, #40]	@ 0x28
 8005728:	3b01      	subs	r3, #1
 800572a:	021b      	lsls	r3, r3, #8
 800572c:	493d      	ldr	r1, [pc, #244]	@ (8005824 <HAL_RCCEx_PeriphCLKConfig+0x84c>)
 800572e:	4313      	orrs	r3, r2
 8005730:	f8c1 308c 	str.w	r3, [r1, #140]	@ 0x8c
    }

    /*----------------- In Case of PLLSAI is selected as source clock for CLK48 -------------------*/
    /* In Case of PLLI2S is selected as source clock for CK48 */
    if((((PeriphClkInit->PeriphClockSelection) & RCC_PERIPHCLK_CLK48) == RCC_PERIPHCLK_CLK48) && (PeriphClkInit->Clk48ClockSelection == RCC_CLK48SOURCE_PLLSAIP))
 8005734:	687b      	ldr	r3, [r7, #4]
 8005736:	681b      	ldr	r3, [r3, #0]
 8005738:	f403 1300 	and.w	r3, r3, #2097152	@ 0x200000
 800573c:	2b00      	cmp	r3, #0
 800573e:	d022      	beq.n	8005786 <HAL_RCCEx_PeriphCLKConfig+0x7ae>
 8005740:	687b      	ldr	r3, [r7, #4]
 8005742:	6fdb      	ldr	r3, [r3, #124]	@ 0x7c
 8005744:	f1b3 6f00 	cmp.w	r3, #134217728	@ 0x8000000
 8005748:	d11d      	bne.n	8005786 <HAL_RCCEx_PeriphCLKConfig+0x7ae>
    {
      /* check for Parameters */
      assert_param(IS_RCC_PLLSAIP_VALUE(PeriphClkInit->PLLSAI.PLLSAIP));
      /* Read PLLSAIQ and PLLSAIR value from PLLSAICFGR register (this value is not needed for CK48 configuration) */
      tmpreg0 = ((RCC->PLLSAICFGR & RCC_PLLSAICFGR_PLLSAIQ) >> RCC_PLLSAICFGR_PLLSAIQ_Pos);
 800574a:	4b36      	ldr	r3, [pc, #216]	@ (8005824 <HAL_RCCEx_PeriphCLKConfig+0x84c>)
 800574c:	f8d3 3088 	ldr.w	r3, [r3, #136]	@ 0x88
 8005750:	0e1b      	lsrs	r3, r3, #24
 8005752:	f003 030f 	and.w	r3, r3, #15
 8005756:	613b      	str	r3, [r7, #16]
      tmpreg1 = ((RCC->PLLSAICFGR & RCC_PLLSAICFGR_PLLSAIR) >> RCC_PLLSAICFGR_PLLSAIR_Pos);
 8005758:	4b32      	ldr	r3, [pc, #200]	@ (8005824 <HAL_RCCEx_PeriphCLKConfig+0x84c>)
 800575a:	f8d3 3088 	ldr.w	r3, [r3, #136]	@ 0x88
 800575e:	0f1b      	lsrs	r3, r3, #28
 8005760:	f003 0307 	and.w	r3, r3, #7
 8005764:	60fb      	str	r3, [r7, #12]

      /* Configure the PLLSAI division factors */
      /* PLLSAI_VCO = f(VCO clock) = f(PLLSAI clock input) x (PLLI2SN/PLLM) */
      /* 48CLK = f(PLLSAI clock output) = f(VCO clock) / PLLSAIP */
      __HAL_RCC_PLLSAI_CONFIG(PeriphClkInit->PLLSAI.PLLSAIN , PeriphClkInit->PLLSAI.PLLSAIP, tmpreg0, tmpreg1);
 8005766:	687b      	ldr	r3, [r7, #4]
 8005768:	695b      	ldr	r3, [r3, #20]
 800576a:	019a      	lsls	r2, r3, #6
 800576c:	687b      	ldr	r3, [r7, #4]
 800576e:	6a1b      	ldr	r3, [r3, #32]
 8005770:	041b      	lsls	r3, r3, #16
 8005772:	431a      	orrs	r2, r3
 8005774:	693b      	ldr	r3, [r7, #16]
 8005776:	061b      	lsls	r3, r3, #24
 8005778:	431a      	orrs	r2, r3
 800577a:	68fb      	ldr	r3, [r7, #12]
 800577c:	071b      	lsls	r3, r3, #28
 800577e:	4929      	ldr	r1, [pc, #164]	@ (8005824 <HAL_RCCEx_PeriphCLKConfig+0x84c>)
 8005780:	4313      	orrs	r3, r2
 8005782:	f8c1 3088 	str.w	r3, [r1, #136]	@ 0x88
    }

#if defined(STM32F746xx) || defined(STM32F756xx) || defined (STM32F767xx) || defined (STM32F769xx) || defined (STM32F777xx) || defined (STM32F779xx) || defined (STM32F750xx)
    /*---------------------------- LTDC configuration -------------------------------*/
    if(((PeriphClkInit->PeriphClockSelection) & RCC_PERIPHCLK_LTDC) == (RCC_PERIPHCLK_LTDC))
 8005786:	687b      	ldr	r3, [r7, #4]
 8005788:	681b      	ldr	r3, [r3, #0]
 800578a:	f003 0308 	and.w	r3, r3, #8
 800578e:	2b00      	cmp	r3, #0
 8005790:	d028      	beq.n	80057e4 <HAL_RCCEx_PeriphCLKConfig+0x80c>
    {
      assert_param(IS_RCC_PLLSAIR_VALUE(PeriphClkInit->PLLSAI.PLLSAIR));
      assert_param(IS_RCC_PLLSAI_DIVR_VALUE(PeriphClkInit->PLLSAIDivR));

      /* Read PLLSAIP and PLLSAIQ value from PLLSAICFGR register (these value are not needed for LTDC configuration) */
      tmpreg0 = ((RCC->PLLSAICFGR & RCC_PLLSAICFGR_PLLSAIQ) >> RCC_PLLSAICFGR_PLLSAIQ_Pos);
 8005792:	4b24      	ldr	r3, [pc, #144]	@ (8005824 <HAL_RCCEx_PeriphCLKConfig+0x84c>)
 8005794:	f8d3 3088 	ldr.w	r3, [r3, #136]	@ 0x88
 8005798:	0e1b      	lsrs	r3, r3, #24
 800579a:	f003 030f 	and.w	r3, r3, #15
 800579e:	613b      	str	r3, [r7, #16]
      tmpreg1 = ((RCC->PLLSAICFGR & RCC_PLLSAICFGR_PLLSAIP) >> RCC_PLLSAICFGR_PLLSAIP_Pos);
 80057a0:	4b20      	ldr	r3, [pc, #128]	@ (8005824 <HAL_RCCEx_PeriphCLKConfig+0x84c>)
 80057a2:	f8d3 3088 	ldr.w	r3, [r3, #136]	@ 0x88
 80057a6:	0c1b      	lsrs	r3, r3, #16
 80057a8:	f003 0303 	and.w	r3, r3, #3
 80057ac:	60fb      	str	r3, [r7, #12]

      /* PLLSAI_VCO Input  = PLL_SOURCE/PLLM */
      /* PLLSAI_VCO Output = PLLSAI_VCO Input * PLLSAIN */
      /* LTDC_CLK(first level) = PLLSAI_VCO Output/PLLSAIR */
      __HAL_RCC_PLLSAI_CONFIG(PeriphClkInit->PLLSAI.PLLSAIN , tmpreg1, tmpreg0, PeriphClkInit->PLLSAI.PLLSAIR);
 80057ae:	687b      	ldr	r3, [r7, #4]
 80057b0:	695b      	ldr	r3, [r3, #20]
 80057b2:	019a      	lsls	r2, r3, #6
 80057b4:	68fb      	ldr	r3, [r7, #12]
 80057b6:	041b      	lsls	r3, r3, #16
 80057b8:	431a      	orrs	r2, r3
 80057ba:	693b      	ldr	r3, [r7, #16]
 80057bc:	061b      	lsls	r3, r3, #24
 80057be:	431a      	orrs	r2, r3
 80057c0:	687b      	ldr	r3, [r7, #4]
 80057c2:	69db      	ldr	r3, [r3, #28]
 80057c4:	071b      	lsls	r3, r3, #28
 80057c6:	4917      	ldr	r1, [pc, #92]	@ (8005824 <HAL_RCCEx_PeriphCLKConfig+0x84c>)
 80057c8:	4313      	orrs	r3, r2
 80057ca:	f8c1 3088 	str.w	r3, [r1, #136]	@ 0x88

      /* LTDC_CLK = LTDC_CLK(first level)/PLLSAIDIVR */
      __HAL_RCC_PLLSAI_PLLSAICLKDIVR_CONFIG(PeriphClkInit->PLLSAIDivR);
 80057ce:	4b15      	ldr	r3, [pc, #84]	@ (8005824 <HAL_RCCEx_PeriphCLKConfig+0x84c>)
 80057d0:	f8d3 308c 	ldr.w	r3, [r3, #140]	@ 0x8c
 80057d4:	f423 3240 	bic.w	r2, r3, #196608	@ 0x30000
 80057d8:	687b      	ldr	r3, [r7, #4]
 80057da:	6adb      	ldr	r3, [r3, #44]	@ 0x2c
 80057dc:	4911      	ldr	r1, [pc, #68]	@ (8005824 <HAL_RCCEx_PeriphCLKConfig+0x84c>)
 80057de:	4313      	orrs	r3, r2
 80057e0:	f8c1 308c 	str.w	r3, [r1, #140]	@ 0x8c
    }
#endif /* STM32F746xx || STM32F756xx || STM32F767xx || STM32F769xx || STM32F777xx || STM32F779xx || STM32F750xx  */

    /* Enable PLLSAI Clock */
    __HAL_RCC_PLLSAI_ENABLE();
 80057e4:	4b0f      	ldr	r3, [pc, #60]	@ (8005824 <HAL_RCCEx_PeriphCLKConfig+0x84c>)
 80057e6:	681b      	ldr	r3, [r3, #0]
 80057e8:	4a0e      	ldr	r2, [pc, #56]	@ (8005824 <HAL_RCCEx_PeriphCLKConfig+0x84c>)
 80057ea:	f043 5380 	orr.w	r3, r3, #268435456	@ 0x10000000
 80057ee:	6013      	str	r3, [r2, #0]

    /* Get Start Tick*/
    tickstart = HAL_GetTick();
 80057f0:	f7fd f916 	bl	8002a20 <HAL_GetTick>
 80057f4:	6178      	str	r0, [r7, #20]

    /* Wait till PLLSAI is ready */
    while(__HAL_RCC_PLLSAI_GET_FLAG() == RESET)
 80057f6:	e008      	b.n	800580a <HAL_RCCEx_PeriphCLKConfig+0x832>
    {
      if((HAL_GetTick() - tickstart) > PLLSAI_TIMEOUT_VALUE)
 80057f8:	f7fd f912 	bl	8002a20 <HAL_GetTick>
 80057fc:	4602      	mov	r2, r0
 80057fe:	697b      	ldr	r3, [r7, #20]
 8005800:	1ad3      	subs	r3, r2, r3
 8005802:	2b64      	cmp	r3, #100	@ 0x64
 8005804:	d901      	bls.n	800580a <HAL_RCCEx_PeriphCLKConfig+0x832>
      {
        /* return in case of Timeout detected */
        return HAL_TIMEOUT;
 8005806:	2303      	movs	r3, #3
 8005808:	e007      	b.n	800581a <HAL_RCCEx_PeriphCLKConfig+0x842>
    while(__HAL_RCC_PLLSAI_GET_FLAG() == RESET)
 800580a:	4b06      	ldr	r3, [pc, #24]	@ (8005824 <HAL_RCCEx_PeriphCLKConfig+0x84c>)
 800580c:	681b      	ldr	r3, [r3, #0]
 800580e:	f003 5300 	and.w	r3, r3, #536870912	@ 0x20000000
 8005812:	f1b3 5f00 	cmp.w	r3, #536870912	@ 0x20000000
 8005816:	d1ef      	bne.n	80057f8 <HAL_RCCEx_PeriphCLKConfig+0x820>
      }
    }
  }
  return HAL_OK;
 8005818:	2300      	movs	r3, #0
}
 800581a:	4618      	mov	r0, r3
 800581c:	3720      	adds	r7, #32
 800581e:	46bd      	mov	sp, r7
 8005820:	bd80      	pop	{r7, pc}
 8005822:	bf00      	nop
 8005824:	40023800 	.word	0x40023800

08005828 <HAL_SPI_Init>:
  * @param  hspi pointer to a SPI_HandleTypeDef structure that contains
  *               the configuration information for SPI module.
  * @retval HAL status
  */
HAL_StatusTypeDef HAL_SPI_Init(SPI_HandleTypeDef *hspi)
{
 8005828:	b580      	push	{r7, lr}
 800582a:	b084      	sub	sp, #16
 800582c:	af00      	add	r7, sp, #0
 800582e:	6078      	str	r0, [r7, #4]
  uint32_t frxth;

  /* Check the SPI handle allocation */
  if (hspi == NULL)
 8005830:	687b      	ldr	r3, [r7, #4]
 8005832:	2b00      	cmp	r3, #0
 8005834:	d101      	bne.n	800583a <HAL_SPI_Init+0x12>
  {
    return HAL_ERROR;
 8005836:	2301      	movs	r3, #1
 8005838:	e09d      	b.n	8005976 <HAL_SPI_Init+0x14e>
  assert_param(IS_SPI_NSS(hspi->Init.NSS));
  assert_param(IS_SPI_NSSP(hspi->Init.NSSPMode));
  assert_param(IS_SPI_BAUDRATE_PRESCALER(hspi->Init.BaudRatePrescaler));
  assert_param(IS_SPI_FIRST_BIT(hspi->Init.FirstBit));
  assert_param(IS_SPI_TIMODE(hspi->Init.TIMode));
  if (hspi->Init.TIMode == SPI_TIMODE_DISABLE)
 800583a:	687b      	ldr	r3, [r7, #4]
 800583c:	6a5b      	ldr	r3, [r3, #36]	@ 0x24
 800583e:	2b00      	cmp	r3, #0
 8005840:	d108      	bne.n	8005854 <HAL_SPI_Init+0x2c>
  {
    assert_param(IS_SPI_CPOL(hspi->Init.CLKPolarity));
    assert_param(IS_SPI_CPHA(hspi->Init.CLKPhase));

    if (hspi->Init.Mode == SPI_MODE_MASTER)
 8005842:	687b      	ldr	r3, [r7, #4]
 8005844:	685b      	ldr	r3, [r3, #4]
 8005846:	f5b3 7f82 	cmp.w	r3, #260	@ 0x104
 800584a:	d009      	beq.n	8005860 <HAL_SPI_Init+0x38>
      assert_param(IS_SPI_BAUDRATE_PRESCALER(hspi->Init.BaudRatePrescaler));
    }
    else
    {
      /* Baudrate prescaler not use in Motoraola Slave mode. force to default value */
      hspi->Init.BaudRatePrescaler = SPI_BAUDRATEPRESCALER_2;
 800584c:	687b      	ldr	r3, [r7, #4]
 800584e:	2200      	movs	r2, #0
 8005850:	61da      	str	r2, [r3, #28]
 8005852:	e005      	b.n	8005860 <HAL_SPI_Init+0x38>
  else
  {
    assert_param(IS_SPI_BAUDRATE_PRESCALER(hspi->Init.BaudRatePrescaler));

    /* Force polarity and phase to TI protocaol requirements */
    hspi->Init.CLKPolarity = SPI_POLARITY_LOW;
 8005854:	687b      	ldr	r3, [r7, #4]
 8005856:	2200      	movs	r2, #0
 8005858:	611a      	str	r2, [r3, #16]
    hspi->Init.CLKPhase    = SPI_PHASE_1EDGE;
 800585a:	687b      	ldr	r3, [r7, #4]
 800585c:	2200      	movs	r2, #0
 800585e:	615a      	str	r2, [r3, #20]
  {
    assert_param(IS_SPI_CRC_POLYNOMIAL(hspi->Init.CRCPolynomial));
    assert_param(IS_SPI_CRC_LENGTH(hspi->Init.CRCLength));
  }
#else
  hspi->Init.CRCCalculation = SPI_CRCCALCULATION_DISABLE;
 8005860:	687b      	ldr	r3, [r7, #4]
 8005862:	2200      	movs	r2, #0
 8005864:	629a      	str	r2, [r3, #40]	@ 0x28
#endif /* USE_SPI_CRC */

  if (hspi->State == HAL_SPI_STATE_RESET)
 8005866:	687b      	ldr	r3, [r7, #4]
 8005868:	f893 305d 	ldrb.w	r3, [r3, #93]	@ 0x5d
 800586c:	b2db      	uxtb	r3, r3
 800586e:	2b00      	cmp	r3, #0
 8005870:	d106      	bne.n	8005880 <HAL_SPI_Init+0x58>
  {
    /* Allocate lock resource and initialize it */
    hspi->Lock = HAL_UNLOCKED;
 8005872:	687b      	ldr	r3, [r7, #4]
 8005874:	2200      	movs	r2, #0
 8005876:	f883 205c 	strb.w	r2, [r3, #92]	@ 0x5c

    /* Init the low level hardware : GPIO, CLOCK, NVIC... */
    hspi->MspInitCallback(hspi);
#else
    /* Init the low level hardware : GPIO, CLOCK, NVIC... */
    HAL_SPI_MspInit(hspi);
 800587a:	6878      	ldr	r0, [r7, #4]
 800587c:	f7fc ff66 	bl	800274c <HAL_SPI_MspInit>
#endif /* USE_HAL_SPI_REGISTER_CALLBACKS */
  }

  hspi->State = HAL_SPI_STATE_BUSY;
 8005880:	687b      	ldr	r3, [r7, #4]
 8005882:	2202      	movs	r2, #2
 8005884:	f883 205d 	strb.w	r2, [r3, #93]	@ 0x5d

  /* Disable the selected SPI peripheral */
  __HAL_SPI_DISABLE(hspi);
 8005888:	687b      	ldr	r3, [r7, #4]
 800588a:	681b      	ldr	r3, [r3, #0]
 800588c:	681a      	ldr	r2, [r3, #0]
 800588e:	687b      	ldr	r3, [r7, #4]
 8005890:	681b      	ldr	r3, [r3, #0]
 8005892:	f022 0240 	bic.w	r2, r2, #64	@ 0x40
 8005896:	601a      	str	r2, [r3, #0]

  /* Align by default the rs fifo threshold on the data size */
  if (hspi->Init.DataSize > SPI_DATASIZE_8BIT)
 8005898:	687b      	ldr	r3, [r7, #4]
 800589a:	68db      	ldr	r3, [r3, #12]
 800589c:	f5b3 6fe0 	cmp.w	r3, #1792	@ 0x700
 80058a0:	d902      	bls.n	80058a8 <HAL_SPI_Init+0x80>
  {
    frxth = SPI_RXFIFO_THRESHOLD_HF;
 80058a2:	2300      	movs	r3, #0
 80058a4:	60fb      	str	r3, [r7, #12]
 80058a6:	e002      	b.n	80058ae <HAL_SPI_Init+0x86>
  }
  else
  {
    frxth = SPI_RXFIFO_THRESHOLD_QF;
 80058a8:	f44f 5380 	mov.w	r3, #4096	@ 0x1000
 80058ac:	60fb      	str	r3, [r7, #12]
  }

  /* CRC calculation is valid only for 16Bit and 8 Bit */
  if ((hspi->Init.DataSize != SPI_DATASIZE_16BIT) && (hspi->Init.DataSize != SPI_DATASIZE_8BIT))
 80058ae:	687b      	ldr	r3, [r7, #4]
 80058b0:	68db      	ldr	r3, [r3, #12]
 80058b2:	f5b3 6f70 	cmp.w	r3, #3840	@ 0xf00
 80058b6:	d007      	beq.n	80058c8 <HAL_SPI_Init+0xa0>
 80058b8:	687b      	ldr	r3, [r7, #4]
 80058ba:	68db      	ldr	r3, [r3, #12]
 80058bc:	f5b3 6fe0 	cmp.w	r3, #1792	@ 0x700
 80058c0:	d002      	beq.n	80058c8 <HAL_SPI_Init+0xa0>
  {
    /* CRC must be disabled */
    hspi->Init.CRCCalculation = SPI_CRCCALCULATION_DISABLE;
 80058c2:	687b      	ldr	r3, [r7, #4]
 80058c4:	2200      	movs	r2, #0
 80058c6:	629a      	str	r2, [r3, #40]	@ 0x28
  }

  /*----------------------- SPIx CR1 & CR2 Configuration ---------------------*/
  /* Configure : SPI Mode, Communication Mode, Clock polarity and phase, NSS management,
  Communication speed, First bit and CRC calculation state */
  WRITE_REG(hspi->Instance->CR1, ((hspi->Init.Mode & (SPI_CR1_MSTR | SPI_CR1_SSI)) |
 80058c8:	687b      	ldr	r3, [r7, #4]
 80058ca:	685b      	ldr	r3, [r3, #4]
 80058cc:	f403 7282 	and.w	r2, r3, #260	@ 0x104
 80058d0:	687b      	ldr	r3, [r7, #4]
 80058d2:	689b      	ldr	r3, [r3, #8]
 80058d4:	f403 4304 	and.w	r3, r3, #33792	@ 0x8400
 80058d8:	431a      	orrs	r2, r3
 80058da:	687b      	ldr	r3, [r7, #4]
 80058dc:	691b      	ldr	r3, [r3, #16]
 80058de:	f003 0302 	and.w	r3, r3, #2
 80058e2:	431a      	orrs	r2, r3
 80058e4:	687b      	ldr	r3, [r7, #4]
 80058e6:	695b      	ldr	r3, [r3, #20]
 80058e8:	f003 0301 	and.w	r3, r3, #1
 80058ec:	431a      	orrs	r2, r3
 80058ee:	687b      	ldr	r3, [r7, #4]
 80058f0:	699b      	ldr	r3, [r3, #24]
 80058f2:	f403 7300 	and.w	r3, r3, #512	@ 0x200
 80058f6:	431a      	orrs	r2, r3
 80058f8:	687b      	ldr	r3, [r7, #4]
 80058fa:	69db      	ldr	r3, [r3, #28]
 80058fc:	f003 0338 	and.w	r3, r3, #56	@ 0x38
 8005900:	431a      	orrs	r2, r3
 8005902:	687b      	ldr	r3, [r7, #4]
 8005904:	6a1b      	ldr	r3, [r3, #32]
 8005906:	f003 0380 	and.w	r3, r3, #128	@ 0x80
 800590a:	ea42 0103 	orr.w	r1, r2, r3
 800590e:	687b      	ldr	r3, [r7, #4]
 8005910:	6a9b      	ldr	r3, [r3, #40]	@ 0x28
 8005912:	f403 5200 	and.w	r2, r3, #8192	@ 0x2000
 8005916:	687b      	ldr	r3, [r7, #4]
 8005918:	681b      	ldr	r3, [r3, #0]
 800591a:	430a      	orrs	r2, r1
 800591c:	601a      	str	r2, [r3, #0]
    }
  }
#endif /* USE_SPI_CRC */

  /* Configure : NSS management, TI Mode, NSS Pulse, Data size and Rx Fifo threshold */
  WRITE_REG(hspi->Instance->CR2, (((hspi->Init.NSS >> 16U) & SPI_CR2_SSOE) |
 800591e:	687b      	ldr	r3, [r7, #4]
 8005920:	699b      	ldr	r3, [r3, #24]
 8005922:	0c1b      	lsrs	r3, r3, #16
 8005924:	f003 0204 	and.w	r2, r3, #4
 8005928:	687b      	ldr	r3, [r7, #4]
 800592a:	6a5b      	ldr	r3, [r3, #36]	@ 0x24
 800592c:	f003 0310 	and.w	r3, r3, #16
 8005930:	431a      	orrs	r2, r3
 8005932:	687b      	ldr	r3, [r7, #4]
 8005934:	6b5b      	ldr	r3, [r3, #52]	@ 0x34
 8005936:	f003 0308 	and.w	r3, r3, #8
 800593a:	431a      	orrs	r2, r3
 800593c:	687b      	ldr	r3, [r7, #4]
 800593e:	68db      	ldr	r3, [r3, #12]
 8005940:	f403 6370 	and.w	r3, r3, #3840	@ 0xf00
 8005944:	ea42 0103 	orr.w	r1, r2, r3
 8005948:	68fb      	ldr	r3, [r7, #12]
 800594a:	f403 5280 	and.w	r2, r3, #4096	@ 0x1000
 800594e:	687b      	ldr	r3, [r7, #4]
 8005950:	681b      	ldr	r3, [r3, #0]
 8005952:	430a      	orrs	r2, r1
 8005954:	605a      	str	r2, [r3, #4]
  }
#endif /* USE_SPI_CRC */

#if defined(SPI_I2SCFGR_I2SMOD)
  /* Activate the SPI mode (Make sure that I2SMOD bit in I2SCFGR register is reset) */
  CLEAR_BIT(hspi->Instance->I2SCFGR, SPI_I2SCFGR_I2SMOD);
 8005956:	687b      	ldr	r3, [r7, #4]
 8005958:	681b      	ldr	r3, [r3, #0]
 800595a:	69da      	ldr	r2, [r3, #28]
 800595c:	687b      	ldr	r3, [r7, #4]
 800595e:	681b      	ldr	r3, [r3, #0]
 8005960:	f422 6200 	bic.w	r2, r2, #2048	@ 0x800
 8005964:	61da      	str	r2, [r3, #28]
#endif /* SPI_I2SCFGR_I2SMOD */

  hspi->ErrorCode = HAL_SPI_ERROR_NONE;
 8005966:	687b      	ldr	r3, [r7, #4]
 8005968:	2200      	movs	r2, #0
 800596a:	661a      	str	r2, [r3, #96]	@ 0x60
  hspi->State     = HAL_SPI_STATE_READY;
 800596c:	687b      	ldr	r3, [r7, #4]
 800596e:	2201      	movs	r2, #1
 8005970:	f883 205d 	strb.w	r2, [r3, #93]	@ 0x5d

  return HAL_OK;
 8005974:	2300      	movs	r3, #0
}
 8005976:	4618      	mov	r0, r3
 8005978:	3710      	adds	r7, #16
 800597a:	46bd      	mov	sp, r7
 800597c:	bd80      	pop	{r7, pc}

0800597e <HAL_SPI_Transmit>:
  * @param  Size amount of data elements (u8 or u16) to be sent
  * @param  Timeout Timeout duration in ms
  * @retval HAL status
  */
HAL_StatusTypeDef HAL_SPI_Transmit(SPI_HandleTypeDef *hspi, const uint8_t *pData, uint16_t Size, uint32_t Timeout)
{
 800597e:	b580      	push	{r7, lr}
 8005980:	b088      	sub	sp, #32
 8005982:	af00      	add	r7, sp, #0
 8005984:	60f8      	str	r0, [r7, #12]
 8005986:	60b9      	str	r1, [r7, #8]
 8005988:	603b      	str	r3, [r7, #0]
 800598a:	4613      	mov	r3, r2
 800598c:	80fb      	strh	r3, [r7, #6]

  /* Check Direction parameter */
  assert_param(IS_SPI_DIRECTION_2LINES_OR_1LINE(hspi->Init.Direction));

  /* Init tickstart for timeout management*/
  tickstart = HAL_GetTick();
 800598e:	f7fd f847 	bl	8002a20 <HAL_GetTick>
 8005992:	61f8      	str	r0, [r7, #28]
  initial_TxXferCount = Size;
 8005994:	88fb      	ldrh	r3, [r7, #6]
 8005996:	837b      	strh	r3, [r7, #26]

  if (hspi->State != HAL_SPI_STATE_READY)
 8005998:	68fb      	ldr	r3, [r7, #12]
 800599a:	f893 305d 	ldrb.w	r3, [r3, #93]	@ 0x5d
 800599e:	b2db      	uxtb	r3, r3
 80059a0:	2b01      	cmp	r3, #1
 80059a2:	d001      	beq.n	80059a8 <HAL_SPI_Transmit+0x2a>
  {
    return HAL_BUSY;
 80059a4:	2302      	movs	r3, #2
 80059a6:	e15c      	b.n	8005c62 <HAL_SPI_Transmit+0x2e4>
  }

  if ((pData == NULL) || (Size == 0U))
 80059a8:	68bb      	ldr	r3, [r7, #8]
 80059aa:	2b00      	cmp	r3, #0
 80059ac:	d002      	beq.n	80059b4 <HAL_SPI_Transmit+0x36>
 80059ae:	88fb      	ldrh	r3, [r7, #6]
 80059b0:	2b00      	cmp	r3, #0
 80059b2:	d101      	bne.n	80059b8 <HAL_SPI_Transmit+0x3a>
  {
    return HAL_ERROR;
 80059b4:	2301      	movs	r3, #1
 80059b6:	e154      	b.n	8005c62 <HAL_SPI_Transmit+0x2e4>
  }

  /* Process Locked */
  __HAL_LOCK(hspi);
 80059b8:	68fb      	ldr	r3, [r7, #12]
 80059ba:	f893 305c 	ldrb.w	r3, [r3, #92]	@ 0x5c
 80059be:	2b01      	cmp	r3, #1
 80059c0:	d101      	bne.n	80059c6 <HAL_SPI_Transmit+0x48>
 80059c2:	2302      	movs	r3, #2
 80059c4:	e14d      	b.n	8005c62 <HAL_SPI_Transmit+0x2e4>
 80059c6:	68fb      	ldr	r3, [r7, #12]
 80059c8:	2201      	movs	r2, #1
 80059ca:	f883 205c 	strb.w	r2, [r3, #92]	@ 0x5c

  /* Set the transaction information */
  hspi->State       = HAL_SPI_STATE_BUSY_TX;
 80059ce:	68fb      	ldr	r3, [r7, #12]
 80059d0:	2203      	movs	r2, #3
 80059d2:	f883 205d 	strb.w	r2, [r3, #93]	@ 0x5d
  hspi->ErrorCode   = HAL_SPI_ERROR_NONE;
 80059d6:	68fb      	ldr	r3, [r7, #12]
 80059d8:	2200      	movs	r2, #0
 80059da:	661a      	str	r2, [r3, #96]	@ 0x60
  hspi->pTxBuffPtr  = (const uint8_t *)pData;
 80059dc:	68fb      	ldr	r3, [r7, #12]
 80059de:	68ba      	ldr	r2, [r7, #8]
 80059e0:	639a      	str	r2, [r3, #56]	@ 0x38
  hspi->TxXferSize  = Size;
 80059e2:	68fb      	ldr	r3, [r7, #12]
 80059e4:	88fa      	ldrh	r2, [r7, #6]
 80059e6:	879a      	strh	r2, [r3, #60]	@ 0x3c
  hspi->TxXferCount = Size;
 80059e8:	68fb      	ldr	r3, [r7, #12]
 80059ea:	88fa      	ldrh	r2, [r7, #6]
 80059ec:	87da      	strh	r2, [r3, #62]	@ 0x3e

  /*Init field not used in handle to zero */
  hspi->pRxBuffPtr  = (uint8_t *)NULL;
 80059ee:	68fb      	ldr	r3, [r7, #12]
 80059f0:	2200      	movs	r2, #0
 80059f2:	641a      	str	r2, [r3, #64]	@ 0x40
  hspi->RxXferSize  = 0U;
 80059f4:	68fb      	ldr	r3, [r7, #12]
 80059f6:	2200      	movs	r2, #0
 80059f8:	f8a3 2044 	strh.w	r2, [r3, #68]	@ 0x44
  hspi->RxXferCount = 0U;
 80059fc:	68fb      	ldr	r3, [r7, #12]
 80059fe:	2200      	movs	r2, #0
 8005a00:	f8a3 2046 	strh.w	r2, [r3, #70]	@ 0x46
  hspi->TxISR       = NULL;
 8005a04:	68fb      	ldr	r3, [r7, #12]
 8005a06:	2200      	movs	r2, #0
 8005a08:	651a      	str	r2, [r3, #80]	@ 0x50
  hspi->RxISR       = NULL;
 8005a0a:	68fb      	ldr	r3, [r7, #12]
 8005a0c:	2200      	movs	r2, #0
 8005a0e:	64da      	str	r2, [r3, #76]	@ 0x4c

  /* Configure communication direction : 1Line */
  if (hspi->Init.Direction == SPI_DIRECTION_1LINE)
 8005a10:	68fb      	ldr	r3, [r7, #12]
 8005a12:	689b      	ldr	r3, [r3, #8]
 8005a14:	f5b3 4f00 	cmp.w	r3, #32768	@ 0x8000
 8005a18:	d10f      	bne.n	8005a3a <HAL_SPI_Transmit+0xbc>
  {
    /* Disable SPI Peripheral before set 1Line direction (BIDIOE bit) */
    __HAL_SPI_DISABLE(hspi);
 8005a1a:	68fb      	ldr	r3, [r7, #12]
 8005a1c:	681b      	ldr	r3, [r3, #0]
 8005a1e:	681a      	ldr	r2, [r3, #0]
 8005a20:	68fb      	ldr	r3, [r7, #12]
 8005a22:	681b      	ldr	r3, [r3, #0]
 8005a24:	f022 0240 	bic.w	r2, r2, #64	@ 0x40
 8005a28:	601a      	str	r2, [r3, #0]
    SPI_1LINE_TX(hspi);
 8005a2a:	68fb      	ldr	r3, [r7, #12]
 8005a2c:	681b      	ldr	r3, [r3, #0]
 8005a2e:	681a      	ldr	r2, [r3, #0]
 8005a30:	68fb      	ldr	r3, [r7, #12]
 8005a32:	681b      	ldr	r3, [r3, #0]
 8005a34:	f442 4280 	orr.w	r2, r2, #16384	@ 0x4000
 8005a38:	601a      	str	r2, [r3, #0]
    SPI_RESET_CRC(hspi);
  }
#endif /* USE_SPI_CRC */

  /* Check if the SPI is already enabled */
  if ((hspi->Instance->CR1 & SPI_CR1_SPE) != SPI_CR1_SPE)
 8005a3a:	68fb      	ldr	r3, [r7, #12]
 8005a3c:	681b      	ldr	r3, [r3, #0]
 8005a3e:	681b      	ldr	r3, [r3, #0]
 8005a40:	f003 0340 	and.w	r3, r3, #64	@ 0x40
 8005a44:	2b40      	cmp	r3, #64	@ 0x40
 8005a46:	d007      	beq.n	8005a58 <HAL_SPI_Transmit+0xda>
  {
    /* Enable SPI peripheral */
    __HAL_SPI_ENABLE(hspi);
 8005a48:	68fb      	ldr	r3, [r7, #12]
 8005a4a:	681b      	ldr	r3, [r3, #0]
 8005a4c:	681a      	ldr	r2, [r3, #0]
 8005a4e:	68fb      	ldr	r3, [r7, #12]
 8005a50:	681b      	ldr	r3, [r3, #0]
 8005a52:	f042 0240 	orr.w	r2, r2, #64	@ 0x40
 8005a56:	601a      	str	r2, [r3, #0]
  }

  /* Transmit data in 16 Bit mode */
  if (hspi->Init.DataSize > SPI_DATASIZE_8BIT)
 8005a58:	68fb      	ldr	r3, [r7, #12]
 8005a5a:	68db      	ldr	r3, [r3, #12]
 8005a5c:	f5b3 6fe0 	cmp.w	r3, #1792	@ 0x700
 8005a60:	d952      	bls.n	8005b08 <HAL_SPI_Transmit+0x18a>
  {
    if ((hspi->Init.Mode == SPI_MODE_SLAVE) || (initial_TxXferCount == 0x01U))
 8005a62:	68fb      	ldr	r3, [r7, #12]
 8005a64:	685b      	ldr	r3, [r3, #4]
 8005a66:	2b00      	cmp	r3, #0
 8005a68:	d002      	beq.n	8005a70 <HAL_SPI_Transmit+0xf2>
 8005a6a:	8b7b      	ldrh	r3, [r7, #26]
 8005a6c:	2b01      	cmp	r3, #1
 8005a6e:	d145      	bne.n	8005afc <HAL_SPI_Transmit+0x17e>
    {
      hspi->Instance->DR = *((const uint16_t *)hspi->pTxBuffPtr);
 8005a70:	68fb      	ldr	r3, [r7, #12]
 8005a72:	6b9b      	ldr	r3, [r3, #56]	@ 0x38
 8005a74:	881a      	ldrh	r2, [r3, #0]
 8005a76:	68fb      	ldr	r3, [r7, #12]
 8005a78:	681b      	ldr	r3, [r3, #0]
 8005a7a:	60da      	str	r2, [r3, #12]
      hspi->pTxBuffPtr += sizeof(uint16_t);
 8005a7c:	68fb      	ldr	r3, [r7, #12]
 8005a7e:	6b9b      	ldr	r3, [r3, #56]	@ 0x38
 8005a80:	1c9a      	adds	r2, r3, #2
 8005a82:	68fb      	ldr	r3, [r7, #12]
 8005a84:	639a      	str	r2, [r3, #56]	@ 0x38
      hspi->TxXferCount--;
 8005a86:	68fb      	ldr	r3, [r7, #12]
 8005a88:	8fdb      	ldrh	r3, [r3, #62]	@ 0x3e
 8005a8a:	b29b      	uxth	r3, r3
 8005a8c:	3b01      	subs	r3, #1
 8005a8e:	b29a      	uxth	r2, r3
 8005a90:	68fb      	ldr	r3, [r7, #12]
 8005a92:	87da      	strh	r2, [r3, #62]	@ 0x3e
    }
    /* Transmit data in 16 Bit mode */
    while (hspi->TxXferCount > 0U)
 8005a94:	e032      	b.n	8005afc <HAL_SPI_Transmit+0x17e>
    {
      /* Wait until TXE flag is set to send data */
      if (__HAL_SPI_GET_FLAG(hspi, SPI_FLAG_TXE))
 8005a96:	68fb      	ldr	r3, [r7, #12]
 8005a98:	681b      	ldr	r3, [r3, #0]
 8005a9a:	689b      	ldr	r3, [r3, #8]
 8005a9c:	f003 0302 	and.w	r3, r3, #2
 8005aa0:	2b02      	cmp	r3, #2
 8005aa2:	d112      	bne.n	8005aca <HAL_SPI_Transmit+0x14c>
      {
        hspi->Instance->DR = *((const uint16_t *)hspi->pTxBuffPtr);
 8005aa4:	68fb      	ldr	r3, [r7, #12]
 8005aa6:	6b9b      	ldr	r3, [r3, #56]	@ 0x38
 8005aa8:	881a      	ldrh	r2, [r3, #0]
 8005aaa:	68fb      	ldr	r3, [r7, #12]
 8005aac:	681b      	ldr	r3, [r3, #0]
 8005aae:	60da      	str	r2, [r3, #12]
        hspi->pTxBuffPtr += sizeof(uint16_t);
 8005ab0:	68fb      	ldr	r3, [r7, #12]
 8005ab2:	6b9b      	ldr	r3, [r3, #56]	@ 0x38
 8005ab4:	1c9a      	adds	r2, r3, #2
 8005ab6:	68fb      	ldr	r3, [r7, #12]
 8005ab8:	639a      	str	r2, [r3, #56]	@ 0x38
        hspi->TxXferCount--;
 8005aba:	68fb      	ldr	r3, [r7, #12]
 8005abc:	8fdb      	ldrh	r3, [r3, #62]	@ 0x3e
 8005abe:	b29b      	uxth	r3, r3
 8005ac0:	3b01      	subs	r3, #1
 8005ac2:	b29a      	uxth	r2, r3
 8005ac4:	68fb      	ldr	r3, [r7, #12]
 8005ac6:	87da      	strh	r2, [r3, #62]	@ 0x3e
 8005ac8:	e018      	b.n	8005afc <HAL_SPI_Transmit+0x17e>
      }
      else
      {
        /* Timeout management */
        if ((((HAL_GetTick() - tickstart) >=  Timeout) && (Timeout != HAL_MAX_DELAY)) || (Timeout == 0U))
 8005aca:	f7fc ffa9 	bl	8002a20 <HAL_GetTick>
 8005ace:	4602      	mov	r2, r0
 8005ad0:	69fb      	ldr	r3, [r7, #28]
 8005ad2:	1ad3      	subs	r3, r2, r3
 8005ad4:	683a      	ldr	r2, [r7, #0]
 8005ad6:	429a      	cmp	r2, r3
 8005ad8:	d803      	bhi.n	8005ae2 <HAL_SPI_Transmit+0x164>
 8005ada:	683b      	ldr	r3, [r7, #0]
 8005adc:	f1b3 3fff 	cmp.w	r3, #4294967295
 8005ae0:	d102      	bne.n	8005ae8 <HAL_SPI_Transmit+0x16a>
 8005ae2:	683b      	ldr	r3, [r7, #0]
 8005ae4:	2b00      	cmp	r3, #0
 8005ae6:	d109      	bne.n	8005afc <HAL_SPI_Transmit+0x17e>
        {
          hspi->State = HAL_SPI_STATE_READY;
 8005ae8:	68fb      	ldr	r3, [r7, #12]
 8005aea:	2201      	movs	r2, #1
 8005aec:	f883 205d 	strb.w	r2, [r3, #93]	@ 0x5d
          __HAL_UNLOCK(hspi);
 8005af0:	68fb      	ldr	r3, [r7, #12]
 8005af2:	2200      	movs	r2, #0
 8005af4:	f883 205c 	strb.w	r2, [r3, #92]	@ 0x5c
          return HAL_TIMEOUT;
 8005af8:	2303      	movs	r3, #3
 8005afa:	e0b2      	b.n	8005c62 <HAL_SPI_Transmit+0x2e4>
    while (hspi->TxXferCount > 0U)
 8005afc:	68fb      	ldr	r3, [r7, #12]
 8005afe:	8fdb      	ldrh	r3, [r3, #62]	@ 0x3e
 8005b00:	b29b      	uxth	r3, r3
 8005b02:	2b00      	cmp	r3, #0
 8005b04:	d1c7      	bne.n	8005a96 <HAL_SPI_Transmit+0x118>
 8005b06:	e083      	b.n	8005c10 <HAL_SPI_Transmit+0x292>
    }
  }
  /* Transmit data in 8 Bit mode */
  else
  {
    if ((hspi->Init.Mode == SPI_MODE_SLAVE) || (initial_TxXferCount == 0x01U))
 8005b08:	68fb      	ldr	r3, [r7, #12]
 8005b0a:	685b      	ldr	r3, [r3, #4]
 8005b0c:	2b00      	cmp	r3, #0
 8005b0e:	d002      	beq.n	8005b16 <HAL_SPI_Transmit+0x198>
 8005b10:	8b7b      	ldrh	r3, [r7, #26]
 8005b12:	2b01      	cmp	r3, #1
 8005b14:	d177      	bne.n	8005c06 <HAL_SPI_Transmit+0x288>
    {
      if (hspi->TxXferCount > 1U)
 8005b16:	68fb      	ldr	r3, [r7, #12]
 8005b18:	8fdb      	ldrh	r3, [r3, #62]	@ 0x3e
 8005b1a:	b29b      	uxth	r3, r3
 8005b1c:	2b01      	cmp	r3, #1
 8005b1e:	d912      	bls.n	8005b46 <HAL_SPI_Transmit+0x1c8>
      {
        /* write on the data register in packing mode */
        hspi->Instance->DR = *((const uint16_t *)hspi->pTxBuffPtr);
 8005b20:	68fb      	ldr	r3, [r7, #12]
 8005b22:	6b9b      	ldr	r3, [r3, #56]	@ 0x38
 8005b24:	881a      	ldrh	r2, [r3, #0]
 8005b26:	68fb      	ldr	r3, [r7, #12]
 8005b28:	681b      	ldr	r3, [r3, #0]
 8005b2a:	60da      	str	r2, [r3, #12]
        hspi->pTxBuffPtr += sizeof(uint16_t);
 8005b2c:	68fb      	ldr	r3, [r7, #12]
 8005b2e:	6b9b      	ldr	r3, [r3, #56]	@ 0x38
 8005b30:	1c9a      	adds	r2, r3, #2
 8005b32:	68fb      	ldr	r3, [r7, #12]
 8005b34:	639a      	str	r2, [r3, #56]	@ 0x38
        hspi->TxXferCount -= 2U;
 8005b36:	68fb      	ldr	r3, [r7, #12]
 8005b38:	8fdb      	ldrh	r3, [r3, #62]	@ 0x3e
 8005b3a:	b29b      	uxth	r3, r3
 8005b3c:	3b02      	subs	r3, #2
 8005b3e:	b29a      	uxth	r2, r3
 8005b40:	68fb      	ldr	r3, [r7, #12]
 8005b42:	87da      	strh	r2, [r3, #62]	@ 0x3e
 8005b44:	e05f      	b.n	8005c06 <HAL_SPI_Transmit+0x288>
      }
      else
      {
        *((__IO uint8_t *)&hspi->Instance->DR) = *((const uint8_t *)hspi->pTxBuffPtr);
 8005b46:	68fb      	ldr	r3, [r7, #12]
 8005b48:	6b9a      	ldr	r2, [r3, #56]	@ 0x38
 8005b4a:	68fb      	ldr	r3, [r7, #12]
 8005b4c:	681b      	ldr	r3, [r3, #0]
 8005b4e:	330c      	adds	r3, #12
 8005b50:	7812      	ldrb	r2, [r2, #0]
 8005b52:	701a      	strb	r2, [r3, #0]
        hspi->pTxBuffPtr ++;
 8005b54:	68fb      	ldr	r3, [r7, #12]
 8005b56:	6b9b      	ldr	r3, [r3, #56]	@ 0x38
 8005b58:	1c5a      	adds	r2, r3, #1
 8005b5a:	68fb      	ldr	r3, [r7, #12]
 8005b5c:	639a      	str	r2, [r3, #56]	@ 0x38
        hspi->TxXferCount--;
 8005b5e:	68fb      	ldr	r3, [r7, #12]
 8005b60:	8fdb      	ldrh	r3, [r3, #62]	@ 0x3e
 8005b62:	b29b      	uxth	r3, r3
 8005b64:	3b01      	subs	r3, #1
 8005b66:	b29a      	uxth	r2, r3
 8005b68:	68fb      	ldr	r3, [r7, #12]
 8005b6a:	87da      	strh	r2, [r3, #62]	@ 0x3e
      }
    }
    while (hspi->TxXferCount > 0U)
 8005b6c:	e04b      	b.n	8005c06 <HAL_SPI_Transmit+0x288>
    {
      /* Wait until TXE flag is set to send data */
      if (__HAL_SPI_GET_FLAG(hspi, SPI_FLAG_TXE))
 8005b6e:	68fb      	ldr	r3, [r7, #12]
 8005b70:	681b      	ldr	r3, [r3, #0]
 8005b72:	689b      	ldr	r3, [r3, #8]
 8005b74:	f003 0302 	and.w	r3, r3, #2
 8005b78:	2b02      	cmp	r3, #2
 8005b7a:	d12b      	bne.n	8005bd4 <HAL_SPI_Transmit+0x256>
      {
        if (hspi->TxXferCount > 1U)
 8005b7c:	68fb      	ldr	r3, [r7, #12]
 8005b7e:	8fdb      	ldrh	r3, [r3, #62]	@ 0x3e
 8005b80:	b29b      	uxth	r3, r3
 8005b82:	2b01      	cmp	r3, #1
 8005b84:	d912      	bls.n	8005bac <HAL_SPI_Transmit+0x22e>
        {
          /* write on the data register in packing mode */
          hspi->Instance->DR = *((const uint16_t *)hspi->pTxBuffPtr);
 8005b86:	68fb      	ldr	r3, [r7, #12]
 8005b88:	6b9b      	ldr	r3, [r3, #56]	@ 0x38
 8005b8a:	881a      	ldrh	r2, [r3, #0]
 8005b8c:	68fb      	ldr	r3, [r7, #12]
 8005b8e:	681b      	ldr	r3, [r3, #0]
 8005b90:	60da      	str	r2, [r3, #12]
          hspi->pTxBuffPtr += sizeof(uint16_t);
 8005b92:	68fb      	ldr	r3, [r7, #12]
 8005b94:	6b9b      	ldr	r3, [r3, #56]	@ 0x38
 8005b96:	1c9a      	adds	r2, r3, #2
 8005b98:	68fb      	ldr	r3, [r7, #12]
 8005b9a:	639a      	str	r2, [r3, #56]	@ 0x38
          hspi->TxXferCount -= 2U;
 8005b9c:	68fb      	ldr	r3, [r7, #12]
 8005b9e:	8fdb      	ldrh	r3, [r3, #62]	@ 0x3e
 8005ba0:	b29b      	uxth	r3, r3
 8005ba2:	3b02      	subs	r3, #2
 8005ba4:	b29a      	uxth	r2, r3
 8005ba6:	68fb      	ldr	r3, [r7, #12]
 8005ba8:	87da      	strh	r2, [r3, #62]	@ 0x3e
 8005baa:	e02c      	b.n	8005c06 <HAL_SPI_Transmit+0x288>
        }
        else
        {
          *((__IO uint8_t *)&hspi->Instance->DR) = *((const uint8_t *)hspi->pTxBuffPtr);
 8005bac:	68fb      	ldr	r3, [r7, #12]
 8005bae:	6b9a      	ldr	r2, [r3, #56]	@ 0x38
 8005bb0:	68fb      	ldr	r3, [r7, #12]
 8005bb2:	681b      	ldr	r3, [r3, #0]
 8005bb4:	330c      	adds	r3, #12
 8005bb6:	7812      	ldrb	r2, [r2, #0]
 8005bb8:	701a      	strb	r2, [r3, #0]
          hspi->pTxBuffPtr++;
 8005bba:	68fb      	ldr	r3, [r7, #12]
 8005bbc:	6b9b      	ldr	r3, [r3, #56]	@ 0x38
 8005bbe:	1c5a      	adds	r2, r3, #1
 8005bc0:	68fb      	ldr	r3, [r7, #12]
 8005bc2:	639a      	str	r2, [r3, #56]	@ 0x38
          hspi->TxXferCount--;
 8005bc4:	68fb      	ldr	r3, [r7, #12]
 8005bc6:	8fdb      	ldrh	r3, [r3, #62]	@ 0x3e
 8005bc8:	b29b      	uxth	r3, r3
 8005bca:	3b01      	subs	r3, #1
 8005bcc:	b29a      	uxth	r2, r3
 8005bce:	68fb      	ldr	r3, [r7, #12]
 8005bd0:	87da      	strh	r2, [r3, #62]	@ 0x3e
 8005bd2:	e018      	b.n	8005c06 <HAL_SPI_Transmit+0x288>
        }
      }
      else
      {
        /* Timeout management */
        if ((((HAL_GetTick() - tickstart) >=  Timeout) && (Timeout != HAL_MAX_DELAY)) || (Timeout == 0U))
 8005bd4:	f7fc ff24 	bl	8002a20 <HAL_GetTick>
 8005bd8:	4602      	mov	r2, r0
 8005bda:	69fb      	ldr	r3, [r7, #28]
 8005bdc:	1ad3      	subs	r3, r2, r3
 8005bde:	683a      	ldr	r2, [r7, #0]
 8005be0:	429a      	cmp	r2, r3
 8005be2:	d803      	bhi.n	8005bec <HAL_SPI_Transmit+0x26e>
 8005be4:	683b      	ldr	r3, [r7, #0]
 8005be6:	f1b3 3fff 	cmp.w	r3, #4294967295
 8005bea:	d102      	bne.n	8005bf2 <HAL_SPI_Transmit+0x274>
 8005bec:	683b      	ldr	r3, [r7, #0]
 8005bee:	2b00      	cmp	r3, #0
 8005bf0:	d109      	bne.n	8005c06 <HAL_SPI_Transmit+0x288>
        {
          hspi->State = HAL_SPI_STATE_READY;
 8005bf2:	68fb      	ldr	r3, [r7, #12]
 8005bf4:	2201      	movs	r2, #1
 8005bf6:	f883 205d 	strb.w	r2, [r3, #93]	@ 0x5d
          __HAL_UNLOCK(hspi);
 8005bfa:	68fb      	ldr	r3, [r7, #12]
 8005bfc:	2200      	movs	r2, #0
 8005bfe:	f883 205c 	strb.w	r2, [r3, #92]	@ 0x5c
          return HAL_TIMEOUT;
 8005c02:	2303      	movs	r3, #3
 8005c04:	e02d      	b.n	8005c62 <HAL_SPI_Transmit+0x2e4>
    while (hspi->TxXferCount > 0U)
 8005c06:	68fb      	ldr	r3, [r7, #12]
 8005c08:	8fdb      	ldrh	r3, [r3, #62]	@ 0x3e
 8005c0a:	b29b      	uxth	r3, r3
 8005c0c:	2b00      	cmp	r3, #0
 8005c0e:	d1ae      	bne.n	8005b6e <HAL_SPI_Transmit+0x1f0>
    SET_BIT(hspi->Instance->CR1, SPI_CR1_CRCNEXT);
  }
#endif /* USE_SPI_CRC */

  /* Check the end of the transaction */
  if (SPI_EndRxTxTransaction(hspi, Timeout, tickstart) != HAL_OK)
 8005c10:	69fa      	ldr	r2, [r7, #28]
 8005c12:	6839      	ldr	r1, [r7, #0]
 8005c14:	68f8      	ldr	r0, [r7, #12]
 8005c16:	f000 f947 	bl	8005ea8 <SPI_EndRxTxTransaction>
 8005c1a:	4603      	mov	r3, r0
 8005c1c:	2b00      	cmp	r3, #0
 8005c1e:	d002      	beq.n	8005c26 <HAL_SPI_Transmit+0x2a8>
  {
    hspi->ErrorCode = HAL_SPI_ERROR_FLAG;
 8005c20:	68fb      	ldr	r3, [r7, #12]
 8005c22:	2220      	movs	r2, #32
 8005c24:	661a      	str	r2, [r3, #96]	@ 0x60
  }

  /* Clear overrun flag in 2 Lines communication mode because received is not read */
  if (hspi->Init.Direction == SPI_DIRECTION_2LINES)
 8005c26:	68fb      	ldr	r3, [r7, #12]
 8005c28:	689b      	ldr	r3, [r3, #8]
 8005c2a:	2b00      	cmp	r3, #0
 8005c2c:	d10a      	bne.n	8005c44 <HAL_SPI_Transmit+0x2c6>
  {
    __HAL_SPI_CLEAR_OVRFLAG(hspi);
 8005c2e:	2300      	movs	r3, #0
 8005c30:	617b      	str	r3, [r7, #20]
 8005c32:	68fb      	ldr	r3, [r7, #12]
 8005c34:	681b      	ldr	r3, [r3, #0]
 8005c36:	68db      	ldr	r3, [r3, #12]
 8005c38:	617b      	str	r3, [r7, #20]
 8005c3a:	68fb      	ldr	r3, [r7, #12]
 8005c3c:	681b      	ldr	r3, [r3, #0]
 8005c3e:	689b      	ldr	r3, [r3, #8]
 8005c40:	617b      	str	r3, [r7, #20]
 8005c42:	697b      	ldr	r3, [r7, #20]
  }

  hspi->State = HAL_SPI_STATE_READY;
 8005c44:	68fb      	ldr	r3, [r7, #12]
 8005c46:	2201      	movs	r2, #1
 8005c48:	f883 205d 	strb.w	r2, [r3, #93]	@ 0x5d
  /* Process Unlocked */
  __HAL_UNLOCK(hspi);
 8005c4c:	68fb      	ldr	r3, [r7, #12]
 8005c4e:	2200      	movs	r2, #0
 8005c50:	f883 205c 	strb.w	r2, [r3, #92]	@ 0x5c

  if (hspi->ErrorCode != HAL_SPI_ERROR_NONE)
 8005c54:	68fb      	ldr	r3, [r7, #12]
 8005c56:	6e1b      	ldr	r3, [r3, #96]	@ 0x60
 8005c58:	2b00      	cmp	r3, #0
 8005c5a:	d001      	beq.n	8005c60 <HAL_SPI_Transmit+0x2e2>
  {
    return HAL_ERROR;
 8005c5c:	2301      	movs	r3, #1
 8005c5e:	e000      	b.n	8005c62 <HAL_SPI_Transmit+0x2e4>
  }
  else
  {
    return HAL_OK;
 8005c60:	2300      	movs	r3, #0
  }
}
 8005c62:	4618      	mov	r0, r3
 8005c64:	3720      	adds	r7, #32
 8005c66:	46bd      	mov	sp, r7
 8005c68:	bd80      	pop	{r7, pc}
	...

08005c6c <SPI_WaitFlagStateUntilTimeout>:
  * @param  Tickstart tick start value
  * @retval HAL status
  */
static HAL_StatusTypeDef SPI_WaitFlagStateUntilTimeout(SPI_HandleTypeDef *hspi, uint32_t Flag, FlagStatus State,
                                                       uint32_t Timeout, uint32_t Tickstart)
{
 8005c6c:	b580      	push	{r7, lr}
 8005c6e:	b088      	sub	sp, #32
 8005c70:	af00      	add	r7, sp, #0
 8005c72:	60f8      	str	r0, [r7, #12]
 8005c74:	60b9      	str	r1, [r7, #8]
 8005c76:	603b      	str	r3, [r7, #0]
 8005c78:	4613      	mov	r3, r2
 8005c7a:	71fb      	strb	r3, [r7, #7]
  __IO uint32_t count;
  uint32_t tmp_timeout;
  uint32_t tmp_tickstart;

  /* Adjust Timeout value  in case of end of transfer */
  tmp_timeout   = Timeout - (HAL_GetTick() - Tickstart);
 8005c7c:	f7fc fed0 	bl	8002a20 <HAL_GetTick>
 8005c80:	4602      	mov	r2, r0
 8005c82:	6abb      	ldr	r3, [r7, #40]	@ 0x28
 8005c84:	1a9b      	subs	r3, r3, r2
 8005c86:	683a      	ldr	r2, [r7, #0]
 8005c88:	4413      	add	r3, r2
 8005c8a:	61fb      	str	r3, [r7, #28]
  tmp_tickstart = HAL_GetTick();
 8005c8c:	f7fc fec8 	bl	8002a20 <HAL_GetTick>
 8005c90:	61b8      	str	r0, [r7, #24]

  /* Calculate Timeout based on a software loop to avoid blocking issue if Systick is disabled */
  count = tmp_timeout * ((SystemCoreClock * 32U) >> 20U);
 8005c92:	4b39      	ldr	r3, [pc, #228]	@ (8005d78 <SPI_WaitFlagStateUntilTimeout+0x10c>)
 8005c94:	681b      	ldr	r3, [r3, #0]
 8005c96:	015b      	lsls	r3, r3, #5
 8005c98:	0d1b      	lsrs	r3, r3, #20
 8005c9a:	69fa      	ldr	r2, [r7, #28]
 8005c9c:	fb02 f303 	mul.w	r3, r2, r3
 8005ca0:	617b      	str	r3, [r7, #20]

  while ((__HAL_SPI_GET_FLAG(hspi, Flag) ? SET : RESET) != State)
 8005ca2:	e055      	b.n	8005d50 <SPI_WaitFlagStateUntilTimeout+0xe4>
  {
    if (Timeout != HAL_MAX_DELAY)
 8005ca4:	683b      	ldr	r3, [r7, #0]
 8005ca6:	f1b3 3fff 	cmp.w	r3, #4294967295
 8005caa:	d051      	beq.n	8005d50 <SPI_WaitFlagStateUntilTimeout+0xe4>
    {
      if (((HAL_GetTick() - tmp_tickstart) >= tmp_timeout) || (tmp_timeout == 0U))
 8005cac:	f7fc feb8 	bl	8002a20 <HAL_GetTick>
 8005cb0:	4602      	mov	r2, r0
 8005cb2:	69bb      	ldr	r3, [r7, #24]
 8005cb4:	1ad3      	subs	r3, r2, r3
 8005cb6:	69fa      	ldr	r2, [r7, #28]
 8005cb8:	429a      	cmp	r2, r3
 8005cba:	d902      	bls.n	8005cc2 <SPI_WaitFlagStateUntilTimeout+0x56>
 8005cbc:	69fb      	ldr	r3, [r7, #28]
 8005cbe:	2b00      	cmp	r3, #0
 8005cc0:	d13d      	bne.n	8005d3e <SPI_WaitFlagStateUntilTimeout+0xd2>
        /* Disable the SPI and reset the CRC: the CRC value should be cleared
           on both master and slave sides in order to resynchronize the master
           and slave for their respective CRC calculation */

        /* Disable TXE, RXNE and ERR interrupts for the interrupt process */
        __HAL_SPI_DISABLE_IT(hspi, (SPI_IT_TXE | SPI_IT_RXNE | SPI_IT_ERR));
 8005cc2:	68fb      	ldr	r3, [r7, #12]
 8005cc4:	681b      	ldr	r3, [r3, #0]
 8005cc6:	685a      	ldr	r2, [r3, #4]
 8005cc8:	68fb      	ldr	r3, [r7, #12]
 8005cca:	681b      	ldr	r3, [r3, #0]
 8005ccc:	f022 02e0 	bic.w	r2, r2, #224	@ 0xe0
 8005cd0:	605a      	str	r2, [r3, #4]

        if ((hspi->Init.Mode == SPI_MODE_MASTER) && ((hspi->Init.Direction == SPI_DIRECTION_1LINE)
 8005cd2:	68fb      	ldr	r3, [r7, #12]
 8005cd4:	685b      	ldr	r3, [r3, #4]
 8005cd6:	f5b3 7f82 	cmp.w	r3, #260	@ 0x104
 8005cda:	d111      	bne.n	8005d00 <SPI_WaitFlagStateUntilTimeout+0x94>
 8005cdc:	68fb      	ldr	r3, [r7, #12]
 8005cde:	689b      	ldr	r3, [r3, #8]
 8005ce0:	f5b3 4f00 	cmp.w	r3, #32768	@ 0x8000
 8005ce4:	d004      	beq.n	8005cf0 <SPI_WaitFlagStateUntilTimeout+0x84>
                                                     || (hspi->Init.Direction == SPI_DIRECTION_2LINES_RXONLY)))
 8005ce6:	68fb      	ldr	r3, [r7, #12]
 8005ce8:	689b      	ldr	r3, [r3, #8]
 8005cea:	f5b3 6f80 	cmp.w	r3, #1024	@ 0x400
 8005cee:	d107      	bne.n	8005d00 <SPI_WaitFlagStateUntilTimeout+0x94>
        {
          /* Disable SPI peripheral */
          __HAL_SPI_DISABLE(hspi);
 8005cf0:	68fb      	ldr	r3, [r7, #12]
 8005cf2:	681b      	ldr	r3, [r3, #0]
 8005cf4:	681a      	ldr	r2, [r3, #0]
 8005cf6:	68fb      	ldr	r3, [r7, #12]
 8005cf8:	681b      	ldr	r3, [r3, #0]
 8005cfa:	f022 0240 	bic.w	r2, r2, #64	@ 0x40
 8005cfe:	601a      	str	r2, [r3, #0]
        }

        /* Reset CRC Calculation */
        if (hspi->Init.CRCCalculation == SPI_CRCCALCULATION_ENABLE)
 8005d00:	68fb      	ldr	r3, [r7, #12]
 8005d02:	6a9b      	ldr	r3, [r3, #40]	@ 0x28
 8005d04:	f5b3 5f00 	cmp.w	r3, #8192	@ 0x2000
 8005d08:	d10f      	bne.n	8005d2a <SPI_WaitFlagStateUntilTimeout+0xbe>
        {
          SPI_RESET_CRC(hspi);
 8005d0a:	68fb      	ldr	r3, [r7, #12]
 8005d0c:	681b      	ldr	r3, [r3, #0]
 8005d0e:	681a      	ldr	r2, [r3, #0]
 8005d10:	68fb      	ldr	r3, [r7, #12]
 8005d12:	681b      	ldr	r3, [r3, #0]
 8005d14:	f422 5200 	bic.w	r2, r2, #8192	@ 0x2000
 8005d18:	601a      	str	r2, [r3, #0]
 8005d1a:	68fb      	ldr	r3, [r7, #12]
 8005d1c:	681b      	ldr	r3, [r3, #0]
 8005d1e:	681a      	ldr	r2, [r3, #0]
 8005d20:	68fb      	ldr	r3, [r7, #12]
 8005d22:	681b      	ldr	r3, [r3, #0]
 8005d24:	f442 5200 	orr.w	r2, r2, #8192	@ 0x2000
 8005d28:	601a      	str	r2, [r3, #0]
        }

        hspi->State = HAL_SPI_STATE_READY;
 8005d2a:	68fb      	ldr	r3, [r7, #12]
 8005d2c:	2201      	movs	r2, #1
 8005d2e:	f883 205d 	strb.w	r2, [r3, #93]	@ 0x5d

        /* Process Unlocked */
        __HAL_UNLOCK(hspi);
 8005d32:	68fb      	ldr	r3, [r7, #12]
 8005d34:	2200      	movs	r2, #0
 8005d36:	f883 205c 	strb.w	r2, [r3, #92]	@ 0x5c

        return HAL_TIMEOUT;
 8005d3a:	2303      	movs	r3, #3
 8005d3c:	e018      	b.n	8005d70 <SPI_WaitFlagStateUntilTimeout+0x104>
      }
      /* If Systick is disabled or not incremented, deactivate timeout to go in disable loop procedure */
      if (count == 0U)
 8005d3e:	697b      	ldr	r3, [r7, #20]
 8005d40:	2b00      	cmp	r3, #0
 8005d42:	d102      	bne.n	8005d4a <SPI_WaitFlagStateUntilTimeout+0xde>
      {
        tmp_timeout = 0U;
 8005d44:	2300      	movs	r3, #0
 8005d46:	61fb      	str	r3, [r7, #28]
 8005d48:	e002      	b.n	8005d50 <SPI_WaitFlagStateUntilTimeout+0xe4>
      }
      else
      {
        count--;
 8005d4a:	697b      	ldr	r3, [r7, #20]
 8005d4c:	3b01      	subs	r3, #1
 8005d4e:	617b      	str	r3, [r7, #20]
  while ((__HAL_SPI_GET_FLAG(hspi, Flag) ? SET : RESET) != State)
 8005d50:	68fb      	ldr	r3, [r7, #12]
 8005d52:	681b      	ldr	r3, [r3, #0]
 8005d54:	689a      	ldr	r2, [r3, #8]
 8005d56:	68bb      	ldr	r3, [r7, #8]
 8005d58:	4013      	ands	r3, r2
 8005d5a:	68ba      	ldr	r2, [r7, #8]
 8005d5c:	429a      	cmp	r2, r3
 8005d5e:	bf0c      	ite	eq
 8005d60:	2301      	moveq	r3, #1
 8005d62:	2300      	movne	r3, #0
 8005d64:	b2db      	uxtb	r3, r3
 8005d66:	461a      	mov	r2, r3
 8005d68:	79fb      	ldrb	r3, [r7, #7]
 8005d6a:	429a      	cmp	r2, r3
 8005d6c:	d19a      	bne.n	8005ca4 <SPI_WaitFlagStateUntilTimeout+0x38>
      }
    }
  }

  return HAL_OK;
 8005d6e:	2300      	movs	r3, #0
}
 8005d70:	4618      	mov	r0, r3
 8005d72:	3720      	adds	r7, #32
 8005d74:	46bd      	mov	sp, r7
 8005d76:	bd80      	pop	{r7, pc}
 8005d78:	20000000 	.word	0x20000000

08005d7c <SPI_WaitFifoStateUntilTimeout>:
  * @param  Tickstart tick start value
  * @retval HAL status
  */
static HAL_StatusTypeDef SPI_WaitFifoStateUntilTimeout(SPI_HandleTypeDef *hspi, uint32_t Fifo, uint32_t State,
                                                       uint32_t Timeout, uint32_t Tickstart)
{
 8005d7c:	b580      	push	{r7, lr}
 8005d7e:	b08a      	sub	sp, #40	@ 0x28
 8005d80:	af00      	add	r7, sp, #0
 8005d82:	60f8      	str	r0, [r7, #12]
 8005d84:	60b9      	str	r1, [r7, #8]
 8005d86:	607a      	str	r2, [r7, #4]
 8005d88:	603b      	str	r3, [r7, #0]
  __IO uint32_t count;
  uint32_t tmp_timeout;
  uint32_t tmp_tickstart;
  __IO const uint8_t  *ptmpreg8;
  __IO uint8_t  tmpreg8 = 0;
 8005d8a:	2300      	movs	r3, #0
 8005d8c:	75fb      	strb	r3, [r7, #23]

  /* Adjust Timeout value  in case of end of transfer */
  tmp_timeout = Timeout - (HAL_GetTick() - Tickstart);
 8005d8e:	f7fc fe47 	bl	8002a20 <HAL_GetTick>
 8005d92:	4602      	mov	r2, r0
 8005d94:	6b3b      	ldr	r3, [r7, #48]	@ 0x30
 8005d96:	1a9b      	subs	r3, r3, r2
 8005d98:	683a      	ldr	r2, [r7, #0]
 8005d9a:	4413      	add	r3, r2
 8005d9c:	627b      	str	r3, [r7, #36]	@ 0x24
  tmp_tickstart = HAL_GetTick();
 8005d9e:	f7fc fe3f 	bl	8002a20 <HAL_GetTick>
 8005da2:	6238      	str	r0, [r7, #32]

  /* Initialize the 8bit temporary pointer */
  ptmpreg8 = (__IO uint8_t *)&hspi->Instance->DR;
 8005da4:	68fb      	ldr	r3, [r7, #12]
 8005da6:	681b      	ldr	r3, [r3, #0]
 8005da8:	330c      	adds	r3, #12
 8005daa:	61fb      	str	r3, [r7, #28]

  /* Calculate Timeout based on a software loop to avoid blocking issue if Systick is disabled */
  count = tmp_timeout * ((SystemCoreClock * 35U) >> 20U);
 8005dac:	4b3d      	ldr	r3, [pc, #244]	@ (8005ea4 <SPI_WaitFifoStateUntilTimeout+0x128>)
 8005dae:	681a      	ldr	r2, [r3, #0]
 8005db0:	4613      	mov	r3, r2
 8005db2:	009b      	lsls	r3, r3, #2
 8005db4:	4413      	add	r3, r2
 8005db6:	00da      	lsls	r2, r3, #3
 8005db8:	1ad3      	subs	r3, r2, r3
 8005dba:	0d1b      	lsrs	r3, r3, #20
 8005dbc:	6a7a      	ldr	r2, [r7, #36]	@ 0x24
 8005dbe:	fb02 f303 	mul.w	r3, r2, r3
 8005dc2:	61bb      	str	r3, [r7, #24]

  while ((hspi->Instance->SR & Fifo) != State)
 8005dc4:	e061      	b.n	8005e8a <SPI_WaitFifoStateUntilTimeout+0x10e>
  {
    if ((Fifo == SPI_SR_FRLVL) && (State == SPI_FRLVL_EMPTY))
 8005dc6:	68bb      	ldr	r3, [r7, #8]
 8005dc8:	f5b3 6fc0 	cmp.w	r3, #1536	@ 0x600
 8005dcc:	d107      	bne.n	8005dde <SPI_WaitFifoStateUntilTimeout+0x62>
 8005dce:	687b      	ldr	r3, [r7, #4]
 8005dd0:	2b00      	cmp	r3, #0
 8005dd2:	d104      	bne.n	8005dde <SPI_WaitFifoStateUntilTimeout+0x62>
    {
      /* Flush Data Register by a blank read */
      tmpreg8 = *ptmpreg8;
 8005dd4:	69fb      	ldr	r3, [r7, #28]
 8005dd6:	781b      	ldrb	r3, [r3, #0]
 8005dd8:	b2db      	uxtb	r3, r3
 8005dda:	75fb      	strb	r3, [r7, #23]
      /* To avoid GCC warning */
      UNUSED(tmpreg8);
 8005ddc:	7dfb      	ldrb	r3, [r7, #23]
    }

    if (Timeout != HAL_MAX_DELAY)
 8005dde:	683b      	ldr	r3, [r7, #0]
 8005de0:	f1b3 3fff 	cmp.w	r3, #4294967295
 8005de4:	d051      	beq.n	8005e8a <SPI_WaitFifoStateUntilTimeout+0x10e>
    {
      if (((HAL_GetTick() - tmp_tickstart) >= tmp_timeout) || (tmp_timeout == 0U))
 8005de6:	f7fc fe1b 	bl	8002a20 <HAL_GetTick>
 8005dea:	4602      	mov	r2, r0
 8005dec:	6a3b      	ldr	r3, [r7, #32]
 8005dee:	1ad3      	subs	r3, r2, r3
 8005df0:	6a7a      	ldr	r2, [r7, #36]	@ 0x24
 8005df2:	429a      	cmp	r2, r3
 8005df4:	d902      	bls.n	8005dfc <SPI_WaitFifoStateUntilTimeout+0x80>
 8005df6:	6a7b      	ldr	r3, [r7, #36]	@ 0x24
 8005df8:	2b00      	cmp	r3, #0
 8005dfa:	d13d      	bne.n	8005e78 <SPI_WaitFifoStateUntilTimeout+0xfc>
        /* Disable the SPI and reset the CRC: the CRC value should be cleared
           on both master and slave sides in order to resynchronize the master
           and slave for their respective CRC calculation */

        /* Disable TXE, RXNE and ERR interrupts for the interrupt process */
        __HAL_SPI_DISABLE_IT(hspi, (SPI_IT_TXE | SPI_IT_RXNE | SPI_IT_ERR));
 8005dfc:	68fb      	ldr	r3, [r7, #12]
 8005dfe:	681b      	ldr	r3, [r3, #0]
 8005e00:	685a      	ldr	r2, [r3, #4]
 8005e02:	68fb      	ldr	r3, [r7, #12]
 8005e04:	681b      	ldr	r3, [r3, #0]
 8005e06:	f022 02e0 	bic.w	r2, r2, #224	@ 0xe0
 8005e0a:	605a      	str	r2, [r3, #4]

        if ((hspi->Init.Mode == SPI_MODE_MASTER) && ((hspi->Init.Direction == SPI_DIRECTION_1LINE)
 8005e0c:	68fb      	ldr	r3, [r7, #12]
 8005e0e:	685b      	ldr	r3, [r3, #4]
 8005e10:	f5b3 7f82 	cmp.w	r3, #260	@ 0x104
 8005e14:	d111      	bne.n	8005e3a <SPI_WaitFifoStateUntilTimeout+0xbe>
 8005e16:	68fb      	ldr	r3, [r7, #12]
 8005e18:	689b      	ldr	r3, [r3, #8]
 8005e1a:	f5b3 4f00 	cmp.w	r3, #32768	@ 0x8000
 8005e1e:	d004      	beq.n	8005e2a <SPI_WaitFifoStateUntilTimeout+0xae>
                                                     || (hspi->Init.Direction == SPI_DIRECTION_2LINES_RXONLY)))
 8005e20:	68fb      	ldr	r3, [r7, #12]
 8005e22:	689b      	ldr	r3, [r3, #8]
 8005e24:	f5b3 6f80 	cmp.w	r3, #1024	@ 0x400
 8005e28:	d107      	bne.n	8005e3a <SPI_WaitFifoStateUntilTimeout+0xbe>
        {
          /* Disable SPI peripheral */
          __HAL_SPI_DISABLE(hspi);
 8005e2a:	68fb      	ldr	r3, [r7, #12]
 8005e2c:	681b      	ldr	r3, [r3, #0]
 8005e2e:	681a      	ldr	r2, [r3, #0]
 8005e30:	68fb      	ldr	r3, [r7, #12]
 8005e32:	681b      	ldr	r3, [r3, #0]
 8005e34:	f022 0240 	bic.w	r2, r2, #64	@ 0x40
 8005e38:	601a      	str	r2, [r3, #0]
        }

        /* Reset CRC Calculation */
        if (hspi->Init.CRCCalculation == SPI_CRCCALCULATION_ENABLE)
 8005e3a:	68fb      	ldr	r3, [r7, #12]
 8005e3c:	6a9b      	ldr	r3, [r3, #40]	@ 0x28
 8005e3e:	f5b3 5f00 	cmp.w	r3, #8192	@ 0x2000
 8005e42:	d10f      	bne.n	8005e64 <SPI_WaitFifoStateUntilTimeout+0xe8>
        {
          SPI_RESET_CRC(hspi);
 8005e44:	68fb      	ldr	r3, [r7, #12]
 8005e46:	681b      	ldr	r3, [r3, #0]
 8005e48:	681a      	ldr	r2, [r3, #0]
 8005e4a:	68fb      	ldr	r3, [r7, #12]
 8005e4c:	681b      	ldr	r3, [r3, #0]
 8005e4e:	f422 5200 	bic.w	r2, r2, #8192	@ 0x2000
 8005e52:	601a      	str	r2, [r3, #0]
 8005e54:	68fb      	ldr	r3, [r7, #12]
 8005e56:	681b      	ldr	r3, [r3, #0]
 8005e58:	681a      	ldr	r2, [r3, #0]
 8005e5a:	68fb      	ldr	r3, [r7, #12]
 8005e5c:	681b      	ldr	r3, [r3, #0]
 8005e5e:	f442 5200 	orr.w	r2, r2, #8192	@ 0x2000
 8005e62:	601a      	str	r2, [r3, #0]
        }

        hspi->State = HAL_SPI_STATE_READY;
 8005e64:	68fb      	ldr	r3, [r7, #12]
 8005e66:	2201      	movs	r2, #1
 8005e68:	f883 205d 	strb.w	r2, [r3, #93]	@ 0x5d

        /* Process Unlocked */
        __HAL_UNLOCK(hspi);
 8005e6c:	68fb      	ldr	r3, [r7, #12]
 8005e6e:	2200      	movs	r2, #0
 8005e70:	f883 205c 	strb.w	r2, [r3, #92]	@ 0x5c

        return HAL_TIMEOUT;
 8005e74:	2303      	movs	r3, #3
 8005e76:	e011      	b.n	8005e9c <SPI_WaitFifoStateUntilTimeout+0x120>
      }
      /* If Systick is disabled or not incremented, deactivate timeout to go in disable loop procedure */
      if (count == 0U)
 8005e78:	69bb      	ldr	r3, [r7, #24]
 8005e7a:	2b00      	cmp	r3, #0
 8005e7c:	d102      	bne.n	8005e84 <SPI_WaitFifoStateUntilTimeout+0x108>
      {
        tmp_timeout = 0U;
 8005e7e:	2300      	movs	r3, #0
 8005e80:	627b      	str	r3, [r7, #36]	@ 0x24
 8005e82:	e002      	b.n	8005e8a <SPI_WaitFifoStateUntilTimeout+0x10e>
      }
      else
      {
        count--;
 8005e84:	69bb      	ldr	r3, [r7, #24]
 8005e86:	3b01      	subs	r3, #1
 8005e88:	61bb      	str	r3, [r7, #24]
  while ((hspi->Instance->SR & Fifo) != State)
 8005e8a:	68fb      	ldr	r3, [r7, #12]
 8005e8c:	681b      	ldr	r3, [r3, #0]
 8005e8e:	689a      	ldr	r2, [r3, #8]
 8005e90:	68bb      	ldr	r3, [r7, #8]
 8005e92:	4013      	ands	r3, r2
 8005e94:	687a      	ldr	r2, [r7, #4]
 8005e96:	429a      	cmp	r2, r3
 8005e98:	d195      	bne.n	8005dc6 <SPI_WaitFifoStateUntilTimeout+0x4a>
      }
    }
  }

  return HAL_OK;
 8005e9a:	2300      	movs	r3, #0
}
 8005e9c:	4618      	mov	r0, r3
 8005e9e:	3728      	adds	r7, #40	@ 0x28
 8005ea0:	46bd      	mov	sp, r7
 8005ea2:	bd80      	pop	{r7, pc}
 8005ea4:	20000000 	.word	0x20000000

08005ea8 <SPI_EndRxTxTransaction>:
  * @param  Timeout Timeout duration
  * @param  Tickstart tick start value
  * @retval HAL status
  */
static HAL_StatusTypeDef SPI_EndRxTxTransaction(SPI_HandleTypeDef *hspi, uint32_t Timeout, uint32_t Tickstart)
{
 8005ea8:	b580      	push	{r7, lr}
 8005eaa:	b088      	sub	sp, #32
 8005eac:	af02      	add	r7, sp, #8
 8005eae:	60f8      	str	r0, [r7, #12]
 8005eb0:	60b9      	str	r1, [r7, #8]
 8005eb2:	607a      	str	r2, [r7, #4]
  __IO uint32_t count;

  /* Control if the TX fifo is empty */
  if (SPI_WaitFifoStateUntilTimeout(hspi, SPI_FLAG_FTLVL, SPI_FTLVL_EMPTY, Timeout, Tickstart) != HAL_OK)
 8005eb4:	687b      	ldr	r3, [r7, #4]
 8005eb6:	9300      	str	r3, [sp, #0]
 8005eb8:	68bb      	ldr	r3, [r7, #8]
 8005eba:	2200      	movs	r2, #0
 8005ebc:	f44f 51c0 	mov.w	r1, #6144	@ 0x1800
 8005ec0:	68f8      	ldr	r0, [r7, #12]
 8005ec2:	f7ff ff5b 	bl	8005d7c <SPI_WaitFifoStateUntilTimeout>
 8005ec6:	4603      	mov	r3, r0
 8005ec8:	2b00      	cmp	r3, #0
 8005eca:	d007      	beq.n	8005edc <SPI_EndRxTxTransaction+0x34>
  {
    SET_BIT(hspi->ErrorCode, HAL_SPI_ERROR_FLAG);
 8005ecc:	68fb      	ldr	r3, [r7, #12]
 8005ece:	6e1b      	ldr	r3, [r3, #96]	@ 0x60
 8005ed0:	f043 0220 	orr.w	r2, r3, #32
 8005ed4:	68fb      	ldr	r3, [r7, #12]
 8005ed6:	661a      	str	r2, [r3, #96]	@ 0x60
    return HAL_TIMEOUT;
 8005ed8:	2303      	movs	r3, #3
 8005eda:	e046      	b.n	8005f6a <SPI_EndRxTxTransaction+0xc2>
  }

  /* Timeout in us */
  count = SPI_BSY_FLAG_WORKAROUND_TIMEOUT * (SystemCoreClock / 24U / 1000000U);
 8005edc:	4b25      	ldr	r3, [pc, #148]	@ (8005f74 <SPI_EndRxTxTransaction+0xcc>)
 8005ede:	681b      	ldr	r3, [r3, #0]
 8005ee0:	4a25      	ldr	r2, [pc, #148]	@ (8005f78 <SPI_EndRxTxTransaction+0xd0>)
 8005ee2:	fba2 2303 	umull	r2, r3, r2, r3
 8005ee6:	0d5b      	lsrs	r3, r3, #21
 8005ee8:	f44f 727a 	mov.w	r2, #1000	@ 0x3e8
 8005eec:	fb02 f303 	mul.w	r3, r2, r3
 8005ef0:	617b      	str	r3, [r7, #20]
  /* Erratasheet: BSY bit may stay high at the end of a data transfer in Slave mode */
  if (hspi->Init.Mode == SPI_MODE_MASTER)
 8005ef2:	68fb      	ldr	r3, [r7, #12]
 8005ef4:	685b      	ldr	r3, [r3, #4]
 8005ef6:	f5b3 7f82 	cmp.w	r3, #260	@ 0x104
 8005efa:	d112      	bne.n	8005f22 <SPI_EndRxTxTransaction+0x7a>
  {
    /* Control the BSY flag */
    if (SPI_WaitFlagStateUntilTimeout(hspi, SPI_FLAG_BSY, RESET, Timeout, Tickstart) != HAL_OK)
 8005efc:	687b      	ldr	r3, [r7, #4]
 8005efe:	9300      	str	r3, [sp, #0]
 8005f00:	68bb      	ldr	r3, [r7, #8]
 8005f02:	2200      	movs	r2, #0
 8005f04:	2180      	movs	r1, #128	@ 0x80
 8005f06:	68f8      	ldr	r0, [r7, #12]
 8005f08:	f7ff feb0 	bl	8005c6c <SPI_WaitFlagStateUntilTimeout>
 8005f0c:	4603      	mov	r3, r0
 8005f0e:	2b00      	cmp	r3, #0
 8005f10:	d016      	beq.n	8005f40 <SPI_EndRxTxTransaction+0x98>
    {
      SET_BIT(hspi->ErrorCode, HAL_SPI_ERROR_FLAG);
 8005f12:	68fb      	ldr	r3, [r7, #12]
 8005f14:	6e1b      	ldr	r3, [r3, #96]	@ 0x60
 8005f16:	f043 0220 	orr.w	r2, r3, #32
 8005f1a:	68fb      	ldr	r3, [r7, #12]
 8005f1c:	661a      	str	r2, [r3, #96]	@ 0x60
      return HAL_TIMEOUT;
 8005f1e:	2303      	movs	r3, #3
 8005f20:	e023      	b.n	8005f6a <SPI_EndRxTxTransaction+0xc2>
    * User have to calculate the timeout value to fit with the time of 1 byte transfer.
    * This time is directly link with the SPI clock from Master device.
    */
    do
    {
      if (count == 0U)
 8005f22:	697b      	ldr	r3, [r7, #20]
 8005f24:	2b00      	cmp	r3, #0
 8005f26:	d00a      	beq.n	8005f3e <SPI_EndRxTxTransaction+0x96>
      {
        break;
      }
      count--;
 8005f28:	697b      	ldr	r3, [r7, #20]
 8005f2a:	3b01      	subs	r3, #1
 8005f2c:	617b      	str	r3, [r7, #20]
    } while (__HAL_SPI_GET_FLAG(hspi, SPI_FLAG_BSY) != RESET);
 8005f2e:	68fb      	ldr	r3, [r7, #12]
 8005f30:	681b      	ldr	r3, [r3, #0]
 8005f32:	689b      	ldr	r3, [r3, #8]
 8005f34:	f003 0380 	and.w	r3, r3, #128	@ 0x80
 8005f38:	2b80      	cmp	r3, #128	@ 0x80
 8005f3a:	d0f2      	beq.n	8005f22 <SPI_EndRxTxTransaction+0x7a>
 8005f3c:	e000      	b.n	8005f40 <SPI_EndRxTxTransaction+0x98>
        break;
 8005f3e:	bf00      	nop
  }


  /* Control if the RX fifo is empty */
  if (SPI_WaitFifoStateUntilTimeout(hspi, SPI_FLAG_FRLVL, SPI_FRLVL_EMPTY, Timeout, Tickstart) != HAL_OK)
 8005f40:	687b      	ldr	r3, [r7, #4]
 8005f42:	9300      	str	r3, [sp, #0]
 8005f44:	68bb      	ldr	r3, [r7, #8]
 8005f46:	2200      	movs	r2, #0
 8005f48:	f44f 61c0 	mov.w	r1, #1536	@ 0x600
 8005f4c:	68f8      	ldr	r0, [r7, #12]
 8005f4e:	f7ff ff15 	bl	8005d7c <SPI_WaitFifoStateUntilTimeout>
 8005f52:	4603      	mov	r3, r0
 8005f54:	2b00      	cmp	r3, #0
 8005f56:	d007      	beq.n	8005f68 <SPI_EndRxTxTransaction+0xc0>
  {
    SET_BIT(hspi->ErrorCode, HAL_SPI_ERROR_FLAG);
 8005f58:	68fb      	ldr	r3, [r7, #12]
 8005f5a:	6e1b      	ldr	r3, [r3, #96]	@ 0x60
 8005f5c:	f043 0220 	orr.w	r2, r3, #32
 8005f60:	68fb      	ldr	r3, [r7, #12]
 8005f62:	661a      	str	r2, [r3, #96]	@ 0x60
    return HAL_TIMEOUT;
 8005f64:	2303      	movs	r3, #3
 8005f66:	e000      	b.n	8005f6a <SPI_EndRxTxTransaction+0xc2>
  }

  return HAL_OK;
 8005f68:	2300      	movs	r3, #0
}
 8005f6a:	4618      	mov	r0, r3
 8005f6c:	3718      	adds	r7, #24
 8005f6e:	46bd      	mov	sp, r7
 8005f70:	bd80      	pop	{r7, pc}
 8005f72:	bf00      	nop
 8005f74:	20000000 	.word	0x20000000
 8005f78:	165e9f81 	.word	0x165e9f81

08005f7c <HAL_TIM_Base_Init>:
  *         Ex: call @ref HAL_TIM_Base_DeInit() before HAL_TIM_Base_Init()
  * @param  htim TIM Base handle
  * @retval HAL status
  */
HAL_StatusTypeDef HAL_TIM_Base_Init(TIM_HandleTypeDef *htim)
{
 8005f7c:	b580      	push	{r7, lr}
 8005f7e:	b082      	sub	sp, #8
 8005f80:	af00      	add	r7, sp, #0
 8005f82:	6078      	str	r0, [r7, #4]
  /* Check the TIM handle allocation */
  if (htim == NULL)
 8005f84:	687b      	ldr	r3, [r7, #4]
 8005f86:	2b00      	cmp	r3, #0
 8005f88:	d101      	bne.n	8005f8e <HAL_TIM_Base_Init+0x12>
  {
    return HAL_ERROR;
 8005f8a:	2301      	movs	r3, #1
 8005f8c:	e049      	b.n	8006022 <HAL_TIM_Base_Init+0xa6>
  assert_param(IS_TIM_COUNTER_MODE(htim->Init.CounterMode));
  assert_param(IS_TIM_CLOCKDIVISION_DIV(htim->Init.ClockDivision));
  assert_param(IS_TIM_PERIOD(htim, htim->Init.Period));
  assert_param(IS_TIM_AUTORELOAD_PRELOAD(htim->Init.AutoReloadPreload));

  if (htim->State == HAL_TIM_STATE_RESET)
 8005f8e:	687b      	ldr	r3, [r7, #4]
 8005f90:	f893 303d 	ldrb.w	r3, [r3, #61]	@ 0x3d
 8005f94:	b2db      	uxtb	r3, r3
 8005f96:	2b00      	cmp	r3, #0
 8005f98:	d106      	bne.n	8005fa8 <HAL_TIM_Base_Init+0x2c>
  {
    /* Allocate lock resource and initialize it */
    htim->Lock = HAL_UNLOCKED;
 8005f9a:	687b      	ldr	r3, [r7, #4]
 8005f9c:	2200      	movs	r2, #0
 8005f9e:	f883 203c 	strb.w	r2, [r3, #60]	@ 0x3c
    }
    /* Init the low level hardware : GPIO, CLOCK, NVIC */
    htim->Base_MspInitCallback(htim);
#else
    /* Init the low level hardware : GPIO, CLOCK, NVIC */
    HAL_TIM_Base_MspInit(htim);
 8005fa2:	6878      	ldr	r0, [r7, #4]
 8005fa4:	f7fc fc16 	bl	80027d4 <HAL_TIM_Base_MspInit>
#endif /* USE_HAL_TIM_REGISTER_CALLBACKS */
  }

  /* Set the TIM state */
  htim->State = HAL_TIM_STATE_BUSY;
 8005fa8:	687b      	ldr	r3, [r7, #4]
 8005faa:	2202      	movs	r2, #2
 8005fac:	f883 203d 	strb.w	r2, [r3, #61]	@ 0x3d

  /* Set the Time Base configuration */
  TIM_Base_SetConfig(htim->Instance, &htim->Init);
 8005fb0:	687b      	ldr	r3, [r7, #4]
 8005fb2:	681a      	ldr	r2, [r3, #0]
 8005fb4:	687b      	ldr	r3, [r7, #4]
 8005fb6:	3304      	adds	r3, #4
 8005fb8:	4619      	mov	r1, r3
 8005fba:	4610      	mov	r0, r2
 8005fbc:	f000 fb18 	bl	80065f0 <TIM_Base_SetConfig>

  /* Initialize the DMA burst operation state */
  htim->DMABurstState = HAL_DMA_BURST_STATE_READY;
 8005fc0:	687b      	ldr	r3, [r7, #4]
 8005fc2:	2201      	movs	r2, #1
 8005fc4:	f883 2048 	strb.w	r2, [r3, #72]	@ 0x48

  /* Initialize the TIM channels state */
  TIM_CHANNEL_STATE_SET_ALL(htim, HAL_TIM_CHANNEL_STATE_READY);
 8005fc8:	687b      	ldr	r3, [r7, #4]
 8005fca:	2201      	movs	r2, #1
 8005fcc:	f883 203e 	strb.w	r2, [r3, #62]	@ 0x3e
 8005fd0:	687b      	ldr	r3, [r7, #4]
 8005fd2:	2201      	movs	r2, #1
 8005fd4:	f883 203f 	strb.w	r2, [r3, #63]	@ 0x3f
 8005fd8:	687b      	ldr	r3, [r7, #4]
 8005fda:	2201      	movs	r2, #1
 8005fdc:	f883 2040 	strb.w	r2, [r3, #64]	@ 0x40
 8005fe0:	687b      	ldr	r3, [r7, #4]
 8005fe2:	2201      	movs	r2, #1
 8005fe4:	f883 2041 	strb.w	r2, [r3, #65]	@ 0x41
 8005fe8:	687b      	ldr	r3, [r7, #4]
 8005fea:	2201      	movs	r2, #1
 8005fec:	f883 2042 	strb.w	r2, [r3, #66]	@ 0x42
 8005ff0:	687b      	ldr	r3, [r7, #4]
 8005ff2:	2201      	movs	r2, #1
 8005ff4:	f883 2043 	strb.w	r2, [r3, #67]	@ 0x43
  TIM_CHANNEL_N_STATE_SET_ALL(htim, HAL_TIM_CHANNEL_STATE_READY);
 8005ff8:	687b      	ldr	r3, [r7, #4]
 8005ffa:	2201      	movs	r2, #1
 8005ffc:	f883 2044 	strb.w	r2, [r3, #68]	@ 0x44
 8006000:	687b      	ldr	r3, [r7, #4]
 8006002:	2201      	movs	r2, #1
 8006004:	f883 2045 	strb.w	r2, [r3, #69]	@ 0x45
 8006008:	687b      	ldr	r3, [r7, #4]
 800600a:	2201      	movs	r2, #1
 800600c:	f883 2046 	strb.w	r2, [r3, #70]	@ 0x46
 8006010:	687b      	ldr	r3, [r7, #4]
 8006012:	2201      	movs	r2, #1
 8006014:	f883 2047 	strb.w	r2, [r3, #71]	@ 0x47

  /* Initialize the TIM state*/
  htim->State = HAL_TIM_STATE_READY;
 8006018:	687b      	ldr	r3, [r7, #4]
 800601a:	2201      	movs	r2, #1
 800601c:	f883 203d 	strb.w	r2, [r3, #61]	@ 0x3d

  return HAL_OK;
 8006020:	2300      	movs	r3, #0
}
 8006022:	4618      	mov	r0, r3
 8006024:	3708      	adds	r7, #8
 8006026:	46bd      	mov	sp, r7
 8006028:	bd80      	pop	{r7, pc}
	...

0800602c <HAL_TIM_Base_Start>:
  * @brief  Starts the TIM Base generation.
  * @param  htim TIM Base handle
  * @retval HAL status
  */
HAL_StatusTypeDef HAL_TIM_Base_Start(TIM_HandleTypeDef *htim)
{
 800602c:	b480      	push	{r7}
 800602e:	b085      	sub	sp, #20
 8006030:	af00      	add	r7, sp, #0
 8006032:	6078      	str	r0, [r7, #4]

  /* Check the parameters */
  assert_param(IS_TIM_INSTANCE(htim->Instance));

  /* Check the TIM state */
  if (htim->State != HAL_TIM_STATE_READY)
 8006034:	687b      	ldr	r3, [r7, #4]
 8006036:	f893 303d 	ldrb.w	r3, [r3, #61]	@ 0x3d
 800603a:	b2db      	uxtb	r3, r3
 800603c:	2b01      	cmp	r3, #1
 800603e:	d001      	beq.n	8006044 <HAL_TIM_Base_Start+0x18>
  {
    return HAL_ERROR;
 8006040:	2301      	movs	r3, #1
 8006042:	e04c      	b.n	80060de <HAL_TIM_Base_Start+0xb2>
  }

  /* Set the TIM state */
  htim->State = HAL_TIM_STATE_BUSY;
 8006044:	687b      	ldr	r3, [r7, #4]
 8006046:	2202      	movs	r2, #2
 8006048:	f883 203d 	strb.w	r2, [r3, #61]	@ 0x3d

  /* Enable the Peripheral, except in trigger mode where enable is automatically done with trigger */
  if (IS_TIM_SLAVE_INSTANCE(htim->Instance))
 800604c:	687b      	ldr	r3, [r7, #4]
 800604e:	681b      	ldr	r3, [r3, #0]
 8006050:	4a26      	ldr	r2, [pc, #152]	@ (80060ec <HAL_TIM_Base_Start+0xc0>)
 8006052:	4293      	cmp	r3, r2
 8006054:	d022      	beq.n	800609c <HAL_TIM_Base_Start+0x70>
 8006056:	687b      	ldr	r3, [r7, #4]
 8006058:	681b      	ldr	r3, [r3, #0]
 800605a:	f1b3 4f80 	cmp.w	r3, #1073741824	@ 0x40000000
 800605e:	d01d      	beq.n	800609c <HAL_TIM_Base_Start+0x70>
 8006060:	687b      	ldr	r3, [r7, #4]
 8006062:	681b      	ldr	r3, [r3, #0]
 8006064:	4a22      	ldr	r2, [pc, #136]	@ (80060f0 <HAL_TIM_Base_Start+0xc4>)
 8006066:	4293      	cmp	r3, r2
 8006068:	d018      	beq.n	800609c <HAL_TIM_Base_Start+0x70>
 800606a:	687b      	ldr	r3, [r7, #4]
 800606c:	681b      	ldr	r3, [r3, #0]
 800606e:	4a21      	ldr	r2, [pc, #132]	@ (80060f4 <HAL_TIM_Base_Start+0xc8>)
 8006070:	4293      	cmp	r3, r2
 8006072:	d013      	beq.n	800609c <HAL_TIM_Base_Start+0x70>
 8006074:	687b      	ldr	r3, [r7, #4]
 8006076:	681b      	ldr	r3, [r3, #0]
 8006078:	4a1f      	ldr	r2, [pc, #124]	@ (80060f8 <HAL_TIM_Base_Start+0xcc>)
 800607a:	4293      	cmp	r3, r2
 800607c:	d00e      	beq.n	800609c <HAL_TIM_Base_Start+0x70>
 800607e:	687b      	ldr	r3, [r7, #4]
 8006080:	681b      	ldr	r3, [r3, #0]
 8006082:	4a1e      	ldr	r2, [pc, #120]	@ (80060fc <HAL_TIM_Base_Start+0xd0>)
 8006084:	4293      	cmp	r3, r2
 8006086:	d009      	beq.n	800609c <HAL_TIM_Base_Start+0x70>
 8006088:	687b      	ldr	r3, [r7, #4]
 800608a:	681b      	ldr	r3, [r3, #0]
 800608c:	4a1c      	ldr	r2, [pc, #112]	@ (8006100 <HAL_TIM_Base_Start+0xd4>)
 800608e:	4293      	cmp	r3, r2
 8006090:	d004      	beq.n	800609c <HAL_TIM_Base_Start+0x70>
 8006092:	687b      	ldr	r3, [r7, #4]
 8006094:	681b      	ldr	r3, [r3, #0]
 8006096:	4a1b      	ldr	r2, [pc, #108]	@ (8006104 <HAL_TIM_Base_Start+0xd8>)
 8006098:	4293      	cmp	r3, r2
 800609a:	d115      	bne.n	80060c8 <HAL_TIM_Base_Start+0x9c>
  {
    tmpsmcr = htim->Instance->SMCR & TIM_SMCR_SMS;
 800609c:	687b      	ldr	r3, [r7, #4]
 800609e:	681b      	ldr	r3, [r3, #0]
 80060a0:	689a      	ldr	r2, [r3, #8]
 80060a2:	4b19      	ldr	r3, [pc, #100]	@ (8006108 <HAL_TIM_Base_Start+0xdc>)
 80060a4:	4013      	ands	r3, r2
 80060a6:	60fb      	str	r3, [r7, #12]
    if (!IS_TIM_SLAVEMODE_TRIGGER_ENABLED(tmpsmcr))
 80060a8:	68fb      	ldr	r3, [r7, #12]
 80060aa:	2b06      	cmp	r3, #6
 80060ac:	d015      	beq.n	80060da <HAL_TIM_Base_Start+0xae>
 80060ae:	68fb      	ldr	r3, [r7, #12]
 80060b0:	f5b3 3f80 	cmp.w	r3, #65536	@ 0x10000
 80060b4:	d011      	beq.n	80060da <HAL_TIM_Base_Start+0xae>
    {
      __HAL_TIM_ENABLE(htim);
 80060b6:	687b      	ldr	r3, [r7, #4]
 80060b8:	681b      	ldr	r3, [r3, #0]
 80060ba:	681a      	ldr	r2, [r3, #0]
 80060bc:	687b      	ldr	r3, [r7, #4]
 80060be:	681b      	ldr	r3, [r3, #0]
 80060c0:	f042 0201 	orr.w	r2, r2, #1
 80060c4:	601a      	str	r2, [r3, #0]
    if (!IS_TIM_SLAVEMODE_TRIGGER_ENABLED(tmpsmcr))
 80060c6:	e008      	b.n	80060da <HAL_TIM_Base_Start+0xae>
    }
  }
  else
  {
    __HAL_TIM_ENABLE(htim);
 80060c8:	687b      	ldr	r3, [r7, #4]
 80060ca:	681b      	ldr	r3, [r3, #0]
 80060cc:	681a      	ldr	r2, [r3, #0]
 80060ce:	687b      	ldr	r3, [r7, #4]
 80060d0:	681b      	ldr	r3, [r3, #0]
 80060d2:	f042 0201 	orr.w	r2, r2, #1
 80060d6:	601a      	str	r2, [r3, #0]
 80060d8:	e000      	b.n	80060dc <HAL_TIM_Base_Start+0xb0>
    if (!IS_TIM_SLAVEMODE_TRIGGER_ENABLED(tmpsmcr))
 80060da:	bf00      	nop
  }

  /* Return function status */
  return HAL_OK;
 80060dc:	2300      	movs	r3, #0
}
 80060de:	4618      	mov	r0, r3
 80060e0:	3714      	adds	r7, #20
 80060e2:	46bd      	mov	sp, r7
 80060e4:	f85d 7b04 	ldr.w	r7, [sp], #4
 80060e8:	4770      	bx	lr
 80060ea:	bf00      	nop
 80060ec:	40010000 	.word	0x40010000
 80060f0:	40000400 	.word	0x40000400
 80060f4:	40000800 	.word	0x40000800
 80060f8:	40000c00 	.word	0x40000c00
 80060fc:	40010400 	.word	0x40010400
 8006100:	40014000 	.word	0x40014000
 8006104:	40001800 	.word	0x40001800
 8006108:	00010007 	.word	0x00010007

0800610c <HAL_TIM_Base_Start_IT>:
  * @brief  Starts the TIM Base generation in interrupt mode.
  * @param  htim TIM Base handle
  * @retval HAL status
  */
HAL_StatusTypeDef HAL_TIM_Base_Start_IT(TIM_HandleTypeDef *htim)
{
 800610c:	b480      	push	{r7}
 800610e:	b085      	sub	sp, #20
 8006110:	af00      	add	r7, sp, #0
 8006112:	6078      	str	r0, [r7, #4]

  /* Check the parameters */
  assert_param(IS_TIM_INSTANCE(htim->Instance));

  /* Check the TIM state */
  if (htim->State != HAL_TIM_STATE_READY)
 8006114:	687b      	ldr	r3, [r7, #4]
 8006116:	f893 303d 	ldrb.w	r3, [r3, #61]	@ 0x3d
 800611a:	b2db      	uxtb	r3, r3
 800611c:	2b01      	cmp	r3, #1
 800611e:	d001      	beq.n	8006124 <HAL_TIM_Base_Start_IT+0x18>
  {
    return HAL_ERROR;
 8006120:	2301      	movs	r3, #1
 8006122:	e054      	b.n	80061ce <HAL_TIM_Base_Start_IT+0xc2>
  }

  /* Set the TIM state */
  htim->State = HAL_TIM_STATE_BUSY;
 8006124:	687b      	ldr	r3, [r7, #4]
 8006126:	2202      	movs	r2, #2
 8006128:	f883 203d 	strb.w	r2, [r3, #61]	@ 0x3d

  /* Enable the TIM Update interrupt */
  __HAL_TIM_ENABLE_IT(htim, TIM_IT_UPDATE);
 800612c:	687b      	ldr	r3, [r7, #4]
 800612e:	681b      	ldr	r3, [r3, #0]
 8006130:	68da      	ldr	r2, [r3, #12]
 8006132:	687b      	ldr	r3, [r7, #4]
 8006134:	681b      	ldr	r3, [r3, #0]
 8006136:	f042 0201 	orr.w	r2, r2, #1
 800613a:	60da      	str	r2, [r3, #12]

  /* Enable the Peripheral, except in trigger mode where enable is automatically done with trigger */
  if (IS_TIM_SLAVE_INSTANCE(htim->Instance))
 800613c:	687b      	ldr	r3, [r7, #4]
 800613e:	681b      	ldr	r3, [r3, #0]
 8006140:	4a26      	ldr	r2, [pc, #152]	@ (80061dc <HAL_TIM_Base_Start_IT+0xd0>)
 8006142:	4293      	cmp	r3, r2
 8006144:	d022      	beq.n	800618c <HAL_TIM_Base_Start_IT+0x80>
 8006146:	687b      	ldr	r3, [r7, #4]
 8006148:	681b      	ldr	r3, [r3, #0]
 800614a:	f1b3 4f80 	cmp.w	r3, #1073741824	@ 0x40000000
 800614e:	d01d      	beq.n	800618c <HAL_TIM_Base_Start_IT+0x80>
 8006150:	687b      	ldr	r3, [r7, #4]
 8006152:	681b      	ldr	r3, [r3, #0]
 8006154:	4a22      	ldr	r2, [pc, #136]	@ (80061e0 <HAL_TIM_Base_Start_IT+0xd4>)
 8006156:	4293      	cmp	r3, r2
 8006158:	d018      	beq.n	800618c <HAL_TIM_Base_Start_IT+0x80>
 800615a:	687b      	ldr	r3, [r7, #4]
 800615c:	681b      	ldr	r3, [r3, #0]
 800615e:	4a21      	ldr	r2, [pc, #132]	@ (80061e4 <HAL_TIM_Base_Start_IT+0xd8>)
 8006160:	4293      	cmp	r3, r2
 8006162:	d013      	beq.n	800618c <HAL_TIM_Base_Start_IT+0x80>
 8006164:	687b      	ldr	r3, [r7, #4]
 8006166:	681b      	ldr	r3, [r3, #0]
 8006168:	4a1f      	ldr	r2, [pc, #124]	@ (80061e8 <HAL_TIM_Base_Start_IT+0xdc>)
 800616a:	4293      	cmp	r3, r2
 800616c:	d00e      	beq.n	800618c <HAL_TIM_Base_Start_IT+0x80>
 800616e:	687b      	ldr	r3, [r7, #4]
 8006170:	681b      	ldr	r3, [r3, #0]
 8006172:	4a1e      	ldr	r2, [pc, #120]	@ (80061ec <HAL_TIM_Base_Start_IT+0xe0>)
 8006174:	4293      	cmp	r3, r2
 8006176:	d009      	beq.n	800618c <HAL_TIM_Base_Start_IT+0x80>
 8006178:	687b      	ldr	r3, [r7, #4]
 800617a:	681b      	ldr	r3, [r3, #0]
 800617c:	4a1c      	ldr	r2, [pc, #112]	@ (80061f0 <HAL_TIM_Base_Start_IT+0xe4>)
 800617e:	4293      	cmp	r3, r2
 8006180:	d004      	beq.n	800618c <HAL_TIM_Base_Start_IT+0x80>
 8006182:	687b      	ldr	r3, [r7, #4]
 8006184:	681b      	ldr	r3, [r3, #0]
 8006186:	4a1b      	ldr	r2, [pc, #108]	@ (80061f4 <HAL_TIM_Base_Start_IT+0xe8>)
 8006188:	4293      	cmp	r3, r2
 800618a:	d115      	bne.n	80061b8 <HAL_TIM_Base_Start_IT+0xac>
  {
    tmpsmcr = htim->Instance->SMCR & TIM_SMCR_SMS;
 800618c:	687b      	ldr	r3, [r7, #4]
 800618e:	681b      	ldr	r3, [r3, #0]
 8006190:	689a      	ldr	r2, [r3, #8]
 8006192:	4b19      	ldr	r3, [pc, #100]	@ (80061f8 <HAL_TIM_Base_Start_IT+0xec>)
 8006194:	4013      	ands	r3, r2
 8006196:	60fb      	str	r3, [r7, #12]
    if (!IS_TIM_SLAVEMODE_TRIGGER_ENABLED(tmpsmcr))
 8006198:	68fb      	ldr	r3, [r7, #12]
 800619a:	2b06      	cmp	r3, #6
 800619c:	d015      	beq.n	80061ca <HAL_TIM_Base_Start_IT+0xbe>
 800619e:	68fb      	ldr	r3, [r7, #12]
 80061a0:	f5b3 3f80 	cmp.w	r3, #65536	@ 0x10000
 80061a4:	d011      	beq.n	80061ca <HAL_TIM_Base_Start_IT+0xbe>
    {
      __HAL_TIM_ENABLE(htim);
 80061a6:	687b      	ldr	r3, [r7, #4]
 80061a8:	681b      	ldr	r3, [r3, #0]
 80061aa:	681a      	ldr	r2, [r3, #0]
 80061ac:	687b      	ldr	r3, [r7, #4]
 80061ae:	681b      	ldr	r3, [r3, #0]
 80061b0:	f042 0201 	orr.w	r2, r2, #1
 80061b4:	601a      	str	r2, [r3, #0]
    if (!IS_TIM_SLAVEMODE_TRIGGER_ENABLED(tmpsmcr))
 80061b6:	e008      	b.n	80061ca <HAL_TIM_Base_Start_IT+0xbe>
    }
  }
  else
  {
    __HAL_TIM_ENABLE(htim);
 80061b8:	687b      	ldr	r3, [r7, #4]
 80061ba:	681b      	ldr	r3, [r3, #0]
 80061bc:	681a      	ldr	r2, [r3, #0]
 80061be:	687b      	ldr	r3, [r7, #4]
 80061c0:	681b      	ldr	r3, [r3, #0]
 80061c2:	f042 0201 	orr.w	r2, r2, #1
 80061c6:	601a      	str	r2, [r3, #0]
 80061c8:	e000      	b.n	80061cc <HAL_TIM_Base_Start_IT+0xc0>
    if (!IS_TIM_SLAVEMODE_TRIGGER_ENABLED(tmpsmcr))
 80061ca:	bf00      	nop
  }

  /* Return function status */
  return HAL_OK;
 80061cc:	2300      	movs	r3, #0
}
 80061ce:	4618      	mov	r0, r3
 80061d0:	3714      	adds	r7, #20
 80061d2:	46bd      	mov	sp, r7
 80061d4:	f85d 7b04 	ldr.w	r7, [sp], #4
 80061d8:	4770      	bx	lr
 80061da:	bf00      	nop
 80061dc:	40010000 	.word	0x40010000
 80061e0:	40000400 	.word	0x40000400
 80061e4:	40000800 	.word	0x40000800
 80061e8:	40000c00 	.word	0x40000c00
 80061ec:	40010400 	.word	0x40010400
 80061f0:	40014000 	.word	0x40014000
 80061f4:	40001800 	.word	0x40001800
 80061f8:	00010007 	.word	0x00010007

080061fc <HAL_TIM_IRQHandler>:
  * @brief  This function handles TIM interrupts requests.
  * @param  htim TIM  handle
  * @retval None
  */
void HAL_TIM_IRQHandler(TIM_HandleTypeDef *htim)
{
 80061fc:	b580      	push	{r7, lr}
 80061fe:	b084      	sub	sp, #16
 8006200:	af00      	add	r7, sp, #0
 8006202:	6078      	str	r0, [r7, #4]
  uint32_t itsource = htim->Instance->DIER;
 8006204:	687b      	ldr	r3, [r7, #4]
 8006206:	681b      	ldr	r3, [r3, #0]
 8006208:	68db      	ldr	r3, [r3, #12]
 800620a:	60fb      	str	r3, [r7, #12]
  uint32_t itflag   = htim->Instance->SR;
 800620c:	687b      	ldr	r3, [r7, #4]
 800620e:	681b      	ldr	r3, [r3, #0]
 8006210:	691b      	ldr	r3, [r3, #16]
 8006212:	60bb      	str	r3, [r7, #8]

  /* Capture compare 1 event */
  if ((itflag & (TIM_FLAG_CC1)) == (TIM_FLAG_CC1))
 8006214:	68bb      	ldr	r3, [r7, #8]
 8006216:	f003 0302 	and.w	r3, r3, #2
 800621a:	2b00      	cmp	r3, #0
 800621c:	d020      	beq.n	8006260 <HAL_TIM_IRQHandler+0x64>
  {
    if ((itsource & (TIM_IT_CC1)) == (TIM_IT_CC1))
 800621e:	68fb      	ldr	r3, [r7, #12]
 8006220:	f003 0302 	and.w	r3, r3, #2
 8006224:	2b00      	cmp	r3, #0
 8006226:	d01b      	beq.n	8006260 <HAL_TIM_IRQHandler+0x64>
    {
      {
        __HAL_TIM_CLEAR_FLAG(htim, TIM_FLAG_CC1);
 8006228:	687b      	ldr	r3, [r7, #4]
 800622a:	681b      	ldr	r3, [r3, #0]
 800622c:	f06f 0202 	mvn.w	r2, #2
 8006230:	611a      	str	r2, [r3, #16]
        htim->Channel = HAL_TIM_ACTIVE_CHANNEL_1;
 8006232:	687b      	ldr	r3, [r7, #4]
 8006234:	2201      	movs	r2, #1
 8006236:	771a      	strb	r2, [r3, #28]

        /* Input capture event */
        if ((htim->Instance->CCMR1 & TIM_CCMR1_CC1S) != 0x00U)
 8006238:	687b      	ldr	r3, [r7, #4]
 800623a:	681b      	ldr	r3, [r3, #0]
 800623c:	699b      	ldr	r3, [r3, #24]
 800623e:	f003 0303 	and.w	r3, r3, #3
 8006242:	2b00      	cmp	r3, #0
 8006244:	d003      	beq.n	800624e <HAL_TIM_IRQHandler+0x52>
        {
#if (USE_HAL_TIM_REGISTER_CALLBACKS == 1)
          htim->IC_CaptureCallback(htim);
#else
          HAL_TIM_IC_CaptureCallback(htim);
 8006246:	6878      	ldr	r0, [r7, #4]
 8006248:	f000 f9b4 	bl	80065b4 <HAL_TIM_IC_CaptureCallback>
 800624c:	e005      	b.n	800625a <HAL_TIM_IRQHandler+0x5e>
        {
#if (USE_HAL_TIM_REGISTER_CALLBACKS == 1)
          htim->OC_DelayElapsedCallback(htim);
          htim->PWM_PulseFinishedCallback(htim);
#else
          HAL_TIM_OC_DelayElapsedCallback(htim);
 800624e:	6878      	ldr	r0, [r7, #4]
 8006250:	f000 f9a6 	bl	80065a0 <HAL_TIM_OC_DelayElapsedCallback>
          HAL_TIM_PWM_PulseFinishedCallback(htim);
 8006254:	6878      	ldr	r0, [r7, #4]
 8006256:	f000 f9b7 	bl	80065c8 <HAL_TIM_PWM_PulseFinishedCallback>
#endif /* USE_HAL_TIM_REGISTER_CALLBACKS */
        }
        htim->Channel = HAL_TIM_ACTIVE_CHANNEL_CLEARED;
 800625a:	687b      	ldr	r3, [r7, #4]
 800625c:	2200      	movs	r2, #0
 800625e:	771a      	strb	r2, [r3, #28]
      }
    }
  }
  /* Capture compare 2 event */
  if ((itflag & (TIM_FLAG_CC2)) == (TIM_FLAG_CC2))
 8006260:	68bb      	ldr	r3, [r7, #8]
 8006262:	f003 0304 	and.w	r3, r3, #4
 8006266:	2b00      	cmp	r3, #0
 8006268:	d020      	beq.n	80062ac <HAL_TIM_IRQHandler+0xb0>
  {
    if ((itsource & (TIM_IT_CC2)) == (TIM_IT_CC2))
 800626a:	68fb      	ldr	r3, [r7, #12]
 800626c:	f003 0304 	and.w	r3, r3, #4
 8006270:	2b00      	cmp	r3, #0
 8006272:	d01b      	beq.n	80062ac <HAL_TIM_IRQHandler+0xb0>
    {
      __HAL_TIM_CLEAR_FLAG(htim, TIM_FLAG_CC2);
 8006274:	687b      	ldr	r3, [r7, #4]
 8006276:	681b      	ldr	r3, [r3, #0]
 8006278:	f06f 0204 	mvn.w	r2, #4
 800627c:	611a      	str	r2, [r3, #16]
      htim->Channel = HAL_TIM_ACTIVE_CHANNEL_2;
 800627e:	687b      	ldr	r3, [r7, #4]
 8006280:	2202      	movs	r2, #2
 8006282:	771a      	strb	r2, [r3, #28]
      /* Input capture event */
      if ((htim->Instance->CCMR1 & TIM_CCMR1_CC2S) != 0x00U)
 8006284:	687b      	ldr	r3, [r7, #4]
 8006286:	681b      	ldr	r3, [r3, #0]
 8006288:	699b      	ldr	r3, [r3, #24]
 800628a:	f403 7340 	and.w	r3, r3, #768	@ 0x300
 800628e:	2b00      	cmp	r3, #0
 8006290:	d003      	beq.n	800629a <HAL_TIM_IRQHandler+0x9e>
      {
#if (USE_HAL_TIM_REGISTER_CALLBACKS == 1)
        htim->IC_CaptureCallback(htim);
#else
        HAL_TIM_IC_CaptureCallback(htim);
 8006292:	6878      	ldr	r0, [r7, #4]
 8006294:	f000 f98e 	bl	80065b4 <HAL_TIM_IC_CaptureCallback>
 8006298:	e005      	b.n	80062a6 <HAL_TIM_IRQHandler+0xaa>
      {
#if (USE_HAL_TIM_REGISTER_CALLBACKS == 1)
        htim->OC_DelayElapsedCallback(htim);
        htim->PWM_PulseFinishedCallback(htim);
#else
        HAL_TIM_OC_DelayElapsedCallback(htim);
 800629a:	6878      	ldr	r0, [r7, #4]
 800629c:	f000 f980 	bl	80065a0 <HAL_TIM_OC_DelayElapsedCallback>
        HAL_TIM_PWM_PulseFinishedCallback(htim);
 80062a0:	6878      	ldr	r0, [r7, #4]
 80062a2:	f000 f991 	bl	80065c8 <HAL_TIM_PWM_PulseFinishedCallback>
#endif /* USE_HAL_TIM_REGISTER_CALLBACKS */
      }
      htim->Channel = HAL_TIM_ACTIVE_CHANNEL_CLEARED;
 80062a6:	687b      	ldr	r3, [r7, #4]
 80062a8:	2200      	movs	r2, #0
 80062aa:	771a      	strb	r2, [r3, #28]
    }
  }
  /* Capture compare 3 event */
  if ((itflag & (TIM_FLAG_CC3)) == (TIM_FLAG_CC3))
 80062ac:	68bb      	ldr	r3, [r7, #8]
 80062ae:	f003 0308 	and.w	r3, r3, #8
 80062b2:	2b00      	cmp	r3, #0
 80062b4:	d020      	beq.n	80062f8 <HAL_TIM_IRQHandler+0xfc>
  {
    if ((itsource & (TIM_IT_CC3)) == (TIM_IT_CC3))
 80062b6:	68fb      	ldr	r3, [r7, #12]
 80062b8:	f003 0308 	and.w	r3, r3, #8
 80062bc:	2b00      	cmp	r3, #0
 80062be:	d01b      	beq.n	80062f8 <HAL_TIM_IRQHandler+0xfc>
    {
      __HAL_TIM_CLEAR_FLAG(htim, TIM_FLAG_CC3);
 80062c0:	687b      	ldr	r3, [r7, #4]
 80062c2:	681b      	ldr	r3, [r3, #0]
 80062c4:	f06f 0208 	mvn.w	r2, #8
 80062c8:	611a      	str	r2, [r3, #16]
      htim->Channel = HAL_TIM_ACTIVE_CHANNEL_3;
 80062ca:	687b      	ldr	r3, [r7, #4]
 80062cc:	2204      	movs	r2, #4
 80062ce:	771a      	strb	r2, [r3, #28]
      /* Input capture event */
      if ((htim->Instance->CCMR2 & TIM_CCMR2_CC3S) != 0x00U)
 80062d0:	687b      	ldr	r3, [r7, #4]
 80062d2:	681b      	ldr	r3, [r3, #0]
 80062d4:	69db      	ldr	r3, [r3, #28]
 80062d6:	f003 0303 	and.w	r3, r3, #3
 80062da:	2b00      	cmp	r3, #0
 80062dc:	d003      	beq.n	80062e6 <HAL_TIM_IRQHandler+0xea>
      {
#if (USE_HAL_TIM_REGISTER_CALLBACKS == 1)
        htim->IC_CaptureCallback(htim);
#else
        HAL_TIM_IC_CaptureCallback(htim);
 80062de:	6878      	ldr	r0, [r7, #4]
 80062e0:	f000 f968 	bl	80065b4 <HAL_TIM_IC_CaptureCallback>
 80062e4:	e005      	b.n	80062f2 <HAL_TIM_IRQHandler+0xf6>
      {
#if (USE_HAL_TIM_REGISTER_CALLBACKS == 1)
        htim->OC_DelayElapsedCallback(htim);
        htim->PWM_PulseFinishedCallback(htim);
#else
        HAL_TIM_OC_DelayElapsedCallback(htim);
 80062e6:	6878      	ldr	r0, [r7, #4]
 80062e8:	f000 f95a 	bl	80065a0 <HAL_TIM_OC_DelayElapsedCallback>
        HAL_TIM_PWM_PulseFinishedCallback(htim);
 80062ec:	6878      	ldr	r0, [r7, #4]
 80062ee:	f000 f96b 	bl	80065c8 <HAL_TIM_PWM_PulseFinishedCallback>
#endif /* USE_HAL_TIM_REGISTER_CALLBACKS */
      }
      htim->Channel = HAL_TIM_ACTIVE_CHANNEL_CLEARED;
 80062f2:	687b      	ldr	r3, [r7, #4]
 80062f4:	2200      	movs	r2, #0
 80062f6:	771a      	strb	r2, [r3, #28]
    }
  }
  /* Capture compare 4 event */
  if ((itflag & (TIM_FLAG_CC4)) == (TIM_FLAG_CC4))
 80062f8:	68bb      	ldr	r3, [r7, #8]
 80062fa:	f003 0310 	and.w	r3, r3, #16
 80062fe:	2b00      	cmp	r3, #0
 8006300:	d020      	beq.n	8006344 <HAL_TIM_IRQHandler+0x148>
  {
    if ((itsource & (TIM_IT_CC4)) == (TIM_IT_CC4))
 8006302:	68fb      	ldr	r3, [r7, #12]
 8006304:	f003 0310 	and.w	r3, r3, #16
 8006308:	2b00      	cmp	r3, #0
 800630a:	d01b      	beq.n	8006344 <HAL_TIM_IRQHandler+0x148>
    {
      __HAL_TIM_CLEAR_FLAG(htim, TIM_FLAG_CC4);
 800630c:	687b      	ldr	r3, [r7, #4]
 800630e:	681b      	ldr	r3, [r3, #0]
 8006310:	f06f 0210 	mvn.w	r2, #16
 8006314:	611a      	str	r2, [r3, #16]
      htim->Channel = HAL_TIM_ACTIVE_CHANNEL_4;
 8006316:	687b      	ldr	r3, [r7, #4]
 8006318:	2208      	movs	r2, #8
 800631a:	771a      	strb	r2, [r3, #28]
      /* Input capture event */
      if ((htim->Instance->CCMR2 & TIM_CCMR2_CC4S) != 0x00U)
 800631c:	687b      	ldr	r3, [r7, #4]
 800631e:	681b      	ldr	r3, [r3, #0]
 8006320:	69db      	ldr	r3, [r3, #28]
 8006322:	f403 7340 	and.w	r3, r3, #768	@ 0x300
 8006326:	2b00      	cmp	r3, #0
 8006328:	d003      	beq.n	8006332 <HAL_TIM_IRQHandler+0x136>
      {
#if (USE_HAL_TIM_REGISTER_CALLBACKS == 1)
        htim->IC_CaptureCallback(htim);
#else
        HAL_TIM_IC_CaptureCallback(htim);
 800632a:	6878      	ldr	r0, [r7, #4]
 800632c:	f000 f942 	bl	80065b4 <HAL_TIM_IC_CaptureCallback>
 8006330:	e005      	b.n	800633e <HAL_TIM_IRQHandler+0x142>
      {
#if (USE_HAL_TIM_REGISTER_CALLBACKS == 1)
        htim->OC_DelayElapsedCallback(htim);
        htim->PWM_PulseFinishedCallback(htim);
#else
        HAL_TIM_OC_DelayElapsedCallback(htim);
 8006332:	6878      	ldr	r0, [r7, #4]
 8006334:	f000 f934 	bl	80065a0 <HAL_TIM_OC_DelayElapsedCallback>
        HAL_TIM_PWM_PulseFinishedCallback(htim);
 8006338:	6878      	ldr	r0, [r7, #4]
 800633a:	f000 f945 	bl	80065c8 <HAL_TIM_PWM_PulseFinishedCallback>
#endif /* USE_HAL_TIM_REGISTER_CALLBACKS */
      }
      htim->Channel = HAL_TIM_ACTIVE_CHANNEL_CLEARED;
 800633e:	687b      	ldr	r3, [r7, #4]
 8006340:	2200      	movs	r2, #0
 8006342:	771a      	strb	r2, [r3, #28]
    }
  }
  /* TIM Update event */
  if ((itflag & (TIM_FLAG_UPDATE)) == (TIM_FLAG_UPDATE))
 8006344:	68bb      	ldr	r3, [r7, #8]
 8006346:	f003 0301 	and.w	r3, r3, #1
 800634a:	2b00      	cmp	r3, #0
 800634c:	d00c      	beq.n	8006368 <HAL_TIM_IRQHandler+0x16c>
  {
    if ((itsource & (TIM_IT_UPDATE)) == (TIM_IT_UPDATE))
 800634e:	68fb      	ldr	r3, [r7, #12]
 8006350:	f003 0301 	and.w	r3, r3, #1
 8006354:	2b00      	cmp	r3, #0
 8006356:	d007      	beq.n	8006368 <HAL_TIM_IRQHandler+0x16c>
    {
      __HAL_TIM_CLEAR_FLAG(htim, TIM_FLAG_UPDATE);
 8006358:	687b      	ldr	r3, [r7, #4]
 800635a:	681b      	ldr	r3, [r3, #0]
 800635c:	f06f 0201 	mvn.w	r2, #1
 8006360:	611a      	str	r2, [r3, #16]
#if (USE_HAL_TIM_REGISTER_CALLBACKS == 1)
      htim->PeriodElapsedCallback(htim);
#else
      HAL_TIM_PeriodElapsedCallback(htim);
 8006362:	6878      	ldr	r0, [r7, #4]
 8006364:	f7fc fabc 	bl	80028e0 <HAL_TIM_PeriodElapsedCallback>
#endif /* USE_HAL_TIM_REGISTER_CALLBACKS */
    }
  }
  /* TIM Break input event */
  if (((itflag & (TIM_FLAG_BREAK)) == (TIM_FLAG_BREAK)) || \
 8006368:	68bb      	ldr	r3, [r7, #8]
 800636a:	f003 0380 	and.w	r3, r3, #128	@ 0x80
 800636e:	2b00      	cmp	r3, #0
 8006370:	d104      	bne.n	800637c <HAL_TIM_IRQHandler+0x180>
      ((itflag & (TIM_FLAG_SYSTEM_BREAK)) == (TIM_FLAG_SYSTEM_BREAK)))
 8006372:	68bb      	ldr	r3, [r7, #8]
 8006374:	f403 5300 	and.w	r3, r3, #8192	@ 0x2000
  if (((itflag & (TIM_FLAG_BREAK)) == (TIM_FLAG_BREAK)) || \
 8006378:	2b00      	cmp	r3, #0
 800637a:	d00c      	beq.n	8006396 <HAL_TIM_IRQHandler+0x19a>
  {
    if ((itsource & (TIM_IT_BREAK)) == (TIM_IT_BREAK))
 800637c:	68fb      	ldr	r3, [r7, #12]
 800637e:	f003 0380 	and.w	r3, r3, #128	@ 0x80
 8006382:	2b00      	cmp	r3, #0
 8006384:	d007      	beq.n	8006396 <HAL_TIM_IRQHandler+0x19a>
    {
      __HAL_TIM_CLEAR_FLAG(htim, TIM_FLAG_BREAK | TIM_FLAG_SYSTEM_BREAK);
 8006386:	687b      	ldr	r3, [r7, #4]
 8006388:	681b      	ldr	r3, [r3, #0]
 800638a:	f46f 5202 	mvn.w	r2, #8320	@ 0x2080
 800638e:	611a      	str	r2, [r3, #16]
#if (USE_HAL_TIM_REGISTER_CALLBACKS == 1)
      htim->BreakCallback(htim);
#else
      HAL_TIMEx_BreakCallback(htim);
 8006390:	6878      	ldr	r0, [r7, #4]
 8006392:	f000 fb05 	bl	80069a0 <HAL_TIMEx_BreakCallback>
#endif /* USE_HAL_TIM_REGISTER_CALLBACKS */
    }
  }
  /* TIM Break2 input event */
  if ((itflag & (TIM_FLAG_BREAK2)) == (TIM_FLAG_BREAK2))
 8006396:	68bb      	ldr	r3, [r7, #8]
 8006398:	f403 7380 	and.w	r3, r3, #256	@ 0x100
 800639c:	2b00      	cmp	r3, #0
 800639e:	d00c      	beq.n	80063ba <HAL_TIM_IRQHandler+0x1be>
  {
    if ((itsource & (TIM_IT_BREAK)) == (TIM_IT_BREAK))
 80063a0:	68fb      	ldr	r3, [r7, #12]
 80063a2:	f003 0380 	and.w	r3, r3, #128	@ 0x80
 80063a6:	2b00      	cmp	r3, #0
 80063a8:	d007      	beq.n	80063ba <HAL_TIM_IRQHandler+0x1be>
    {
      __HAL_TIM_CLEAR_FLAG(htim, TIM_FLAG_BREAK2);
 80063aa:	687b      	ldr	r3, [r7, #4]
 80063ac:	681b      	ldr	r3, [r3, #0]
 80063ae:	f46f 7280 	mvn.w	r2, #256	@ 0x100
 80063b2:	611a      	str	r2, [r3, #16]
#if (USE_HAL_TIM_REGISTER_CALLBACKS == 1)
      htim->Break2Callback(htim);
#else
      HAL_TIMEx_Break2Callback(htim);
 80063b4:	6878      	ldr	r0, [r7, #4]
 80063b6:	f000 fafd 	bl	80069b4 <HAL_TIMEx_Break2Callback>
#endif /* USE_HAL_TIM_REGISTER_CALLBACKS */
    }
  }
  /* TIM Trigger detection event */
  if ((itflag & (TIM_FLAG_TRIGGER)) == (TIM_FLAG_TRIGGER))
 80063ba:	68bb      	ldr	r3, [r7, #8]
 80063bc:	f003 0340 	and.w	r3, r3, #64	@ 0x40
 80063c0:	2b00      	cmp	r3, #0
 80063c2:	d00c      	beq.n	80063de <HAL_TIM_IRQHandler+0x1e2>
  {
    if ((itsource & (TIM_IT_TRIGGER)) == (TIM_IT_TRIGGER))
 80063c4:	68fb      	ldr	r3, [r7, #12]
 80063c6:	f003 0340 	and.w	r3, r3, #64	@ 0x40
 80063ca:	2b00      	cmp	r3, #0
 80063cc:	d007      	beq.n	80063de <HAL_TIM_IRQHandler+0x1e2>
    {
      __HAL_TIM_CLEAR_FLAG(htim, TIM_FLAG_TRIGGER);
 80063ce:	687b      	ldr	r3, [r7, #4]
 80063d0:	681b      	ldr	r3, [r3, #0]
 80063d2:	f06f 0240 	mvn.w	r2, #64	@ 0x40
 80063d6:	611a      	str	r2, [r3, #16]
#if (USE_HAL_TIM_REGISTER_CALLBACKS == 1)
      htim->TriggerCallback(htim);
#else
      HAL_TIM_TriggerCallback(htim);
 80063d8:	6878      	ldr	r0, [r7, #4]
 80063da:	f000 f8ff 	bl	80065dc <HAL_TIM_TriggerCallback>
#endif /* USE_HAL_TIM_REGISTER_CALLBACKS */
    }
  }
  /* TIM commutation event */
  if ((itflag & (TIM_FLAG_COM)) == (TIM_FLAG_COM))
 80063de:	68bb      	ldr	r3, [r7, #8]
 80063e0:	f003 0320 	and.w	r3, r3, #32
 80063e4:	2b00      	cmp	r3, #0
 80063e6:	d00c      	beq.n	8006402 <HAL_TIM_IRQHandler+0x206>
  {
    if ((itsource & (TIM_IT_COM)) == (TIM_IT_COM))
 80063e8:	68fb      	ldr	r3, [r7, #12]
 80063ea:	f003 0320 	and.w	r3, r3, #32
 80063ee:	2b00      	cmp	r3, #0
 80063f0:	d007      	beq.n	8006402 <HAL_TIM_IRQHandler+0x206>
    {
      __HAL_TIM_CLEAR_FLAG(htim, TIM_FLAG_COM);
 80063f2:	687b      	ldr	r3, [r7, #4]
 80063f4:	681b      	ldr	r3, [r3, #0]
 80063f6:	f06f 0220 	mvn.w	r2, #32
 80063fa:	611a      	str	r2, [r3, #16]
#if (USE_HAL_TIM_REGISTER_CALLBACKS == 1)
      htim->CommutationCallback(htim);
#else
      HAL_TIMEx_CommutCallback(htim);
 80063fc:	6878      	ldr	r0, [r7, #4]
 80063fe:	f000 fac5 	bl	800698c <HAL_TIMEx_CommutCallback>
#endif /* USE_HAL_TIM_REGISTER_CALLBACKS */
    }
  }
}
 8006402:	bf00      	nop
 8006404:	3710      	adds	r7, #16
 8006406:	46bd      	mov	sp, r7
 8006408:	bd80      	pop	{r7, pc}
	...

0800640c <HAL_TIM_ConfigClockSource>:
  * @param  sClockSourceConfig pointer to a TIM_ClockConfigTypeDef structure that
  *         contains the clock source information for the TIM peripheral.
  * @retval HAL status
  */
HAL_StatusTypeDef HAL_TIM_ConfigClockSource(TIM_HandleTypeDef *htim, const TIM_ClockConfigTypeDef *sClockSourceConfig)
{
 800640c:	b580      	push	{r7, lr}
 800640e:	b084      	sub	sp, #16
 8006410:	af00      	add	r7, sp, #0
 8006412:	6078      	str	r0, [r7, #4]
 8006414:	6039      	str	r1, [r7, #0]
  HAL_StatusTypeDef status = HAL_OK;
 8006416:	2300      	movs	r3, #0
 8006418:	73fb      	strb	r3, [r7, #15]
  uint32_t tmpsmcr;

  /* Process Locked */
  __HAL_LOCK(htim);
 800641a:	687b      	ldr	r3, [r7, #4]
 800641c:	f893 303c 	ldrb.w	r3, [r3, #60]	@ 0x3c
 8006420:	2b01      	cmp	r3, #1
 8006422:	d101      	bne.n	8006428 <HAL_TIM_ConfigClockSource+0x1c>
 8006424:	2302      	movs	r3, #2
 8006426:	e0b4      	b.n	8006592 <HAL_TIM_ConfigClockSource+0x186>
 8006428:	687b      	ldr	r3, [r7, #4]
 800642a:	2201      	movs	r2, #1
 800642c:	f883 203c 	strb.w	r2, [r3, #60]	@ 0x3c

  htim->State = HAL_TIM_STATE_BUSY;
 8006430:	687b      	ldr	r3, [r7, #4]
 8006432:	2202      	movs	r2, #2
 8006434:	f883 203d 	strb.w	r2, [r3, #61]	@ 0x3d

  /* Check the parameters */
  assert_param(IS_TIM_CLOCKSOURCE(sClockSourceConfig->ClockSource));

  /* Reset the SMS, TS, ECE, ETPS and ETRF bits */
  tmpsmcr = htim->Instance->SMCR;
 8006438:	687b      	ldr	r3, [r7, #4]
 800643a:	681b      	ldr	r3, [r3, #0]
 800643c:	689b      	ldr	r3, [r3, #8]
 800643e:	60bb      	str	r3, [r7, #8]
  tmpsmcr &= ~(TIM_SMCR_SMS | TIM_SMCR_TS);
 8006440:	68ba      	ldr	r2, [r7, #8]
 8006442:	4b56      	ldr	r3, [pc, #344]	@ (800659c <HAL_TIM_ConfigClockSource+0x190>)
 8006444:	4013      	ands	r3, r2
 8006446:	60bb      	str	r3, [r7, #8]
  tmpsmcr &= ~(TIM_SMCR_ETF | TIM_SMCR_ETPS | TIM_SMCR_ECE | TIM_SMCR_ETP);
 8006448:	68bb      	ldr	r3, [r7, #8]
 800644a:	f423 437f 	bic.w	r3, r3, #65280	@ 0xff00
 800644e:	60bb      	str	r3, [r7, #8]
  htim->Instance->SMCR = tmpsmcr;
 8006450:	687b      	ldr	r3, [r7, #4]
 8006452:	681b      	ldr	r3, [r3, #0]
 8006454:	68ba      	ldr	r2, [r7, #8]
 8006456:	609a      	str	r2, [r3, #8]

  switch (sClockSourceConfig->ClockSource)
 8006458:	683b      	ldr	r3, [r7, #0]
 800645a:	681b      	ldr	r3, [r3, #0]
 800645c:	f5b3 5f00 	cmp.w	r3, #8192	@ 0x2000
 8006460:	d03e      	beq.n	80064e0 <HAL_TIM_ConfigClockSource+0xd4>
 8006462:	f5b3 5f00 	cmp.w	r3, #8192	@ 0x2000
 8006466:	f200 8087 	bhi.w	8006578 <HAL_TIM_ConfigClockSource+0x16c>
 800646a:	f5b3 5f80 	cmp.w	r3, #4096	@ 0x1000
 800646e:	f000 8086 	beq.w	800657e <HAL_TIM_ConfigClockSource+0x172>
 8006472:	f5b3 5f80 	cmp.w	r3, #4096	@ 0x1000
 8006476:	d87f      	bhi.n	8006578 <HAL_TIM_ConfigClockSource+0x16c>
 8006478:	2b70      	cmp	r3, #112	@ 0x70
 800647a:	d01a      	beq.n	80064b2 <HAL_TIM_ConfigClockSource+0xa6>
 800647c:	2b70      	cmp	r3, #112	@ 0x70
 800647e:	d87b      	bhi.n	8006578 <HAL_TIM_ConfigClockSource+0x16c>
 8006480:	2b60      	cmp	r3, #96	@ 0x60
 8006482:	d050      	beq.n	8006526 <HAL_TIM_ConfigClockSource+0x11a>
 8006484:	2b60      	cmp	r3, #96	@ 0x60
 8006486:	d877      	bhi.n	8006578 <HAL_TIM_ConfigClockSource+0x16c>
 8006488:	2b50      	cmp	r3, #80	@ 0x50
 800648a:	d03c      	beq.n	8006506 <HAL_TIM_ConfigClockSource+0xfa>
 800648c:	2b50      	cmp	r3, #80	@ 0x50
 800648e:	d873      	bhi.n	8006578 <HAL_TIM_ConfigClockSource+0x16c>
 8006490:	2b40      	cmp	r3, #64	@ 0x40
 8006492:	d058      	beq.n	8006546 <HAL_TIM_ConfigClockSource+0x13a>
 8006494:	2b40      	cmp	r3, #64	@ 0x40
 8006496:	d86f      	bhi.n	8006578 <HAL_TIM_ConfigClockSource+0x16c>
 8006498:	2b30      	cmp	r3, #48	@ 0x30
 800649a:	d064      	beq.n	8006566 <HAL_TIM_ConfigClockSource+0x15a>
 800649c:	2b30      	cmp	r3, #48	@ 0x30
 800649e:	d86b      	bhi.n	8006578 <HAL_TIM_ConfigClockSource+0x16c>
 80064a0:	2b20      	cmp	r3, #32
 80064a2:	d060      	beq.n	8006566 <HAL_TIM_ConfigClockSource+0x15a>
 80064a4:	2b20      	cmp	r3, #32
 80064a6:	d867      	bhi.n	8006578 <HAL_TIM_ConfigClockSource+0x16c>
 80064a8:	2b00      	cmp	r3, #0
 80064aa:	d05c      	beq.n	8006566 <HAL_TIM_ConfigClockSource+0x15a>
 80064ac:	2b10      	cmp	r3, #16
 80064ae:	d05a      	beq.n	8006566 <HAL_TIM_ConfigClockSource+0x15a>
 80064b0:	e062      	b.n	8006578 <HAL_TIM_ConfigClockSource+0x16c>
      assert_param(IS_TIM_CLOCKPRESCALER(sClockSourceConfig->ClockPrescaler));
      assert_param(IS_TIM_CLOCKPOLARITY(sClockSourceConfig->ClockPolarity));
      assert_param(IS_TIM_CLOCKFILTER(sClockSourceConfig->ClockFilter));

      /* Configure the ETR Clock source */
      TIM_ETR_SetConfig(htim->Instance,
 80064b2:	687b      	ldr	r3, [r7, #4]
 80064b4:	6818      	ldr	r0, [r3, #0]
                        sClockSourceConfig->ClockPrescaler,
 80064b6:	683b      	ldr	r3, [r7, #0]
 80064b8:	6899      	ldr	r1, [r3, #8]
                        sClockSourceConfig->ClockPolarity,
 80064ba:	683b      	ldr	r3, [r7, #0]
 80064bc:	685a      	ldr	r2, [r3, #4]
                        sClockSourceConfig->ClockFilter);
 80064be:	683b      	ldr	r3, [r7, #0]
 80064c0:	68db      	ldr	r3, [r3, #12]
      TIM_ETR_SetConfig(htim->Instance,
 80064c2:	f000 f9b5 	bl	8006830 <TIM_ETR_SetConfig>

      /* Select the External clock mode1 and the ETRF trigger */
      tmpsmcr = htim->Instance->SMCR;
 80064c6:	687b      	ldr	r3, [r7, #4]
 80064c8:	681b      	ldr	r3, [r3, #0]
 80064ca:	689b      	ldr	r3, [r3, #8]
 80064cc:	60bb      	str	r3, [r7, #8]
      tmpsmcr |= (TIM_SLAVEMODE_EXTERNAL1 | TIM_CLOCKSOURCE_ETRMODE1);
 80064ce:	68bb      	ldr	r3, [r7, #8]
 80064d0:	f043 0377 	orr.w	r3, r3, #119	@ 0x77
 80064d4:	60bb      	str	r3, [r7, #8]
      /* Write to TIMx SMCR */
      htim->Instance->SMCR = tmpsmcr;
 80064d6:	687b      	ldr	r3, [r7, #4]
 80064d8:	681b      	ldr	r3, [r3, #0]
 80064da:	68ba      	ldr	r2, [r7, #8]
 80064dc:	609a      	str	r2, [r3, #8]
      break;
 80064de:	e04f      	b.n	8006580 <HAL_TIM_ConfigClockSource+0x174>
      assert_param(IS_TIM_CLOCKPRESCALER(sClockSourceConfig->ClockPrescaler));
      assert_param(IS_TIM_CLOCKPOLARITY(sClockSourceConfig->ClockPolarity));
      assert_param(IS_TIM_CLOCKFILTER(sClockSourceConfig->ClockFilter));

      /* Configure the ETR Clock source */
      TIM_ETR_SetConfig(htim->Instance,
 80064e0:	687b      	ldr	r3, [r7, #4]
 80064e2:	6818      	ldr	r0, [r3, #0]
                        sClockSourceConfig->ClockPrescaler,
 80064e4:	683b      	ldr	r3, [r7, #0]
 80064e6:	6899      	ldr	r1, [r3, #8]
                        sClockSourceConfig->ClockPolarity,
 80064e8:	683b      	ldr	r3, [r7, #0]
 80064ea:	685a      	ldr	r2, [r3, #4]
                        sClockSourceConfig->ClockFilter);
 80064ec:	683b      	ldr	r3, [r7, #0]
 80064ee:	68db      	ldr	r3, [r3, #12]
      TIM_ETR_SetConfig(htim->Instance,
 80064f0:	f000 f99e 	bl	8006830 <TIM_ETR_SetConfig>
      /* Enable the External clock mode2 */
      htim->Instance->SMCR |= TIM_SMCR_ECE;
 80064f4:	687b      	ldr	r3, [r7, #4]
 80064f6:	681b      	ldr	r3, [r3, #0]
 80064f8:	689a      	ldr	r2, [r3, #8]
 80064fa:	687b      	ldr	r3, [r7, #4]
 80064fc:	681b      	ldr	r3, [r3, #0]
 80064fe:	f442 4280 	orr.w	r2, r2, #16384	@ 0x4000
 8006502:	609a      	str	r2, [r3, #8]
      break;
 8006504:	e03c      	b.n	8006580 <HAL_TIM_ConfigClockSource+0x174>

      /* Check TI1 input conditioning related parameters */
      assert_param(IS_TIM_CLOCKPOLARITY(sClockSourceConfig->ClockPolarity));
      assert_param(IS_TIM_CLOCKFILTER(sClockSourceConfig->ClockFilter));

      TIM_TI1_ConfigInputStage(htim->Instance,
 8006506:	687b      	ldr	r3, [r7, #4]
 8006508:	6818      	ldr	r0, [r3, #0]
                               sClockSourceConfig->ClockPolarity,
 800650a:	683b      	ldr	r3, [r7, #0]
 800650c:	6859      	ldr	r1, [r3, #4]
                               sClockSourceConfig->ClockFilter);
 800650e:	683b      	ldr	r3, [r7, #0]
 8006510:	68db      	ldr	r3, [r3, #12]
      TIM_TI1_ConfigInputStage(htim->Instance,
 8006512:	461a      	mov	r2, r3
 8006514:	f000 f912 	bl	800673c <TIM_TI1_ConfigInputStage>
      TIM_ITRx_SetConfig(htim->Instance, TIM_CLOCKSOURCE_TI1);
 8006518:	687b      	ldr	r3, [r7, #4]
 800651a:	681b      	ldr	r3, [r3, #0]
 800651c:	2150      	movs	r1, #80	@ 0x50
 800651e:	4618      	mov	r0, r3
 8006520:	f000 f96b 	bl	80067fa <TIM_ITRx_SetConfig>
      break;
 8006524:	e02c      	b.n	8006580 <HAL_TIM_ConfigClockSource+0x174>

      /* Check TI2 input conditioning related parameters */
      assert_param(IS_TIM_CLOCKPOLARITY(sClockSourceConfig->ClockPolarity));
      assert_param(IS_TIM_CLOCKFILTER(sClockSourceConfig->ClockFilter));

      TIM_TI2_ConfigInputStage(htim->Instance,
 8006526:	687b      	ldr	r3, [r7, #4]
 8006528:	6818      	ldr	r0, [r3, #0]
                               sClockSourceConfig->ClockPolarity,
 800652a:	683b      	ldr	r3, [r7, #0]
 800652c:	6859      	ldr	r1, [r3, #4]
                               sClockSourceConfig->ClockFilter);
 800652e:	683b      	ldr	r3, [r7, #0]
 8006530:	68db      	ldr	r3, [r3, #12]
      TIM_TI2_ConfigInputStage(htim->Instance,
 8006532:	461a      	mov	r2, r3
 8006534:	f000 f931 	bl	800679a <TIM_TI2_ConfigInputStage>
      TIM_ITRx_SetConfig(htim->Instance, TIM_CLOCKSOURCE_TI2);
 8006538:	687b      	ldr	r3, [r7, #4]
 800653a:	681b      	ldr	r3, [r3, #0]
 800653c:	2160      	movs	r1, #96	@ 0x60
 800653e:	4618      	mov	r0, r3
 8006540:	f000 f95b 	bl	80067fa <TIM_ITRx_SetConfig>
      break;
 8006544:	e01c      	b.n	8006580 <HAL_TIM_ConfigClockSource+0x174>

      /* Check TI1 input conditioning related parameters */
      assert_param(IS_TIM_CLOCKPOLARITY(sClockSourceConfig->ClockPolarity));
      assert_param(IS_TIM_CLOCKFILTER(sClockSourceConfig->ClockFilter));

      TIM_TI1_ConfigInputStage(htim->Instance,
 8006546:	687b      	ldr	r3, [r7, #4]
 8006548:	6818      	ldr	r0, [r3, #0]
                               sClockSourceConfig->ClockPolarity,
 800654a:	683b      	ldr	r3, [r7, #0]
 800654c:	6859      	ldr	r1, [r3, #4]
                               sClockSourceConfig->ClockFilter);
 800654e:	683b      	ldr	r3, [r7, #0]
 8006550:	68db      	ldr	r3, [r3, #12]
      TIM_TI1_ConfigInputStage(htim->Instance,
 8006552:	461a      	mov	r2, r3
 8006554:	f000 f8f2 	bl	800673c <TIM_TI1_ConfigInputStage>
      TIM_ITRx_SetConfig(htim->Instance, TIM_CLOCKSOURCE_TI1ED);
 8006558:	687b      	ldr	r3, [r7, #4]
 800655a:	681b      	ldr	r3, [r3, #0]
 800655c:	2140      	movs	r1, #64	@ 0x40
 800655e:	4618      	mov	r0, r3
 8006560:	f000 f94b 	bl	80067fa <TIM_ITRx_SetConfig>
      break;
 8006564:	e00c      	b.n	8006580 <HAL_TIM_ConfigClockSource+0x174>
    case TIM_CLOCKSOURCE_ITR3:
    {
      /* Check whether or not the timer instance supports internal trigger input */
      assert_param(IS_TIM_CLOCKSOURCE_ITRX_INSTANCE(htim->Instance));

      TIM_ITRx_SetConfig(htim->Instance, sClockSourceConfig->ClockSource);
 8006566:	687b      	ldr	r3, [r7, #4]
 8006568:	681a      	ldr	r2, [r3, #0]
 800656a:	683b      	ldr	r3, [r7, #0]
 800656c:	681b      	ldr	r3, [r3, #0]
 800656e:	4619      	mov	r1, r3
 8006570:	4610      	mov	r0, r2
 8006572:	f000 f942 	bl	80067fa <TIM_ITRx_SetConfig>
      break;
 8006576:	e003      	b.n	8006580 <HAL_TIM_ConfigClockSource+0x174>
    }

    default:
      status = HAL_ERROR;
 8006578:	2301      	movs	r3, #1
 800657a:	73fb      	strb	r3, [r7, #15]
      break;
 800657c:	e000      	b.n	8006580 <HAL_TIM_ConfigClockSource+0x174>
      break;
 800657e:	bf00      	nop
  }
  htim->State = HAL_TIM_STATE_READY;
 8006580:	687b      	ldr	r3, [r7, #4]
 8006582:	2201      	movs	r2, #1
 8006584:	f883 203d 	strb.w	r2, [r3, #61]	@ 0x3d

  __HAL_UNLOCK(htim);
 8006588:	687b      	ldr	r3, [r7, #4]
 800658a:	2200      	movs	r2, #0
 800658c:	f883 203c 	strb.w	r2, [r3, #60]	@ 0x3c

  return status;
 8006590:	7bfb      	ldrb	r3, [r7, #15]
}
 8006592:	4618      	mov	r0, r3
 8006594:	3710      	adds	r7, #16
 8006596:	46bd      	mov	sp, r7
 8006598:	bd80      	pop	{r7, pc}
 800659a:	bf00      	nop
 800659c:	fffeff88 	.word	0xfffeff88

080065a0 <HAL_TIM_OC_DelayElapsedCallback>:
  * @brief  Output Compare callback in non-blocking mode
  * @param  htim TIM OC handle
  * @retval None
  */
__weak void HAL_TIM_OC_DelayElapsedCallback(TIM_HandleTypeDef *htim)
{
 80065a0:	b480      	push	{r7}
 80065a2:	b083      	sub	sp, #12
 80065a4:	af00      	add	r7, sp, #0
 80065a6:	6078      	str	r0, [r7, #4]
  UNUSED(htim);

  /* NOTE : This function should not be modified, when the callback is needed,
            the HAL_TIM_OC_DelayElapsedCallback could be implemented in the user file
   */
}
 80065a8:	bf00      	nop
 80065aa:	370c      	adds	r7, #12
 80065ac:	46bd      	mov	sp, r7
 80065ae:	f85d 7b04 	ldr.w	r7, [sp], #4
 80065b2:	4770      	bx	lr

080065b4 <HAL_TIM_IC_CaptureCallback>:
  * @brief  Input Capture callback in non-blocking mode
  * @param  htim TIM IC handle
  * @retval None
  */
__weak void HAL_TIM_IC_CaptureCallback(TIM_HandleTypeDef *htim)
{
 80065b4:	b480      	push	{r7}
 80065b6:	b083      	sub	sp, #12
 80065b8:	af00      	add	r7, sp, #0
 80065ba:	6078      	str	r0, [r7, #4]
  UNUSED(htim);

  /* NOTE : This function should not be modified, when the callback is needed,
            the HAL_TIM_IC_CaptureCallback could be implemented in the user file
   */
}
 80065bc:	bf00      	nop
 80065be:	370c      	adds	r7, #12
 80065c0:	46bd      	mov	sp, r7
 80065c2:	f85d 7b04 	ldr.w	r7, [sp], #4
 80065c6:	4770      	bx	lr

080065c8 <HAL_TIM_PWM_PulseFinishedCallback>:
  * @brief  PWM Pulse finished callback in non-blocking mode
  * @param  htim TIM handle
  * @retval None
  */
__weak void HAL_TIM_PWM_PulseFinishedCallback(TIM_HandleTypeDef *htim)
{
 80065c8:	b480      	push	{r7}
 80065ca:	b083      	sub	sp, #12
 80065cc:	af00      	add	r7, sp, #0
 80065ce:	6078      	str	r0, [r7, #4]
  UNUSED(htim);

  /* NOTE : This function should not be modified, when the callback is needed,
            the HAL_TIM_PWM_PulseFinishedCallback could be implemented in the user file
   */
}
 80065d0:	bf00      	nop
 80065d2:	370c      	adds	r7, #12
 80065d4:	46bd      	mov	sp, r7
 80065d6:	f85d 7b04 	ldr.w	r7, [sp], #4
 80065da:	4770      	bx	lr

080065dc <HAL_TIM_TriggerCallback>:
  * @brief  Hall Trigger detection callback in non-blocking mode
  * @param  htim TIM handle
  * @retval None
  */
__weak void HAL_TIM_TriggerCallback(TIM_HandleTypeDef *htim)
{
 80065dc:	b480      	push	{r7}
 80065de:	b083      	sub	sp, #12
 80065e0:	af00      	add	r7, sp, #0
 80065e2:	6078      	str	r0, [r7, #4]
  UNUSED(htim);

  /* NOTE : This function should not be modified, when the callback is needed,
            the HAL_TIM_TriggerCallback could be implemented in the user file
   */
}
 80065e4:	bf00      	nop
 80065e6:	370c      	adds	r7, #12
 80065e8:	46bd      	mov	sp, r7
 80065ea:	f85d 7b04 	ldr.w	r7, [sp], #4
 80065ee:	4770      	bx	lr

080065f0 <TIM_Base_SetConfig>:
  * @param  TIMx TIM peripheral
  * @param  Structure TIM Base configuration structure
  * @retval None
  */
void TIM_Base_SetConfig(TIM_TypeDef *TIMx, const TIM_Base_InitTypeDef *Structure)
{
 80065f0:	b480      	push	{r7}
 80065f2:	b085      	sub	sp, #20
 80065f4:	af00      	add	r7, sp, #0
 80065f6:	6078      	str	r0, [r7, #4]
 80065f8:	6039      	str	r1, [r7, #0]
  uint32_t tmpcr1;
  tmpcr1 = TIMx->CR1;
 80065fa:	687b      	ldr	r3, [r7, #4]
 80065fc:	681b      	ldr	r3, [r3, #0]
 80065fe:	60fb      	str	r3, [r7, #12]

  /* Set TIM Time Base Unit parameters ---------------------------------------*/
  if (IS_TIM_COUNTER_MODE_SELECT_INSTANCE(TIMx))
 8006600:	687b      	ldr	r3, [r7, #4]
 8006602:	4a43      	ldr	r2, [pc, #268]	@ (8006710 <TIM_Base_SetConfig+0x120>)
 8006604:	4293      	cmp	r3, r2
 8006606:	d013      	beq.n	8006630 <TIM_Base_SetConfig+0x40>
 8006608:	687b      	ldr	r3, [r7, #4]
 800660a:	f1b3 4f80 	cmp.w	r3, #1073741824	@ 0x40000000
 800660e:	d00f      	beq.n	8006630 <TIM_Base_SetConfig+0x40>
 8006610:	687b      	ldr	r3, [r7, #4]
 8006612:	4a40      	ldr	r2, [pc, #256]	@ (8006714 <TIM_Base_SetConfig+0x124>)
 8006614:	4293      	cmp	r3, r2
 8006616:	d00b      	beq.n	8006630 <TIM_Base_SetConfig+0x40>
 8006618:	687b      	ldr	r3, [r7, #4]
 800661a:	4a3f      	ldr	r2, [pc, #252]	@ (8006718 <TIM_Base_SetConfig+0x128>)
 800661c:	4293      	cmp	r3, r2
 800661e:	d007      	beq.n	8006630 <TIM_Base_SetConfig+0x40>
 8006620:	687b      	ldr	r3, [r7, #4]
 8006622:	4a3e      	ldr	r2, [pc, #248]	@ (800671c <TIM_Base_SetConfig+0x12c>)
 8006624:	4293      	cmp	r3, r2
 8006626:	d003      	beq.n	8006630 <TIM_Base_SetConfig+0x40>
 8006628:	687b      	ldr	r3, [r7, #4]
 800662a:	4a3d      	ldr	r2, [pc, #244]	@ (8006720 <TIM_Base_SetConfig+0x130>)
 800662c:	4293      	cmp	r3, r2
 800662e:	d108      	bne.n	8006642 <TIM_Base_SetConfig+0x52>
  {
    /* Select the Counter Mode */
    tmpcr1 &= ~(TIM_CR1_DIR | TIM_CR1_CMS);
 8006630:	68fb      	ldr	r3, [r7, #12]
 8006632:	f023 0370 	bic.w	r3, r3, #112	@ 0x70
 8006636:	60fb      	str	r3, [r7, #12]
    tmpcr1 |= Structure->CounterMode;
 8006638:	683b      	ldr	r3, [r7, #0]
 800663a:	685b      	ldr	r3, [r3, #4]
 800663c:	68fa      	ldr	r2, [r7, #12]
 800663e:	4313      	orrs	r3, r2
 8006640:	60fb      	str	r3, [r7, #12]
  }

  if (IS_TIM_CLOCK_DIVISION_INSTANCE(TIMx))
 8006642:	687b      	ldr	r3, [r7, #4]
 8006644:	4a32      	ldr	r2, [pc, #200]	@ (8006710 <TIM_Base_SetConfig+0x120>)
 8006646:	4293      	cmp	r3, r2
 8006648:	d02b      	beq.n	80066a2 <TIM_Base_SetConfig+0xb2>
 800664a:	687b      	ldr	r3, [r7, #4]
 800664c:	f1b3 4f80 	cmp.w	r3, #1073741824	@ 0x40000000
 8006650:	d027      	beq.n	80066a2 <TIM_Base_SetConfig+0xb2>
 8006652:	687b      	ldr	r3, [r7, #4]
 8006654:	4a2f      	ldr	r2, [pc, #188]	@ (8006714 <TIM_Base_SetConfig+0x124>)
 8006656:	4293      	cmp	r3, r2
 8006658:	d023      	beq.n	80066a2 <TIM_Base_SetConfig+0xb2>
 800665a:	687b      	ldr	r3, [r7, #4]
 800665c:	4a2e      	ldr	r2, [pc, #184]	@ (8006718 <TIM_Base_SetConfig+0x128>)
 800665e:	4293      	cmp	r3, r2
 8006660:	d01f      	beq.n	80066a2 <TIM_Base_SetConfig+0xb2>
 8006662:	687b      	ldr	r3, [r7, #4]
 8006664:	4a2d      	ldr	r2, [pc, #180]	@ (800671c <TIM_Base_SetConfig+0x12c>)
 8006666:	4293      	cmp	r3, r2
 8006668:	d01b      	beq.n	80066a2 <TIM_Base_SetConfig+0xb2>
 800666a:	687b      	ldr	r3, [r7, #4]
 800666c:	4a2c      	ldr	r2, [pc, #176]	@ (8006720 <TIM_Base_SetConfig+0x130>)
 800666e:	4293      	cmp	r3, r2
 8006670:	d017      	beq.n	80066a2 <TIM_Base_SetConfig+0xb2>
 8006672:	687b      	ldr	r3, [r7, #4]
 8006674:	4a2b      	ldr	r2, [pc, #172]	@ (8006724 <TIM_Base_SetConfig+0x134>)
 8006676:	4293      	cmp	r3, r2
 8006678:	d013      	beq.n	80066a2 <TIM_Base_SetConfig+0xb2>
 800667a:	687b      	ldr	r3, [r7, #4]
 800667c:	4a2a      	ldr	r2, [pc, #168]	@ (8006728 <TIM_Base_SetConfig+0x138>)
 800667e:	4293      	cmp	r3, r2
 8006680:	d00f      	beq.n	80066a2 <TIM_Base_SetConfig+0xb2>
 8006682:	687b      	ldr	r3, [r7, #4]
 8006684:	4a29      	ldr	r2, [pc, #164]	@ (800672c <TIM_Base_SetConfig+0x13c>)
 8006686:	4293      	cmp	r3, r2
 8006688:	d00b      	beq.n	80066a2 <TIM_Base_SetConfig+0xb2>
 800668a:	687b      	ldr	r3, [r7, #4]
 800668c:	4a28      	ldr	r2, [pc, #160]	@ (8006730 <TIM_Base_SetConfig+0x140>)
 800668e:	4293      	cmp	r3, r2
 8006690:	d007      	beq.n	80066a2 <TIM_Base_SetConfig+0xb2>
 8006692:	687b      	ldr	r3, [r7, #4]
 8006694:	4a27      	ldr	r2, [pc, #156]	@ (8006734 <TIM_Base_SetConfig+0x144>)
 8006696:	4293      	cmp	r3, r2
 8006698:	d003      	beq.n	80066a2 <TIM_Base_SetConfig+0xb2>
 800669a:	687b      	ldr	r3, [r7, #4]
 800669c:	4a26      	ldr	r2, [pc, #152]	@ (8006738 <TIM_Base_SetConfig+0x148>)
 800669e:	4293      	cmp	r3, r2
 80066a0:	d108      	bne.n	80066b4 <TIM_Base_SetConfig+0xc4>
  {
    /* Set the clock division */
    tmpcr1 &= ~TIM_CR1_CKD;
 80066a2:	68fb      	ldr	r3, [r7, #12]
 80066a4:	f423 7340 	bic.w	r3, r3, #768	@ 0x300
 80066a8:	60fb      	str	r3, [r7, #12]
    tmpcr1 |= (uint32_t)Structure->ClockDivision;
 80066aa:	683b      	ldr	r3, [r7, #0]
 80066ac:	68db      	ldr	r3, [r3, #12]
 80066ae:	68fa      	ldr	r2, [r7, #12]
 80066b0:	4313      	orrs	r3, r2
 80066b2:	60fb      	str	r3, [r7, #12]
  }

  /* Set the auto-reload preload */
  MODIFY_REG(tmpcr1, TIM_CR1_ARPE, Structure->AutoReloadPreload);
 80066b4:	68fb      	ldr	r3, [r7, #12]
 80066b6:	f023 0280 	bic.w	r2, r3, #128	@ 0x80
 80066ba:	683b      	ldr	r3, [r7, #0]
 80066bc:	695b      	ldr	r3, [r3, #20]
 80066be:	4313      	orrs	r3, r2
 80066c0:	60fb      	str	r3, [r7, #12]

  /* Set the Autoreload value */
  TIMx->ARR = (uint32_t)Structure->Period ;
 80066c2:	683b      	ldr	r3, [r7, #0]
 80066c4:	689a      	ldr	r2, [r3, #8]
 80066c6:	687b      	ldr	r3, [r7, #4]
 80066c8:	62da      	str	r2, [r3, #44]	@ 0x2c

  /* Set the Prescaler value */
  TIMx->PSC = Structure->Prescaler;
 80066ca:	683b      	ldr	r3, [r7, #0]
 80066cc:	681a      	ldr	r2, [r3, #0]
 80066ce:	687b      	ldr	r3, [r7, #4]
 80066d0:	629a      	str	r2, [r3, #40]	@ 0x28

  if (IS_TIM_REPETITION_COUNTER_INSTANCE(TIMx))
 80066d2:	687b      	ldr	r3, [r7, #4]
 80066d4:	4a0e      	ldr	r2, [pc, #56]	@ (8006710 <TIM_Base_SetConfig+0x120>)
 80066d6:	4293      	cmp	r3, r2
 80066d8:	d003      	beq.n	80066e2 <TIM_Base_SetConfig+0xf2>
 80066da:	687b      	ldr	r3, [r7, #4]
 80066dc:	4a10      	ldr	r2, [pc, #64]	@ (8006720 <TIM_Base_SetConfig+0x130>)
 80066de:	4293      	cmp	r3, r2
 80066e0:	d103      	bne.n	80066ea <TIM_Base_SetConfig+0xfa>
  {
    /* Set the Repetition Counter value */
    TIMx->RCR = Structure->RepetitionCounter;
 80066e2:	683b      	ldr	r3, [r7, #0]
 80066e4:	691a      	ldr	r2, [r3, #16]
 80066e6:	687b      	ldr	r3, [r7, #4]
 80066e8:	631a      	str	r2, [r3, #48]	@ 0x30
  }

  /* Disable Update Event (UEV) with Update Generation (UG)
     by changing Update Request Source (URS) to avoid Update flag (UIF) */
  SET_BIT(TIMx->CR1, TIM_CR1_URS);
 80066ea:	687b      	ldr	r3, [r7, #4]
 80066ec:	681b      	ldr	r3, [r3, #0]
 80066ee:	f043 0204 	orr.w	r2, r3, #4
 80066f2:	687b      	ldr	r3, [r7, #4]
 80066f4:	601a      	str	r2, [r3, #0]

  /* Generate an update event to reload the Prescaler
     and the repetition counter (only for advanced timer) value immediately */
  TIMx->EGR = TIM_EGR_UG;
 80066f6:	687b      	ldr	r3, [r7, #4]
 80066f8:	2201      	movs	r2, #1
 80066fa:	615a      	str	r2, [r3, #20]

  TIMx->CR1 = tmpcr1;
 80066fc:	687b      	ldr	r3, [r7, #4]
 80066fe:	68fa      	ldr	r2, [r7, #12]
 8006700:	601a      	str	r2, [r3, #0]
}
 8006702:	bf00      	nop
 8006704:	3714      	adds	r7, #20
 8006706:	46bd      	mov	sp, r7
 8006708:	f85d 7b04 	ldr.w	r7, [sp], #4
 800670c:	4770      	bx	lr
 800670e:	bf00      	nop
 8006710:	40010000 	.word	0x40010000
 8006714:	40000400 	.word	0x40000400
 8006718:	40000800 	.word	0x40000800
 800671c:	40000c00 	.word	0x40000c00
 8006720:	40010400 	.word	0x40010400
 8006724:	40014000 	.word	0x40014000
 8006728:	40014400 	.word	0x40014400
 800672c:	40014800 	.word	0x40014800
 8006730:	40001800 	.word	0x40001800
 8006734:	40001c00 	.word	0x40001c00
 8006738:	40002000 	.word	0x40002000

0800673c <TIM_TI1_ConfigInputStage>:
  * @param  TIM_ICFilter Specifies the Input Capture Filter.
  *          This parameter must be a value between 0x00 and 0x0F.
  * @retval None
  */
static void TIM_TI1_ConfigInputStage(TIM_TypeDef *TIMx, uint32_t TIM_ICPolarity, uint32_t TIM_ICFilter)
{
 800673c:	b480      	push	{r7}
 800673e:	b087      	sub	sp, #28
 8006740:	af00      	add	r7, sp, #0
 8006742:	60f8      	str	r0, [r7, #12]
 8006744:	60b9      	str	r1, [r7, #8]
 8006746:	607a      	str	r2, [r7, #4]
  uint32_t tmpccmr1;
  uint32_t tmpccer;

  /* Disable the Channel 1: Reset the CC1E Bit */
  tmpccer = TIMx->CCER;
 8006748:	68fb      	ldr	r3, [r7, #12]
 800674a:	6a1b      	ldr	r3, [r3, #32]
 800674c:	617b      	str	r3, [r7, #20]
  TIMx->CCER &= ~TIM_CCER_CC1E;
 800674e:	68fb      	ldr	r3, [r7, #12]
 8006750:	6a1b      	ldr	r3, [r3, #32]
 8006752:	f023 0201 	bic.w	r2, r3, #1
 8006756:	68fb      	ldr	r3, [r7, #12]
 8006758:	621a      	str	r2, [r3, #32]
  tmpccmr1 = TIMx->CCMR1;
 800675a:	68fb      	ldr	r3, [r7, #12]
 800675c:	699b      	ldr	r3, [r3, #24]
 800675e:	613b      	str	r3, [r7, #16]

  /* Set the filter */
  tmpccmr1 &= ~TIM_CCMR1_IC1F;
 8006760:	693b      	ldr	r3, [r7, #16]
 8006762:	f023 03f0 	bic.w	r3, r3, #240	@ 0xf0
 8006766:	613b      	str	r3, [r7, #16]
  tmpccmr1 |= (TIM_ICFilter << 4U);
 8006768:	687b      	ldr	r3, [r7, #4]
 800676a:	011b      	lsls	r3, r3, #4
 800676c:	693a      	ldr	r2, [r7, #16]
 800676e:	4313      	orrs	r3, r2
 8006770:	613b      	str	r3, [r7, #16]

  /* Select the Polarity and set the CC1E Bit */
  tmpccer &= ~(TIM_CCER_CC1P | TIM_CCER_CC1NP);
 8006772:	697b      	ldr	r3, [r7, #20]
 8006774:	f023 030a 	bic.w	r3, r3, #10
 8006778:	617b      	str	r3, [r7, #20]
  tmpccer |= TIM_ICPolarity;
 800677a:	697a      	ldr	r2, [r7, #20]
 800677c:	68bb      	ldr	r3, [r7, #8]
 800677e:	4313      	orrs	r3, r2
 8006780:	617b      	str	r3, [r7, #20]

  /* Write to TIMx CCMR1 and CCER registers */
  TIMx->CCMR1 = tmpccmr1;
 8006782:	68fb      	ldr	r3, [r7, #12]
 8006784:	693a      	ldr	r2, [r7, #16]
 8006786:	619a      	str	r2, [r3, #24]
  TIMx->CCER = tmpccer;
 8006788:	68fb      	ldr	r3, [r7, #12]
 800678a:	697a      	ldr	r2, [r7, #20]
 800678c:	621a      	str	r2, [r3, #32]
}
 800678e:	bf00      	nop
 8006790:	371c      	adds	r7, #28
 8006792:	46bd      	mov	sp, r7
 8006794:	f85d 7b04 	ldr.w	r7, [sp], #4
 8006798:	4770      	bx	lr

0800679a <TIM_TI2_ConfigInputStage>:
  * @param  TIM_ICFilter Specifies the Input Capture Filter.
  *          This parameter must be a value between 0x00 and 0x0F.
  * @retval None
  */
static void TIM_TI2_ConfigInputStage(TIM_TypeDef *TIMx, uint32_t TIM_ICPolarity, uint32_t TIM_ICFilter)
{
 800679a:	b480      	push	{r7}
 800679c:	b087      	sub	sp, #28
 800679e:	af00      	add	r7, sp, #0
 80067a0:	60f8      	str	r0, [r7, #12]
 80067a2:	60b9      	str	r1, [r7, #8]
 80067a4:	607a      	str	r2, [r7, #4]
  uint32_t tmpccmr1;
  uint32_t tmpccer;

  /* Disable the Channel 2: Reset the CC2E Bit */
  tmpccer = TIMx->CCER;
 80067a6:	68fb      	ldr	r3, [r7, #12]
 80067a8:	6a1b      	ldr	r3, [r3, #32]
 80067aa:	617b      	str	r3, [r7, #20]
  TIMx->CCER &= ~TIM_CCER_CC2E;
 80067ac:	68fb      	ldr	r3, [r7, #12]
 80067ae:	6a1b      	ldr	r3, [r3, #32]
 80067b0:	f023 0210 	bic.w	r2, r3, #16
 80067b4:	68fb      	ldr	r3, [r7, #12]
 80067b6:	621a      	str	r2, [r3, #32]
  tmpccmr1 = TIMx->CCMR1;
 80067b8:	68fb      	ldr	r3, [r7, #12]
 80067ba:	699b      	ldr	r3, [r3, #24]
 80067bc:	613b      	str	r3, [r7, #16]

  /* Set the filter */
  tmpccmr1 &= ~TIM_CCMR1_IC2F;
 80067be:	693b      	ldr	r3, [r7, #16]
 80067c0:	f423 4370 	bic.w	r3, r3, #61440	@ 0xf000
 80067c4:	613b      	str	r3, [r7, #16]
  tmpccmr1 |= (TIM_ICFilter << 12U);
 80067c6:	687b      	ldr	r3, [r7, #4]
 80067c8:	031b      	lsls	r3, r3, #12
 80067ca:	693a      	ldr	r2, [r7, #16]
 80067cc:	4313      	orrs	r3, r2
 80067ce:	613b      	str	r3, [r7, #16]

  /* Select the Polarity and set the CC2E Bit */
  tmpccer &= ~(TIM_CCER_CC2P | TIM_CCER_CC2NP);
 80067d0:	697b      	ldr	r3, [r7, #20]
 80067d2:	f023 03a0 	bic.w	r3, r3, #160	@ 0xa0
 80067d6:	617b      	str	r3, [r7, #20]
  tmpccer |= (TIM_ICPolarity << 4U);
 80067d8:	68bb      	ldr	r3, [r7, #8]
 80067da:	011b      	lsls	r3, r3, #4
 80067dc:	697a      	ldr	r2, [r7, #20]
 80067de:	4313      	orrs	r3, r2
 80067e0:	617b      	str	r3, [r7, #20]

  /* Write to TIMx CCMR1 and CCER registers */
  TIMx->CCMR1 = tmpccmr1 ;
 80067e2:	68fb      	ldr	r3, [r7, #12]
 80067e4:	693a      	ldr	r2, [r7, #16]
 80067e6:	619a      	str	r2, [r3, #24]
  TIMx->CCER = tmpccer;
 80067e8:	68fb      	ldr	r3, [r7, #12]
 80067ea:	697a      	ldr	r2, [r7, #20]
 80067ec:	621a      	str	r2, [r3, #32]
}
 80067ee:	bf00      	nop
 80067f0:	371c      	adds	r7, #28
 80067f2:	46bd      	mov	sp, r7
 80067f4:	f85d 7b04 	ldr.w	r7, [sp], #4
 80067f8:	4770      	bx	lr

080067fa <TIM_ITRx_SetConfig>:
  *            @arg TIM_TS_TI2FP2: Filtered Timer Input 2
  *            @arg TIM_TS_ETRF: External Trigger input
  * @retval None
  */
static void TIM_ITRx_SetConfig(TIM_TypeDef *TIMx, uint32_t InputTriggerSource)
{
 80067fa:	b480      	push	{r7}
 80067fc:	b085      	sub	sp, #20
 80067fe:	af00      	add	r7, sp, #0
 8006800:	6078      	str	r0, [r7, #4]
 8006802:	6039      	str	r1, [r7, #0]
  uint32_t tmpsmcr;

  /* Get the TIMx SMCR register value */
  tmpsmcr = TIMx->SMCR;
 8006804:	687b      	ldr	r3, [r7, #4]
 8006806:	689b      	ldr	r3, [r3, #8]
 8006808:	60fb      	str	r3, [r7, #12]
  /* Reset the TS Bits */
  tmpsmcr &= ~TIM_SMCR_TS;
 800680a:	68fb      	ldr	r3, [r7, #12]
 800680c:	f023 0370 	bic.w	r3, r3, #112	@ 0x70
 8006810:	60fb      	str	r3, [r7, #12]
  /* Set the Input Trigger source and the slave mode*/
  tmpsmcr |= (InputTriggerSource | TIM_SLAVEMODE_EXTERNAL1);
 8006812:	683a      	ldr	r2, [r7, #0]
 8006814:	68fb      	ldr	r3, [r7, #12]
 8006816:	4313      	orrs	r3, r2
 8006818:	f043 0307 	orr.w	r3, r3, #7
 800681c:	60fb      	str	r3, [r7, #12]
  /* Write to TIMx SMCR */
  TIMx->SMCR = tmpsmcr;
 800681e:	687b      	ldr	r3, [r7, #4]
 8006820:	68fa      	ldr	r2, [r7, #12]
 8006822:	609a      	str	r2, [r3, #8]
}
 8006824:	bf00      	nop
 8006826:	3714      	adds	r7, #20
 8006828:	46bd      	mov	sp, r7
 800682a:	f85d 7b04 	ldr.w	r7, [sp], #4
 800682e:	4770      	bx	lr

08006830 <TIM_ETR_SetConfig>:
  *          This parameter must be a value between 0x00 and 0x0F
  * @retval None
  */
void TIM_ETR_SetConfig(TIM_TypeDef *TIMx, uint32_t TIM_ExtTRGPrescaler,
                       uint32_t TIM_ExtTRGPolarity, uint32_t ExtTRGFilter)
{
 8006830:	b480      	push	{r7}
 8006832:	b087      	sub	sp, #28
 8006834:	af00      	add	r7, sp, #0
 8006836:	60f8      	str	r0, [r7, #12]
 8006838:	60b9      	str	r1, [r7, #8]
 800683a:	607a      	str	r2, [r7, #4]
 800683c:	603b      	str	r3, [r7, #0]
  uint32_t tmpsmcr;

  tmpsmcr = TIMx->SMCR;
 800683e:	68fb      	ldr	r3, [r7, #12]
 8006840:	689b      	ldr	r3, [r3, #8]
 8006842:	617b      	str	r3, [r7, #20]

  /* Reset the ETR Bits */
  tmpsmcr &= ~(TIM_SMCR_ETF | TIM_SMCR_ETPS | TIM_SMCR_ECE | TIM_SMCR_ETP);
 8006844:	697b      	ldr	r3, [r7, #20]
 8006846:	f423 437f 	bic.w	r3, r3, #65280	@ 0xff00
 800684a:	617b      	str	r3, [r7, #20]

  /* Set the Prescaler, the Filter value and the Polarity */
  tmpsmcr |= (uint32_t)(TIM_ExtTRGPrescaler | (TIM_ExtTRGPolarity | (ExtTRGFilter << 8U)));
 800684c:	683b      	ldr	r3, [r7, #0]
 800684e:	021a      	lsls	r2, r3, #8
 8006850:	687b      	ldr	r3, [r7, #4]
 8006852:	431a      	orrs	r2, r3
 8006854:	68bb      	ldr	r3, [r7, #8]
 8006856:	4313      	orrs	r3, r2
 8006858:	697a      	ldr	r2, [r7, #20]
 800685a:	4313      	orrs	r3, r2
 800685c:	617b      	str	r3, [r7, #20]

  /* Write to TIMx SMCR */
  TIMx->SMCR = tmpsmcr;
 800685e:	68fb      	ldr	r3, [r7, #12]
 8006860:	697a      	ldr	r2, [r7, #20]
 8006862:	609a      	str	r2, [r3, #8]
}
 8006864:	bf00      	nop
 8006866:	371c      	adds	r7, #28
 8006868:	46bd      	mov	sp, r7
 800686a:	f85d 7b04 	ldr.w	r7, [sp], #4
 800686e:	4770      	bx	lr

08006870 <HAL_TIMEx_MasterConfigSynchronization>:
  *         mode.
  * @retval HAL status
  */
HAL_StatusTypeDef HAL_TIMEx_MasterConfigSynchronization(TIM_HandleTypeDef *htim,
                                                        const TIM_MasterConfigTypeDef *sMasterConfig)
{
 8006870:	b480      	push	{r7}
 8006872:	b085      	sub	sp, #20
 8006874:	af00      	add	r7, sp, #0
 8006876:	6078      	str	r0, [r7, #4]
 8006878:	6039      	str	r1, [r7, #0]
  assert_param(IS_TIM_MASTER_INSTANCE(htim->Instance));
  assert_param(IS_TIM_TRGO_SOURCE(sMasterConfig->MasterOutputTrigger));
  assert_param(IS_TIM_MSM_STATE(sMasterConfig->MasterSlaveMode));

  /* Check input state */
  __HAL_LOCK(htim);
 800687a:	687b      	ldr	r3, [r7, #4]
 800687c:	f893 303c 	ldrb.w	r3, [r3, #60]	@ 0x3c
 8006880:	2b01      	cmp	r3, #1
 8006882:	d101      	bne.n	8006888 <HAL_TIMEx_MasterConfigSynchronization+0x18>
 8006884:	2302      	movs	r3, #2
 8006886:	e06d      	b.n	8006964 <HAL_TIMEx_MasterConfigSynchronization+0xf4>
 8006888:	687b      	ldr	r3, [r7, #4]
 800688a:	2201      	movs	r2, #1
 800688c:	f883 203c 	strb.w	r2, [r3, #60]	@ 0x3c

  /* Change the handler state */
  htim->State = HAL_TIM_STATE_BUSY;
 8006890:	687b      	ldr	r3, [r7, #4]
 8006892:	2202      	movs	r2, #2
 8006894:	f883 203d 	strb.w	r2, [r3, #61]	@ 0x3d

  /* Get the TIMx CR2 register value */
  tmpcr2 = htim->Instance->CR2;
 8006898:	687b      	ldr	r3, [r7, #4]
 800689a:	681b      	ldr	r3, [r3, #0]
 800689c:	685b      	ldr	r3, [r3, #4]
 800689e:	60fb      	str	r3, [r7, #12]

  /* Get the TIMx SMCR register value */
  tmpsmcr = htim->Instance->SMCR;
 80068a0:	687b      	ldr	r3, [r7, #4]
 80068a2:	681b      	ldr	r3, [r3, #0]
 80068a4:	689b      	ldr	r3, [r3, #8]
 80068a6:	60bb      	str	r3, [r7, #8]

  /* If the timer supports ADC synchronization through TRGO2, set the master mode selection 2 */
  if (IS_TIM_TRGO2_INSTANCE(htim->Instance))
 80068a8:	687b      	ldr	r3, [r7, #4]
 80068aa:	681b      	ldr	r3, [r3, #0]
 80068ac:	4a30      	ldr	r2, [pc, #192]	@ (8006970 <HAL_TIMEx_MasterConfigSynchronization+0x100>)
 80068ae:	4293      	cmp	r3, r2
 80068b0:	d004      	beq.n	80068bc <HAL_TIMEx_MasterConfigSynchronization+0x4c>
 80068b2:	687b      	ldr	r3, [r7, #4]
 80068b4:	681b      	ldr	r3, [r3, #0]
 80068b6:	4a2f      	ldr	r2, [pc, #188]	@ (8006974 <HAL_TIMEx_MasterConfigSynchronization+0x104>)
 80068b8:	4293      	cmp	r3, r2
 80068ba:	d108      	bne.n	80068ce <HAL_TIMEx_MasterConfigSynchronization+0x5e>
  {
    /* Check the parameters */
    assert_param(IS_TIM_TRGO2_SOURCE(sMasterConfig->MasterOutputTrigger2));

    /* Clear the MMS2 bits */
    tmpcr2 &= ~TIM_CR2_MMS2;
 80068bc:	68fb      	ldr	r3, [r7, #12]
 80068be:	f423 0370 	bic.w	r3, r3, #15728640	@ 0xf00000
 80068c2:	60fb      	str	r3, [r7, #12]
    /* Select the TRGO2 source*/
    tmpcr2 |= sMasterConfig->MasterOutputTrigger2;
 80068c4:	683b      	ldr	r3, [r7, #0]
 80068c6:	685b      	ldr	r3, [r3, #4]
 80068c8:	68fa      	ldr	r2, [r7, #12]
 80068ca:	4313      	orrs	r3, r2
 80068cc:	60fb      	str	r3, [r7, #12]
  }

  /* Reset the MMS Bits */
  tmpcr2 &= ~TIM_CR2_MMS;
 80068ce:	68fb      	ldr	r3, [r7, #12]
 80068d0:	f023 0370 	bic.w	r3, r3, #112	@ 0x70
 80068d4:	60fb      	str	r3, [r7, #12]
  /* Select the TRGO source */
  tmpcr2 |=  sMasterConfig->MasterOutputTrigger;
 80068d6:	683b      	ldr	r3, [r7, #0]
 80068d8:	681b      	ldr	r3, [r3, #0]
 80068da:	68fa      	ldr	r2, [r7, #12]
 80068dc:	4313      	orrs	r3, r2
 80068de:	60fb      	str	r3, [r7, #12]

  /* Update TIMx CR2 */
  htim->Instance->CR2 = tmpcr2;
 80068e0:	687b      	ldr	r3, [r7, #4]
 80068e2:	681b      	ldr	r3, [r3, #0]
 80068e4:	68fa      	ldr	r2, [r7, #12]
 80068e6:	605a      	str	r2, [r3, #4]

  if (IS_TIM_SLAVE_INSTANCE(htim->Instance))
 80068e8:	687b      	ldr	r3, [r7, #4]
 80068ea:	681b      	ldr	r3, [r3, #0]
 80068ec:	4a20      	ldr	r2, [pc, #128]	@ (8006970 <HAL_TIMEx_MasterConfigSynchronization+0x100>)
 80068ee:	4293      	cmp	r3, r2
 80068f0:	d022      	beq.n	8006938 <HAL_TIMEx_MasterConfigSynchronization+0xc8>
 80068f2:	687b      	ldr	r3, [r7, #4]
 80068f4:	681b      	ldr	r3, [r3, #0]
 80068f6:	f1b3 4f80 	cmp.w	r3, #1073741824	@ 0x40000000
 80068fa:	d01d      	beq.n	8006938 <HAL_TIMEx_MasterConfigSynchronization+0xc8>
 80068fc:	687b      	ldr	r3, [r7, #4]
 80068fe:	681b      	ldr	r3, [r3, #0]
 8006900:	4a1d      	ldr	r2, [pc, #116]	@ (8006978 <HAL_TIMEx_MasterConfigSynchronization+0x108>)
 8006902:	4293      	cmp	r3, r2
 8006904:	d018      	beq.n	8006938 <HAL_TIMEx_MasterConfigSynchronization+0xc8>
 8006906:	687b      	ldr	r3, [r7, #4]
 8006908:	681b      	ldr	r3, [r3, #0]
 800690a:	4a1c      	ldr	r2, [pc, #112]	@ (800697c <HAL_TIMEx_MasterConfigSynchronization+0x10c>)
 800690c:	4293      	cmp	r3, r2
 800690e:	d013      	beq.n	8006938 <HAL_TIMEx_MasterConfigSynchronization+0xc8>
 8006910:	687b      	ldr	r3, [r7, #4]
 8006912:	681b      	ldr	r3, [r3, #0]
 8006914:	4a1a      	ldr	r2, [pc, #104]	@ (8006980 <HAL_TIMEx_MasterConfigSynchronization+0x110>)
 8006916:	4293      	cmp	r3, r2
 8006918:	d00e      	beq.n	8006938 <HAL_TIMEx_MasterConfigSynchronization+0xc8>
 800691a:	687b      	ldr	r3, [r7, #4]
 800691c:	681b      	ldr	r3, [r3, #0]
 800691e:	4a15      	ldr	r2, [pc, #84]	@ (8006974 <HAL_TIMEx_MasterConfigSynchronization+0x104>)
 8006920:	4293      	cmp	r3, r2
 8006922:	d009      	beq.n	8006938 <HAL_TIMEx_MasterConfigSynchronization+0xc8>
 8006924:	687b      	ldr	r3, [r7, #4]
 8006926:	681b      	ldr	r3, [r3, #0]
 8006928:	4a16      	ldr	r2, [pc, #88]	@ (8006984 <HAL_TIMEx_MasterConfigSynchronization+0x114>)
 800692a:	4293      	cmp	r3, r2
 800692c:	d004      	beq.n	8006938 <HAL_TIMEx_MasterConfigSynchronization+0xc8>
 800692e:	687b      	ldr	r3, [r7, #4]
 8006930:	681b      	ldr	r3, [r3, #0]
 8006932:	4a15      	ldr	r2, [pc, #84]	@ (8006988 <HAL_TIMEx_MasterConfigSynchronization+0x118>)
 8006934:	4293      	cmp	r3, r2
 8006936:	d10c      	bne.n	8006952 <HAL_TIMEx_MasterConfigSynchronization+0xe2>
  {
    /* Reset the MSM Bit */
    tmpsmcr &= ~TIM_SMCR_MSM;
 8006938:	68bb      	ldr	r3, [r7, #8]
 800693a:	f023 0380 	bic.w	r3, r3, #128	@ 0x80
 800693e:	60bb      	str	r3, [r7, #8]
    /* Set master mode */
    tmpsmcr |= sMasterConfig->MasterSlaveMode;
 8006940:	683b      	ldr	r3, [r7, #0]
 8006942:	689b      	ldr	r3, [r3, #8]
 8006944:	68ba      	ldr	r2, [r7, #8]
 8006946:	4313      	orrs	r3, r2
 8006948:	60bb      	str	r3, [r7, #8]

    /* Update TIMx SMCR */
    htim->Instance->SMCR = tmpsmcr;
 800694a:	687b      	ldr	r3, [r7, #4]
 800694c:	681b      	ldr	r3, [r3, #0]
 800694e:	68ba      	ldr	r2, [r7, #8]
 8006950:	609a      	str	r2, [r3, #8]
  }

  /* Change the htim state */
  htim->State = HAL_TIM_STATE_READY;
 8006952:	687b      	ldr	r3, [r7, #4]
 8006954:	2201      	movs	r2, #1
 8006956:	f883 203d 	strb.w	r2, [r3, #61]	@ 0x3d

  __HAL_UNLOCK(htim);
 800695a:	687b      	ldr	r3, [r7, #4]
 800695c:	2200      	movs	r2, #0
 800695e:	f883 203c 	strb.w	r2, [r3, #60]	@ 0x3c

  return HAL_OK;
 8006962:	2300      	movs	r3, #0
}
 8006964:	4618      	mov	r0, r3
 8006966:	3714      	adds	r7, #20
 8006968:	46bd      	mov	sp, r7
 800696a:	f85d 7b04 	ldr.w	r7, [sp], #4
 800696e:	4770      	bx	lr
 8006970:	40010000 	.word	0x40010000
 8006974:	40010400 	.word	0x40010400
 8006978:	40000400 	.word	0x40000400
 800697c:	40000800 	.word	0x40000800
 8006980:	40000c00 	.word	0x40000c00
 8006984:	40014000 	.word	0x40014000
 8006988:	40001800 	.word	0x40001800

0800698c <HAL_TIMEx_CommutCallback>:
  * @brief  Commutation callback in non-blocking mode
  * @param  htim TIM handle
  * @retval None
  */
__weak void HAL_TIMEx_CommutCallback(TIM_HandleTypeDef *htim)
{
 800698c:	b480      	push	{r7}
 800698e:	b083      	sub	sp, #12
 8006990:	af00      	add	r7, sp, #0
 8006992:	6078      	str	r0, [r7, #4]
  UNUSED(htim);

  /* NOTE : This function should not be modified, when the callback is needed,
            the HAL_TIMEx_CommutCallback could be implemented in the user file
   */
}
 8006994:	bf00      	nop
 8006996:	370c      	adds	r7, #12
 8006998:	46bd      	mov	sp, r7
 800699a:	f85d 7b04 	ldr.w	r7, [sp], #4
 800699e:	4770      	bx	lr

080069a0 <HAL_TIMEx_BreakCallback>:
  * @brief  Break detection callback in non-blocking mode
  * @param  htim TIM handle
  * @retval None
  */
__weak void HAL_TIMEx_BreakCallback(TIM_HandleTypeDef *htim)
{
 80069a0:	b480      	push	{r7}
 80069a2:	b083      	sub	sp, #12
 80069a4:	af00      	add	r7, sp, #0
 80069a6:	6078      	str	r0, [r7, #4]
  UNUSED(htim);

  /* NOTE : This function should not be modified, when the callback is needed,
            the HAL_TIMEx_BreakCallback could be implemented in the user file
   */
}
 80069a8:	bf00      	nop
 80069aa:	370c      	adds	r7, #12
 80069ac:	46bd      	mov	sp, r7
 80069ae:	f85d 7b04 	ldr.w	r7, [sp], #4
 80069b2:	4770      	bx	lr

080069b4 <HAL_TIMEx_Break2Callback>:
  * @brief  Break2 detection callback in non blocking mode
  * @param  htim: TIM handle
  * @retval None
  */
__weak void HAL_TIMEx_Break2Callback(TIM_HandleTypeDef *htim)
{
 80069b4:	b480      	push	{r7}
 80069b6:	b083      	sub	sp, #12
 80069b8:	af00      	add	r7, sp, #0
 80069ba:	6078      	str	r0, [r7, #4]
  UNUSED(htim);

  /* NOTE : This function Should not be modified, when the callback is needed,
            the HAL_TIMEx_Break2Callback could be implemented in the user file
   */
}
 80069bc:	bf00      	nop
 80069be:	370c      	adds	r7, #12
 80069c0:	46bd      	mov	sp, r7
 80069c2:	f85d 7b04 	ldr.w	r7, [sp], #4
 80069c6:	4770      	bx	lr

080069c8 <memset>:
 80069c8:	4402      	add	r2, r0
 80069ca:	4603      	mov	r3, r0
 80069cc:	4293      	cmp	r3, r2
 80069ce:	d100      	bne.n	80069d2 <memset+0xa>
 80069d0:	4770      	bx	lr
 80069d2:	f803 1b01 	strb.w	r1, [r3], #1
 80069d6:	e7f9      	b.n	80069cc <memset+0x4>

080069d8 <__errno>:
 80069d8:	4b01      	ldr	r3, [pc, #4]	@ (80069e0 <__errno+0x8>)
 80069da:	6818      	ldr	r0, [r3, #0]
 80069dc:	4770      	bx	lr
 80069de:	bf00      	nop
 80069e0:	2000000c 	.word	0x2000000c

080069e4 <__libc_init_array>:
 80069e4:	b570      	push	{r4, r5, r6, lr}
 80069e6:	4d0d      	ldr	r5, [pc, #52]	@ (8006a1c <__libc_init_array+0x38>)
 80069e8:	4c0d      	ldr	r4, [pc, #52]	@ (8006a20 <__libc_init_array+0x3c>)
 80069ea:	1b64      	subs	r4, r4, r5
 80069ec:	10a4      	asrs	r4, r4, #2
 80069ee:	2600      	movs	r6, #0
 80069f0:	42a6      	cmp	r6, r4
 80069f2:	d109      	bne.n	8006a08 <__libc_init_array+0x24>
 80069f4:	4d0b      	ldr	r5, [pc, #44]	@ (8006a24 <__libc_init_array+0x40>)
 80069f6:	4c0c      	ldr	r4, [pc, #48]	@ (8006a28 <__libc_init_array+0x44>)
 80069f8:	f000 f9e0 	bl	8006dbc <_init>
 80069fc:	1b64      	subs	r4, r4, r5
 80069fe:	10a4      	asrs	r4, r4, #2
 8006a00:	2600      	movs	r6, #0
 8006a02:	42a6      	cmp	r6, r4
 8006a04:	d105      	bne.n	8006a12 <__libc_init_array+0x2e>
 8006a06:	bd70      	pop	{r4, r5, r6, pc}
 8006a08:	f855 3b04 	ldr.w	r3, [r5], #4
 8006a0c:	4798      	blx	r3
 8006a0e:	3601      	adds	r6, #1
 8006a10:	e7ee      	b.n	80069f0 <__libc_init_array+0xc>
 8006a12:	f855 3b04 	ldr.w	r3, [r5], #4
 8006a16:	4798      	blx	r3
 8006a18:	3601      	adds	r6, #1
 8006a1a:	e7f2      	b.n	8006a02 <__libc_init_array+0x1e>
 8006a1c:	08007390 	.word	0x08007390
 8006a20:	08007390 	.word	0x08007390
 8006a24:	08007390 	.word	0x08007390
 8006a28:	08007394 	.word	0x08007394

08006a2c <checkint>:
 8006a2c:	f3c0 53c7 	ubfx	r3, r0, #23, #8
 8006a30:	2b7e      	cmp	r3, #126	@ 0x7e
 8006a32:	d910      	bls.n	8006a56 <checkint+0x2a>
 8006a34:	2b96      	cmp	r3, #150	@ 0x96
 8006a36:	d80c      	bhi.n	8006a52 <checkint+0x26>
 8006a38:	2201      	movs	r2, #1
 8006a3a:	f1c3 0396 	rsb	r3, r3, #150	@ 0x96
 8006a3e:	fa02 f303 	lsl.w	r3, r2, r3
 8006a42:	1e5a      	subs	r2, r3, #1
 8006a44:	4202      	tst	r2, r0
 8006a46:	d106      	bne.n	8006a56 <checkint+0x2a>
 8006a48:	4203      	tst	r3, r0
 8006a4a:	bf14      	ite	ne
 8006a4c:	2001      	movne	r0, #1
 8006a4e:	2002      	moveq	r0, #2
 8006a50:	4770      	bx	lr
 8006a52:	2002      	movs	r0, #2
 8006a54:	4770      	bx	lr
 8006a56:	2000      	movs	r0, #0
 8006a58:	4770      	bx	lr
 8006a5a:	0000      	movs	r0, r0
 8006a5c:	0000      	movs	r0, r0
	...

08006a60 <powf>:
 8006a60:	b537      	push	{r0, r1, r2, r4, r5, lr}
 8006a62:	ee10 1a10 	vmov	r1, s0
 8006a66:	ee10 4a90 	vmov	r4, s1
 8006a6a:	f5a1 0200 	sub.w	r2, r1, #8388608	@ 0x800000
 8006a6e:	0063      	lsls	r3, r4, #1
 8006a70:	f1b2 4ffe 	cmp.w	r2, #2130706432	@ 0x7f000000
 8006a74:	eef0 7a40 	vmov.f32	s15, s0
 8006a78:	eeb0 7a60 	vmov.f32	s14, s1
 8006a7c:	f103 30ff 	add.w	r0, r3, #4294967295
 8006a80:	f06f 7280 	mvn.w	r2, #16777216	@ 0x1000000
 8006a84:	d252      	bcs.n	8006b2c <powf+0xcc>
 8006a86:	4290      	cmp	r0, r2
 8006a88:	d258      	bcs.n	8006b3c <powf+0xdc>
 8006a8a:	2000      	movs	r0, #0
 8006a8c:	f101 4340 	add.w	r3, r1, #3221225472	@ 0xc0000000
 8006a90:	f503 034d 	add.w	r3, r3, #13434880	@ 0xcd0000
 8006a94:	4a9e      	ldr	r2, [pc, #632]	@ (8006d10 <powf+0x2b0>)
 8006a96:	eebf 2b00 	vmov.f64	d2, #240	@ 0xbf800000 -1.0
 8006a9a:	f3c3 44c3 	ubfx	r4, r3, #19, #4
 8006a9e:	f36f 0316 	bfc	r3, #0, #23
 8006aa2:	1ac9      	subs	r1, r1, r3
 8006aa4:	eb02 1404 	add.w	r4, r2, r4, lsl #4
 8006aa8:	ee07 1a90 	vmov	s15, r1
 8006aac:	ed94 5b02 	vldr	d5, [r4, #8]
 8006ab0:	ed94 4b00 	vldr	d4, [r4]
 8006ab4:	15db      	asrs	r3, r3, #23
 8006ab6:	eeb7 6ae7 	vcvt.f64.f32	d6, s15
 8006aba:	ee07 3a90 	vmov	s15, r3
 8006abe:	eea4 2b06 	vfma.f64	d2, d4, d6
 8006ac2:	ed92 1b42 	vldr	d1, [r2, #264]	@ 0x108
 8006ac6:	ee22 4b02 	vmul.f64	d4, d2, d2
 8006aca:	ee24 0b04 	vmul.f64	d0, d4, d4
 8006ace:	eeb8 6be7 	vcvt.f64.s32	d6, s15
 8006ad2:	ee36 6b05 	vadd.f64	d6, d6, d5
 8006ad6:	ed92 5b40 	vldr	d5, [r2, #256]	@ 0x100
 8006ada:	ed92 3b44 	vldr	d3, [r2, #272]	@ 0x110
 8006ade:	eea2 1b05 	vfma.f64	d1, d2, d5
 8006ae2:	ed92 5b46 	vldr	d5, [r2, #280]	@ 0x118
 8006ae6:	eea2 5b03 	vfma.f64	d5, d2, d3
 8006aea:	ed92 3b48 	vldr	d3, [r2, #288]	@ 0x120
 8006aee:	eeb7 7ac7 	vcvt.f64.f32	d7, s14
 8006af2:	eea2 6b03 	vfma.f64	d6, d2, d3
 8006af6:	eea4 6b05 	vfma.f64	d6, d4, d5
 8006afa:	eea1 6b00 	vfma.f64	d6, d1, d0
 8006afe:	ee27 7b06 	vmul.f64	d7, d7, d6
 8006b02:	ee17 3a90 	vmov	r3, s15
 8006b06:	f3c3 32cf 	ubfx	r2, r3, #15, #16
 8006b0a:	f248 03bf 	movw	r3, #32959	@ 0x80bf
 8006b0e:	429a      	cmp	r2, r3
 8006b10:	f0c0 8098 	bcc.w	8006c44 <powf+0x1e4>
 8006b14:	ed9f 6b76 	vldr	d6, [pc, #472]	@ 8006cf0 <powf+0x290>
 8006b18:	eeb4 7bc6 	vcmpe.f64	d7, d6
 8006b1c:	eef1 fa10 	vmrs	APSR_nzcv, fpscr
 8006b20:	dd79      	ble.n	8006c16 <powf+0x1b6>
 8006b22:	b003      	add	sp, #12
 8006b24:	e8bd 4030 	ldmia.w	sp!, {r4, r5, lr}
 8006b28:	f000 b920 	b.w	8006d6c <__math_oflowf>
 8006b2c:	4290      	cmp	r0, r2
 8006b2e:	d330      	bcc.n	8006b92 <powf+0x132>
 8006b30:	b12b      	cbz	r3, 8006b3e <powf+0xde>
 8006b32:	0049      	lsls	r1, r1, #1
 8006b34:	f1b1 4f7f 	cmp.w	r1, #4278190080	@ 0xff000000
 8006b38:	d808      	bhi.n	8006b4c <powf+0xec>
 8006b3a:	e015      	b.n	8006b68 <powf+0x108>
 8006b3c:	b953      	cbnz	r3, 8006b54 <powf+0xf4>
 8006b3e:	f481 0180 	eor.w	r1, r1, #4194304	@ 0x400000
 8006b42:	0049      	lsls	r1, r1, #1
 8006b44:	f511 0f00 	cmn.w	r1, #8388608	@ 0x800000
 8006b48:	f240 80ca 	bls.w	8006ce0 <powf+0x280>
 8006b4c:	ee37 0a87 	vadd.f32	s0, s15, s14
 8006b50:	b003      	add	sp, #12
 8006b52:	bd30      	pop	{r4, r5, pc}
 8006b54:	f1b1 5f7e 	cmp.w	r1, #1065353216	@ 0x3f800000
 8006b58:	d105      	bne.n	8006b66 <powf+0x106>
 8006b5a:	f484 0480 	eor.w	r4, r4, #4194304	@ 0x400000
 8006b5e:	0064      	lsls	r4, r4, #1
 8006b60:	f514 0f00 	cmn.w	r4, #8388608	@ 0x800000
 8006b64:	e7f0      	b.n	8006b48 <powf+0xe8>
 8006b66:	0049      	lsls	r1, r1, #1
 8006b68:	f1b3 4f7f 	cmp.w	r3, #4278190080	@ 0xff000000
 8006b6c:	d1ee      	bne.n	8006b4c <powf+0xec>
 8006b6e:	f1b1 4ffe 	cmp.w	r1, #2130706432	@ 0x7f000000
 8006b72:	f000 80b5 	beq.w	8006ce0 <powf+0x280>
 8006b76:	f1b1 4ffe 	cmp.w	r1, #2130706432	@ 0x7f000000
 8006b7a:	ea6f 0404 	mvn.w	r4, r4
 8006b7e:	bf34      	ite	cc
 8006b80:	2100      	movcc	r1, #0
 8006b82:	2101      	movcs	r1, #1
 8006b84:	0fe4      	lsrs	r4, r4, #31
 8006b86:	42a1      	cmp	r1, r4
 8006b88:	f040 80ad 	bne.w	8006ce6 <powf+0x286>
 8006b8c:	ee27 0a07 	vmul.f32	s0, s14, s14
 8006b90:	e7de      	b.n	8006b50 <powf+0xf0>
 8006b92:	004d      	lsls	r5, r1, #1
 8006b94:	1e6b      	subs	r3, r5, #1
 8006b96:	4293      	cmp	r3, r2
 8006b98:	d31b      	bcc.n	8006bd2 <powf+0x172>
 8006b9a:	2900      	cmp	r1, #0
 8006b9c:	ee20 0a00 	vmul.f32	s0, s0, s0
 8006ba0:	da0e      	bge.n	8006bc0 <powf+0x160>
 8006ba2:	4620      	mov	r0, r4
 8006ba4:	f7ff ff42 	bl	8006a2c <checkint>
 8006ba8:	2801      	cmp	r0, #1
 8006baa:	d109      	bne.n	8006bc0 <powf+0x160>
 8006bac:	eeb1 0a40 	vneg.f32	s0, s0
 8006bb0:	b945      	cbnz	r5, 8006bc4 <powf+0x164>
 8006bb2:	2c00      	cmp	r4, #0
 8006bb4:	dacc      	bge.n	8006b50 <powf+0xf0>
 8006bb6:	b003      	add	sp, #12
 8006bb8:	e8bd 4030 	ldmia.w	sp!, {r4, r5, lr}
 8006bbc:	f000 b8dc 	b.w	8006d78 <__math_divzerof>
 8006bc0:	2000      	movs	r0, #0
 8006bc2:	e7f5      	b.n	8006bb0 <powf+0x150>
 8006bc4:	2c00      	cmp	r4, #0
 8006bc6:	dac3      	bge.n	8006b50 <powf+0xf0>
 8006bc8:	eef7 7a00 	vmov.f32	s15, #112	@ 0x3f800000  1.0
 8006bcc:	ee87 0a80 	vdiv.f32	s0, s15, s0
 8006bd0:	e7be      	b.n	8006b50 <powf+0xf0>
 8006bd2:	2900      	cmp	r1, #0
 8006bd4:	da1d      	bge.n	8006c12 <powf+0x1b2>
 8006bd6:	4620      	mov	r0, r4
 8006bd8:	f7ff ff28 	bl	8006a2c <checkint>
 8006bdc:	b920      	cbnz	r0, 8006be8 <powf+0x188>
 8006bde:	b003      	add	sp, #12
 8006be0:	e8bd 4030 	ldmia.w	sp!, {r4, r5, lr}
 8006be4:	f000 b8da 	b.w	8006d9c <__math_invalidf>
 8006be8:	1e43      	subs	r3, r0, #1
 8006bea:	4258      	negs	r0, r3
 8006bec:	4158      	adcs	r0, r3
 8006bee:	0400      	lsls	r0, r0, #16
 8006bf0:	f021 4100 	bic.w	r1, r1, #2147483648	@ 0x80000000
 8006bf4:	f5b1 0f00 	cmp.w	r1, #8388608	@ 0x800000
 8006bf8:	f4bf af48 	bcs.w	8006a8c <powf+0x2c>
 8006bfc:	eddf 6a45 	vldr	s13, [pc, #276]	@ 8006d14 <powf+0x2b4>
 8006c00:	ee27 0aa6 	vmul.f32	s0, s15, s13
 8006c04:	ee10 3a10 	vmov	r3, s0
 8006c08:	f023 4300 	bic.w	r3, r3, #2147483648	@ 0x80000000
 8006c0c:	f1a3 6138 	sub.w	r1, r3, #192937984	@ 0xb800000
 8006c10:	e73c      	b.n	8006a8c <powf+0x2c>
 8006c12:	2000      	movs	r0, #0
 8006c14:	e7ee      	b.n	8006bf4 <powf+0x194>
 8006c16:	ed9f 6b38 	vldr	d6, [pc, #224]	@ 8006cf8 <powf+0x298>
 8006c1a:	eeb4 7bc6 	vcmpe.f64	d7, d6
 8006c1e:	eef1 fa10 	vmrs	APSR_nzcv, fpscr
 8006c22:	dd45      	ble.n	8006cb0 <powf+0x250>
 8006c24:	f04f 534c 	mov.w	r3, #855638016	@ 0x33000000
 8006c28:	b3d0      	cbz	r0, 8006ca0 <powf+0x240>
 8006c2a:	9301      	str	r3, [sp, #4]
 8006c2c:	eddd 6a01 	vldr	s13, [sp, #4]
 8006c30:	eebf 6a00 	vmov.f32	s12, #240	@ 0xbf800000 -1.0
 8006c34:	ee76 6a66 	vsub.f32	s13, s12, s13
 8006c38:	eef4 6a46 	vcmp.f32	s13, s12
 8006c3c:	eef1 fa10 	vmrs	APSR_nzcv, fpscr
 8006c40:	f47f af6f 	bne.w	8006b22 <powf+0xc2>
 8006c44:	eeb7 0b00 	vmov.f64	d0, #112	@ 0x3f800000  1.0
 8006c48:	4b33      	ldr	r3, [pc, #204]	@ (8006d18 <powf+0x2b8>)
 8006c4a:	ed93 5b40 	vldr	d5, [r3, #256]	@ 0x100
 8006c4e:	ee37 6b05 	vadd.f64	d6, d7, d5
 8006c52:	ee16 2a10 	vmov	r2, s12
 8006c56:	ee36 6b45 	vsub.f64	d6, d6, d5
 8006c5a:	f002 011f 	and.w	r1, r2, #31
 8006c5e:	ee37 7b46 	vsub.f64	d7, d7, d6
 8006c62:	ed93 5b42 	vldr	d5, [r3, #264]	@ 0x108
 8006c66:	ee27 4b07 	vmul.f64	d4, d7, d7
 8006c6a:	ed93 6b44 	vldr	d6, [r3, #272]	@ 0x110
 8006c6e:	eb03 05c1 	add.w	r5, r3, r1, lsl #3
 8006c72:	f853 4031 	ldr.w	r4, [r3, r1, lsl #3]
 8006c76:	eea7 6b05 	vfma.f64	d6, d7, d5
 8006c7a:	686d      	ldr	r5, [r5, #4]
 8006c7c:	ed93 5b46 	vldr	d5, [r3, #280]	@ 0x118
 8006c80:	1880      	adds	r0, r0, r2
 8006c82:	2100      	movs	r1, #0
 8006c84:	190a      	adds	r2, r1, r4
 8006c86:	eb05 33c0 	add.w	r3, r5, r0, lsl #15
 8006c8a:	eea7 0b05 	vfma.f64	d0, d7, d5
 8006c8e:	ec43 2b17 	vmov	d7, r2, r3
 8006c92:	eea6 0b04 	vfma.f64	d0, d6, d4
 8006c96:	ee20 0b07 	vmul.f64	d0, d0, d7
 8006c9a:	eeb7 0bc0 	vcvt.f32.f64	s0, d0
 8006c9e:	e757      	b.n	8006b50 <powf+0xf0>
 8006ca0:	9300      	str	r3, [sp, #0]
 8006ca2:	eddd 6a00 	vldr	s13, [sp]
 8006ca6:	eeb7 6a00 	vmov.f32	s12, #112	@ 0x3f800000  1.0
 8006caa:	ee76 6a86 	vadd.f32	s13, s13, s12
 8006cae:	e7c3      	b.n	8006c38 <powf+0x1d8>
 8006cb0:	ed9f 6b13 	vldr	d6, [pc, #76]	@ 8006d00 <powf+0x2a0>
 8006cb4:	eeb4 7bc6 	vcmpe.f64	d7, d6
 8006cb8:	eef1 fa10 	vmrs	APSR_nzcv, fpscr
 8006cbc:	d804      	bhi.n	8006cc8 <powf+0x268>
 8006cbe:	b003      	add	sp, #12
 8006cc0:	e8bd 4030 	ldmia.w	sp!, {r4, r5, lr}
 8006cc4:	f000 b846 	b.w	8006d54 <__math_uflowf>
 8006cc8:	ed9f 6b0f 	vldr	d6, [pc, #60]	@ 8006d08 <powf+0x2a8>
 8006ccc:	eeb4 7bc6 	vcmpe.f64	d7, d6
 8006cd0:	eef1 fa10 	vmrs	APSR_nzcv, fpscr
 8006cd4:	d5b6      	bpl.n	8006c44 <powf+0x1e4>
 8006cd6:	b003      	add	sp, #12
 8006cd8:	e8bd 4030 	ldmia.w	sp!, {r4, r5, lr}
 8006cdc:	f000 b840 	b.w	8006d60 <__math_may_uflowf>
 8006ce0:	eeb7 0a00 	vmov.f32	s0, #112	@ 0x3f800000  1.0
 8006ce4:	e734      	b.n	8006b50 <powf+0xf0>
 8006ce6:	ed9f 0a0d 	vldr	s0, [pc, #52]	@ 8006d1c <powf+0x2bc>
 8006cea:	e731      	b.n	8006b50 <powf+0xf0>
 8006cec:	f3af 8000 	nop.w
 8006cf0:	ffd1d571 	.word	0xffd1d571
 8006cf4:	405fffff 	.word	0x405fffff
 8006cf8:	ffa3aae2 	.word	0xffa3aae2
 8006cfc:	405fffff 	.word	0x405fffff
 8006d00:	00000000 	.word	0x00000000
 8006d04:	c062c000 	.word	0xc062c000
 8006d08:	00000000 	.word	0x00000000
 8006d0c:	c062a000 	.word	0xc062a000
 8006d10:	08007260 	.word	0x08007260
 8006d14:	4b000000 	.word	0x4b000000
 8006d18:	08007118 	.word	0x08007118
 8006d1c:	00000000 	.word	0x00000000

08006d20 <with_errnof>:
 8006d20:	b510      	push	{r4, lr}
 8006d22:	ed2d 8b02 	vpush	{d8}
 8006d26:	eeb0 8a40 	vmov.f32	s16, s0
 8006d2a:	4604      	mov	r4, r0
 8006d2c:	f7ff fe54 	bl	80069d8 <__errno>
 8006d30:	eeb0 0a48 	vmov.f32	s0, s16
 8006d34:	ecbd 8b02 	vpop	{d8}
 8006d38:	6004      	str	r4, [r0, #0]
 8006d3a:	bd10      	pop	{r4, pc}

08006d3c <xflowf>:
 8006d3c:	b130      	cbz	r0, 8006d4c <xflowf+0x10>
 8006d3e:	eef1 7a40 	vneg.f32	s15, s0
 8006d42:	ee27 0a80 	vmul.f32	s0, s15, s0
 8006d46:	2022      	movs	r0, #34	@ 0x22
 8006d48:	f7ff bfea 	b.w	8006d20 <with_errnof>
 8006d4c:	eef0 7a40 	vmov.f32	s15, s0
 8006d50:	e7f7      	b.n	8006d42 <xflowf+0x6>
	...

08006d54 <__math_uflowf>:
 8006d54:	ed9f 0a01 	vldr	s0, [pc, #4]	@ 8006d5c <__math_uflowf+0x8>
 8006d58:	f7ff bff0 	b.w	8006d3c <xflowf>
 8006d5c:	10000000 	.word	0x10000000

08006d60 <__math_may_uflowf>:
 8006d60:	ed9f 0a01 	vldr	s0, [pc, #4]	@ 8006d68 <__math_may_uflowf+0x8>
 8006d64:	f7ff bfea 	b.w	8006d3c <xflowf>
 8006d68:	1a200000 	.word	0x1a200000

08006d6c <__math_oflowf>:
 8006d6c:	ed9f 0a01 	vldr	s0, [pc, #4]	@ 8006d74 <__math_oflowf+0x8>
 8006d70:	f7ff bfe4 	b.w	8006d3c <xflowf>
 8006d74:	70000000 	.word	0x70000000

08006d78 <__math_divzerof>:
 8006d78:	ed9f 0a07 	vldr	s0, [pc, #28]	@ 8006d98 <__math_divzerof+0x20>
 8006d7c:	eef7 7a00 	vmov.f32	s15, #112	@ 0x3f800000  1.0
 8006d80:	eebf 7a00 	vmov.f32	s14, #240	@ 0xbf800000 -1.0
 8006d84:	2800      	cmp	r0, #0
 8006d86:	f04f 0022 	mov.w	r0, #34	@ 0x22
 8006d8a:	fe47 7a87 	vseleq.f32	s15, s15, s14
 8006d8e:	ee87 0a80 	vdiv.f32	s0, s15, s0
 8006d92:	f7ff bfc5 	b.w	8006d20 <with_errnof>
 8006d96:	bf00      	nop
 8006d98:	00000000 	.word	0x00000000

08006d9c <__math_invalidf>:
 8006d9c:	eef0 7a40 	vmov.f32	s15, s0
 8006da0:	ee30 7a40 	vsub.f32	s14, s0, s0
 8006da4:	eef4 7a67 	vcmp.f32	s15, s15
 8006da8:	eef1 fa10 	vmrs	APSR_nzcv, fpscr
 8006dac:	ee87 0a07 	vdiv.f32	s0, s14, s14
 8006db0:	d602      	bvs.n	8006db8 <__math_invalidf+0x1c>
 8006db2:	2021      	movs	r0, #33	@ 0x21
 8006db4:	f7ff bfb4 	b.w	8006d20 <with_errnof>
 8006db8:	4770      	bx	lr
	...

08006dbc <_init>:
 8006dbc:	b5f8      	push	{r3, r4, r5, r6, r7, lr}
 8006dbe:	bf00      	nop
 8006dc0:	bcf8      	pop	{r3, r4, r5, r6, r7}
 8006dc2:	bc08      	pop	{r3}
 8006dc4:	469e      	mov	lr, r3
 8006dc6:	4770      	bx	lr

08006dc8 <_fini>:
 8006dc8:	b5f8      	push	{r3, r4, r5, r6, r7, lr}
 8006dca:	bf00      	nop
 8006dcc:	bcf8      	pop	{r3, r4, r5, r6, r7}
 8006dce:	bc08      	pop	{r3}
 8006dd0:	469e      	mov	lr, r3
 8006dd2:	4770      	bx	lr
